GAS LISTING /tmp/ccABNvJu.s 			page 1


   1              		.file	"aes-ncbi.c"
   2              		.text
   3              		.p2align 4,,15
   4              		.type	KAESBlockCipherVecRegDestroy, @function
   5              	KAESBlockCipherVecRegDestroy:
   6              	.LFB724:
   7              		.cfi_startproc
   8 0000 F3       		rep
   9 0001 C3       		ret
  10              		.cfi_endproc
  11              	.LFE724:
  12              		.size	KAESBlockCipherVecRegDestroy, .-KAESBlockCipherVecRegDestroy
  13 0002 66666666 		.p2align 4,,15
  13      662E0F1F 
  13      84000000 
  13      0000
  14              		.type	KAESBlockCipherVecRegBlockSize, @function
  15              	KAESBlockCipherVecRegBlockSize:
  16              	.LFB725:
  17              		.cfi_startproc
  18 0010 B8100000 		movl	$16, %eax
  18      00
  19 0015 C3       		ret
  20              		.cfi_endproc
  21              	.LFE725:
  22              		.size	KAESBlockCipherVecRegBlockSize, .-KAESBlockCipherVecRegBlockSize
  23 0016 662E0F1F 		.p2align 4,,15
  23      84000000 
  23      0000
  24              		.type	KAESBlockCipherVecRegKeySize, @function
  25              	KAESBlockCipherVecRegKeySize:
  26              	.LFB726:
  27              		.cfi_startproc
  28 0020 B8000100 		movl	$256, %eax
  28      00
  29 0025 C3       		ret
  30              		.cfi_endproc
  31              	.LFE726:
  32              		.size	KAESBlockCipherVecRegKeySize, .-KAESBlockCipherVecRegKeySize
  33 0026 662E0F1F 		.p2align 4,,15
  33      84000000 
  33      0000
  34              	.globl KAESBlockCipherVecRegMake
  35              		.type	KAESBlockCipherVecRegMake, @function
  36              	KAESBlockCipherVecRegMake:
  37              	.LFB732:
  38              		.cfi_startproc
  39 0030 4885FF   		testq	%rdi, %rdi
  40 0033 53       		pushq	%rbx
  41              		.cfi_def_cfa_offset 16
  42 0034 B8878F00 		movl	$-2030006393, %eax
  42      87
  43 0039 743A     		je	.L9
  44              		.cfi_offset 3, -16
  45 003b B8010000 		movl	$1, %eax
  45      00
  46 0040 48C70700 		movq	$0, (%rdi)
GAS LISTING /tmp/ccABNvJu.s 			page 2


  46      000000
  47              	#APP
  48              	# 2513 "/home/rodarmer/sra_sdk-2.2.2a/libs/krypto/aes-ncbi.c" 1
   1              	/*===========================================================================
   2              	 *
   3              	 *                            PUBLIC DOMAIN NOTICE
   4              	 *               National Center for Biotechnology Information
   5              	 *
   6              	 *  This software/database is a "United States Government Work" under the
   7              	 *  terms of the United States Copyright Act.  It was written as part of
   8              	 *  the author's official duties as a United States Government employee and
   9              	 *  thus cannot be copyrighted.  This software/database is freely available
  10              	 *  to the public for use. The National Library of Medicine and the U.S.
  11              	 *  Government have not placed any restriction on its use or reproduction.
  12              	 *
  13              	 *  Although all reasonable efforts have been taken to ensure the accuracy
  14              	 *  and reliability of the software and data, the NLM and the U.S.
  15              	 *  Government do not and cannot warrant the performance or results that
  16              	 *  may be obtained by using this software or data. The NLM and the U.S.
  17              	 *  Government disclaim all warranties, express or implied, including
  18              	 *  warranties of performance, merchantability or fitness for any particular
  19              	 *  purpose.
  20              	 *
  21              	 *  Please cite the author in any work or product based on this material.
  22              	 *
  23              	 * ===========================================================================
  24              	 */
  25              	
  26              	
  27              	#include <krypto/extern.h>
  28              	
  29              	#include "ncbi-priv.h"
  30              	#include "aes-ncbi-priv.h"
  31              	#include "cipher-priv.h"
  32              	#include "blockcipher-priv.h"
  33              	
  34              	#include <klib/debug.h>
  35              	#include <klib/out.h>
  36              	#include <klib/rc.h>
  37              	
  38              	
  39              	#include <byteswap.h>
  40              	#include <string.h>
  41              	#include <stdint.h>
  42              	#include <stdlib.h>
  43              	#include <assert.h>
  44              	#include <sysalloc.h>
  45              	
  46              	#if USE_VEC
  47              	#include <cpuid.h>
  48              	#endif
  49              	
  50              	#if USE_VECREG
  51              	#include <v128.h>
  52              	#endif
  53              	
  54              	/*
GAS LISTING /tmp/ccABNvJu.s 			page 3


  55              	 * This implements the AES cipher as defined by FIPS-197 from NIST
  56              	 *  
  57              	 * Notes on implmentation:
  58              	 *
  59              	 * NOTE:
  60              	 * Byte ordering in AES is not critical but unllike the original implmentation
  61              	 * bytes are not re-ordered to a big endian order upon reading them in and this
  62              	 * code will expect to run on an Intel/AMD type processor and might have issues
  63              	 * on some big endian processors.
  64              	 *
  65              	 * NOTE:
  66              	 * Many functions are written as static inline functions to
  67              	 * facilitate GCC type assembly language optimization on various processors
  68              	 *
  69              	 * NOTE:
  70              	 * This implements the Equivalent Inverse Cipher not the Inverse Cipher.  In
  71              	 * general functions will match those defined in the FIPS-197 document where they
  72              	 * do not get optimized away for Intel/AMD XMM registers and AES-NI instructions.
  73              	 *
  74              	 * NOTE:
  75              	 * C-99 types are used for specific sized types.  An unaddornded unsigned type
  76              	 * is used for many index type variables to allow the compiler choice in
  77              	 * size where size does not matter very much.  As these index variables do
  78              	 * not go above 16 any size would do but the compiler can choose the size most
  79              	 * suited for array subscripting.
  80              	 */
  81              	
  82              	static const
  83              	CipherVec vec_00 =  { 0x00, 0x00, 0x00, 0x00, 0x00, 0x00, 0x00, 0x00,
  84              	                      0x00, 0x00, 0x00, 0x00, 0x00, 0x00, 0x00, 0x00 };
  85              	
  86              	static const
  87              	CipherVec vec_01 =  { 0x01, 0x01, 0x01, 0x01, 0x01, 0x01, 0x01, 0x01,
  88              	                      0x01, 0x01, 0x01, 0x01, 0x01, 0x01, 0x01, 0x01 };
  89              	
  90              	static const
  91              	CipherVec vec_0F =  { 0x0F, 0x0F, 0x0F, 0x0F, 0x0F, 0x0F, 0x0F, 0x0F,
  92              	                      0x0F, 0x0F, 0x0F, 0x0F, 0x0F, 0x0F, 0x0F, 0x0F };
  93              	
  94              	static const
  95              	CipherVec vec_10 =  { 0x10, 0x10, 0x10, 0x10, 0x10, 0x10, 0x10, 0x10,
  96              	                      0x10, 0x10, 0x10, 0x10, 0x10, 0x10, 0x10, 0x10 };
  97              	
  98              	
  99              	
 100              	/* ======================================================================
 101              	 * These functions implment the Advanced Encryption Standard AES as defined
 102              	 * in the FIPS (Federal Information Processing Standars Publication 197
 103              	 * Of Nevember 26, 2001.
 104              	 */
 105              	
 106              	/* ======================================================================
 107              	 * FIPS-197 5.1
 108              	 */
 109              	
 110              	/*
 111              	 * Read a blocks worth of bytes into an CipherVec
GAS LISTING /tmp/ccABNvJu.s 			page 4


 112              	 *
 113              	 * With vector registers it is a single instruction, without them it
 114              	 * is a memmove call
 115              	 */
 116              	static __inline__ 
 117              	CipherVec AESBCMEMBER(StateIn) (const void * ain)
 118              	    __attribute__ ((always_inline));
 119              	
 120              	static __inline__ 
 121              	CipherVec AESBCMEMBER(StateIn) (const void * ain)
 122              	{
 123              	#if USE_VEC_REG
 124              	
 125              	    register CipherVec vec;
 126              	    __asm__ (
 127              	        "movdqu (%[a]),%[s]" : [s] "=x" (vec) : [a] "D" (ain)
 128              	        );
 129              	    return vec;
 130              	
 131              	#else
 132              	
 133              	    CipherVec_AES_u u;
 134              	    memmove (&u.bytes, ain, sizeof (u));
 135              	    return u.state;
 136              	
 137              	#endif
 138              	}
 139              	
 140              	
 141              	/*
 142              	 * Write a block's worth of bytes out from an CipherVec
 143              	 *
 144              	 * With vector registers it is a single instruction, without them it
 145              	 * is a memmove call
 146              	 */
 147              	static __inline__
 148              	void AESBCMEMBER(StateOut) (const CipherVec vec, void * rout)
 149              	    __attribute__ ((always_inline));
 150              	
 151              	static __inline__
 152              	void AESBCMEMBER(StateOut) (const CipherVec vec, void * rout)
 153              	{
 154              	#if USE_VEC_REG
 155              	
 156              	    register CipherVec rvec = vec;
 157              	    __asm__ (
 158              	        "movdqu %[s],(%[a])" : : [s] "x" (rvec), [a] "D" (rout)
 159              	        );
 160              	
 161              	#else
 162              	
 163              	    memmove (rout, &vec, sizeof (vec));
 164              	
 165              	#endif
 166              	}
 167              	
 168              	
GAS LISTING /tmp/ccABNvJu.s 			page 5


 169              	static __inline__ 
 170              	CipherVec AESBCMEMBER(VecXor) (CipherVec v1, CipherVec v2)
 171              	    __attribute__ ((always_inline));
 172              	
 173              	static __inline__ 
 174              	CipherVec AESBCMEMBER(VecXor) (CipherVec v1, CipherVec v2)
 175              	{
 176              	#if USE_VEC
 177              	
 178              	    return v1 ^ v2;
 179              	
 180              	#else
 181              	
 182              	    CipherVec_AES_u u1, u2; /* state and key not countries :) */
 183              	    unsigned ix;
 184              	
 185              	    u1.state = v1;
 186              	    u2.state = v2;
 187              	
 188              	    for (ix = 0; ix < AES_Nb; ++ix)
 189              	        u1.columns[ix] ^= u2.columns[ix];
 190              	
 191              	    return u1.state;
 192              	
 193              	#endif
 194              	}
 195              	
 196              	
 197              	static __inline__ 
 198              	CipherVec AESBCMEMBER(VecAnd) (CipherVec v1, CipherVec v2)
 199              	    __attribute__ ((always_inline));
 200              	
 201              	static __inline__ 
 202              	CipherVec AESBCMEMBER(VecAnd) (CipherVec v1, CipherVec v2)
 203              	{
 204              	#if USE_VEC
 205              	
 206              	    return v1 & v2;
 207              	
 208              	#else
 209              	
 210              	    CipherVec_AES_u u1, u2; /* state and key not countries :) */
 211              	    unsigned ix;
 212              	
 213              	    u1.state = v1;
 214              	    u2.state = v2;
 215              	
 216              	    for (ix = 0; ix < AES_Nb; ++ix)
 217              	        u1.columns[ix] &= u2.columns[ix];
 218              	
 219              	    return u1.state;
 220              	
 221              	#endif
 222              	}
 223              	
 224              	
 225              	static __inline__ 
GAS LISTING /tmp/ccABNvJu.s 			page 6


 226              	CipherVec AESBCMEMBER(VecOr) (CipherVec v1, CipherVec v2)
 227              	    __attribute__ ((always_inline));
 228              	
 229              	static __inline__ 
 230              	CipherVec AESBCMEMBER(VecOr) (CipherVec v1, CipherVec v2)
 231              	{
 232              	#if USE_VEC
 233              	
 234              	    return v1 | v2;
 235              	
 236              	#else
 237              	
 238              	    CipherVec_AES_u u1, u2; /* state and key not countries :) */
 239              	    unsigned ix;
 240              	
 241              	    u1.state = v1;
 242              	    u2.state = v2;
 243              	
 244              	    for (ix = 0; ix < AES_Nb; ++ix)
 245              	        u1.columns[ix] |= u2.columns[ix];
 246              	
 247              	    return u1.state;
 248              	
 249              	#endif
 250              	}
 251              	
 252              	
 253              	static __inline__ 
 254              	CipherVec AESBCMEMBER(VecAdd) (CipherVec v1, CipherVec v2)
 255              	    __attribute__ ((always_inline));
 256              	
 257              	static __inline__ 
 258              	CipherVec AESBCMEMBER(VecAdd) (CipherVec v1, CipherVec v2)
 259              	{
 260              	#if USE_VEC
 261              	
 262              	    return v1 + v2;
 263              	
 264              	#else
 265              	
 266              	    CipherVec_AES_u u1, u2; /* state and key not countries :) */
 267              	    unsigned ix;
 268              	
 269              	    u1.state = v1;
 270              	    u2.state = v2;
 271              	
 272              	    for (ix = 0; ix < AES_Nb; ++ix)
 273              	        u1.columns[ix] += u2.columns[ix];
 274              	
 275              	    return u1.state;
 276              	
 277              	#endif
 278              	}
 279              	
 280              	
 281              	static __inline__ 
 282              	CipherVec AESBCMEMBER(VecSub) (CipherVec v1, CipherVec v2)
GAS LISTING /tmp/ccABNvJu.s 			page 7


 283              	    __attribute__ ((always_inline));
 284              	
 285              	static __inline__ 
 286              	CipherVec AESBCMEMBER(VecSub) (CipherVec v1, CipherVec v2)
 287              	{
 288              	#if USE_VEC
 289              	
 290              	    return v1 - v2;
 291              	
 292              	#else
 293              	
 294              	    CipherVec_AES_u u1, u2; /* state and key not countries :) */
 295              	    unsigned ix;
 296              	
 297              	    u1.state = v1;
 298              	    u2.state = v2;
 299              	
 300              	    for (ix = 0; ix < AES_Nb; ++ix)
 301              	        u1.columns[ix] -= u2.columns[ix];
 302              	
 303              	    return u1.state;
 304              	
 305              	#endif
 306              	}
 307              	
 308              	
 309              	static __inline__ 
 310              	CipherVec AESBCMEMBER(VecMul) (CipherVec v1, CipherVec v2)
 311              	    __attribute__ ((always_inline));
 312              	
 313              	static __inline__ 
 314              	CipherVec AESBCMEMBER(VecMul) (CipherVec v1, CipherVec v2)
 315              	{
 316              	#if USE_VEC
 317              	
 318              	    return v1 * v2;
 319              	
 320              	#else
 321              	
 322              	    CipherVec_AES_u u1, u2; /* state and key not countries :) */
 323              	    unsigned ix;
 324              	
 325              	    u1.state = v1;
 326              	    u2.state = v2;
 327              	
 328              	    for (ix = 0; ix < AES_Nb; ++ix)
 329              	        u1.columns[ix] *= u2.columns[ix];
 330              	
 331              	    return u1.state;
 332              	
 333              	#endif
 334              	}
 335              	
 336              	
 337              	static __inline__ 
 338              	CipherVec AESBCMEMBER(VecDiv) (CipherVec v1, CipherVec v2)
 339              	    __attribute__ ((always_inline));
GAS LISTING /tmp/ccABNvJu.s 			page 8


 340              	
 341              	static __inline__ 
 342              	CipherVec AESBCMEMBER(VecDiv) (CipherVec v1, CipherVec v2)
 343              	{
 344              	#if USE_VEC
 345              	
 346              	    return v1 / v2;
 347              	
 348              	#else
 349              	
 350              	    CipherVec_AES_u u1, u2; /* state and key not countries :) */
 351              	    unsigned ix;
 352              	
 353              	    u1.state = v1;
 354              	    u2.state = v2;
 355              	
 356              	    for (ix = 0; ix < AES_Nb; ++ix)
 357              	        u1.columns[ix] /= u2.columns[ix];
 358              	
 359              	    return u1.state;
 360              	
 361              	#endif
 362              	}
 363              	
 364              	static __inline__ 
 365              	CipherVec AESBCMEMBER(PackShuffleBytes) (CipherVec dest, CipherVec mask)
 366              	    __attribute__ ((always_inline));
 367              	
 368              	static __inline__ 
 369              	CipherVec AESBCMEMBER(PackShuffleBytes) (CipherVec dest, CipherVec mask)
 370              	{
 371              	#if USE_VEC_REG
 372              	
 373              	    return op_PSHUFB128 (dest, mask);
 374              	
 375              	#else
 376              	
 377              	    CipherVec_AES_u out, in, gate;
 378              	    unsigned ix;
 379              	
 380              	    in.state = dest;
 381              	    gate.state = mask;
 382              	
 383              	    for (ix = 0; ix < sizeof dest; ++ix)
 384              	    {
 385              	        if (gate.bytes[ix] & 0x80)
 386              	            out.bytes[ix] = 0;
 387              	        else
 388              	            out.bytes[ix] = in.bytes[gate.bytes[ix] & 0x0F];
 389              	    }
 390              	
 391              	    return out.state;
 392              	
 393              	#endif
 394              	}
 395              	
 396              	
GAS LISTING /tmp/ccABNvJu.s 			page 9


 397              	static __inline__ 
 398              	CipherVec AESBCMEMBER(VecSLLBI) (CipherVec v, const int k)
 399              	    __attribute__ ((always_inline));
 400              	
 401              	static __inline__ 
 402              	CipherVec AESBCMEMBER(VecSLLBI) (CipherVec v, const int k)
 403              	{
 404              	#if USE_VEC_REG
 405              	    static const CipherVec sl_mask [9] = 
 406              	        {
 407              	            { 0xFF, 0xFF, 0xFF, 0xFF, 0xFF, 0xFF, 0xFF, 0xFF,
 408              	              0xFF, 0xFF, 0xFF, 0xFF, 0xFF, 0xFF, 0xFF, 0xFF },
 409              	            { 0xFE, 0xFE, 0xFE, 0xFE, 0xFE, 0xFE, 0xFE, 0xFE,
 410              	              0xFE, 0xFE, 0xFE, 0xFE, 0xFE, 0xFE, 0xFE, 0xFE },
 411              	            { 0xFC, 0xFC, 0xFC, 0xFC, 0xFC, 0xFC, 0xFC, 0xFC,
 412              	              0xFC, 0xFC, 0xFC, 0xFC, 0xFC, 0xFC, 0xFC, 0xFC },
 413              	            { 0xF8, 0xF8, 0xF8, 0xF8, 0xF8, 0xF8, 0xF8, 0xF8,
 414              	              0xF8, 0xF8, 0xF8, 0xF8, 0xF8, 0xF8, 0xF8, 0xF8 },
 415              	            { 0xF0, 0xF0, 0xF0, 0xF0, 0xF0, 0xF0, 0xF0, 0xF0,
 416              	              0xF0, 0xF0, 0xF0, 0xF0, 0xF0, 0xF0, 0xF0, 0xF0 },
 417              	            { 0xE0, 0xE0, 0xE0, 0xE0, 0xE0, 0xE0, 0xE0, 0xE0,
 418              	              0xE0, 0xE0, 0xE0, 0xE0, 0xE0, 0xE0, 0xE0, 0xE0 },
 419              	            { 0xC0, 0xC0, 0xC0, 0xC0, 0xC0, 0xC0, 0xC0, 0xC0,
 420              	              0xC0, 0xC0, 0xC0, 0xC0, 0xC0, 0xC0, 0xC0, 0xC0 },
 421              	            { 0x80, 0x80, 0x80, 0x80, 0x80, 0x80, 0x80, 0x80,
 422              	              0x80, 0x80, 0x80, 0x80, 0x80, 0x80, 0x80, 0x80 },
 423              	            { 0x00, 0x00, 0x00, 0x00, 0x00, 0x00, 0x00, 0x00,
 424              	              0x00, 0x00, 0x00, 0x00, 0x00, 0x00, 0x00, 0x00 }
 425              	        };
 426              	    CipherVec vv = v;
 427              	
 428              	    assert (k <= 8);
 429              	    
 430              	
 431              	/*     DEBUG_CIPHER_VECTOR ("mask", sl_mask[k]); */
 432              	/*     DEBUG_CIPHER_VECTOR ("v 1", vv); */
 433              	    vv = op_PSLLDI128 (vv, k);
 434              	/*     DEBUG_CIPHER_VECTOR ("v 2", vv); */
 435              	    vv = AESBCMEMBER(VecAnd) (vv, sl_mask[k]);
 436              	/*     DEBUG_CIPHER_VECTOR ("v 3", vv); */
 437              	    return vv;
 438              	
 439              	#else
 440              	
 441              	    CipherVec_AES_u vv; /* state and key not countries :) */
 442              	    unsigned ix;
 443              	
 444              	    vv.state = v;
 445              	
 446              	    for (ix = 0; ix < sizeof (v); ++ix)
 447              	    {
 448              	        KOutMsg ("SLLBI %d %x ", k, vv.bytes[ix]);
 449              	        vv.bytes[ix] <<= k;
 450              	        KOutMsg ("%x\n", vv.bytes[ix]);
 451              	    }
 452              	    return vv.state;
 453              	
GAS LISTING /tmp/ccABNvJu.s 			page 10


 454              	#endif
 455              	}
 456              	
 457              	
 458              	static __inline__ 
 459              	CipherVec AESBCMEMBER(VecSRLBI) (CipherVec v, const int k)
 460              	    __attribute__ ((always_inline));
 461              	
 462              	static __inline__ 
 463              	CipherVec AESBCMEMBER(VecSRLBI) (CipherVec v, const int k)
 464              	{
 465              	#if USE_VEC_REG
 466              	    static const CipherVec sr_mask [9] = 
 467              	        {
 468              	            { 0xFF, 0xFF, 0xFF, 0xFF, 0xFF, 0xFF, 0xFF, 0xFF,
 469              	              0xFF, 0xFF, 0xFF, 0xFF, 0xFF, 0xFF, 0xFF, 0xFF },
 470              	            { 0x7F, 0x7F, 0x7F, 0x7F, 0x7F, 0x7F, 0x7F, 0x7F,
 471              	              0x7F, 0x7F, 0x7F, 0x7F, 0x7F, 0x7F, 0x7F, 0x7F },
 472              	            { 0x3F, 0x3F, 0x3F, 0x3F, 0x3F, 0x3F, 0x3F, 0x3F,
 473              	              0x3F, 0x3F, 0x3F, 0x3F, 0x3F, 0x3F, 0x3F, 0x3F },
 474              	            { 0x1F, 0x1F, 0x1F, 0x1F, 0x1F, 0x1F, 0x1F, 0x1F,
 475              	              0x1F, 0x1F, 0x1F, 0x1F, 0x1F, 0x1F, 0x1F, 0x1F },
 476              	            { 0x0F, 0x0F, 0x0F, 0x0F, 0x0F, 0x0F, 0x0F, 0x0F,
 477              	              0x0F, 0x0F, 0x0F, 0x0F, 0x0F, 0x0F, 0x0F, 0x0F },
 478              	            { 0x07, 0x07, 0x07, 0x07, 0x07, 0x07, 0x07, 0x07,
 479              	              0x07, 0x07, 0x07, 0x07, 0x07, 0x07, 0x07, 0x07 },
 480              	            { 0x03, 0x03, 0x03, 0x03, 0x03, 0x03, 0x03, 0x03,
 481              	              0x03, 0x03, 0x03, 0x03, 0x03, 0x03, 0x03, 0x03 },
 482              	            { 0x01, 0x01, 0x01, 0x01, 0x01, 0x01, 0x01, 0x01,
 483              	              0x01, 0x01, 0x01, 0x01, 0x01, 0x01, 0x01, 0x01 },
 484              	            { 0x00, 0x00, 0x00, 0x00, 0x00, 0x00, 0x00, 0x00,
 485              	              0x00, 0x00, 0x00, 0x00, 0x00, 0x00, 0x00, 0x00 }
 486              	        };
 487              	
 488              	    v = op_PSRLDI128 (v, k);
 489              	    v = AESBCMEMBER(VecAnd) (v, sr_mask[(k<8)?k:8]);
 490              	    return v;
 491              	
 492              	#else
 493              	
 494              	    CipherVec_AES_u vv; /* state and key not countries :) */
 495              	    unsigned ix;
 496              	
 497              	    vv.state = v;
 498              	
 499              	    for (ix = 0; ix < sizeof (v); ++ix)
 500              	    {
 501              	        KOutMsg ("SRLBI %d %x ", k, vv.bytes[ix]);
 502              	        vv.bytes[ix] >>= k;
 503              	        KOutMsg ("%x\n", vv.bytes[ix]);
 504              	    }
 505              	    return vv.state;
 506              	
 507              	#endif
 508              	}
 509              	
 510              	
GAS LISTING /tmp/ccABNvJu.s 			page 11


 511              	static __inline__
 512              	CipherVec AESBCMEMBER(SetColumn) (CipherVec state, AESWord column, const int which)
 513              	    __attribute__ ((always_inline));
 514              	
 515              	static __inline__
 516              	CipherVec AESBCMEMBER(SetColumn) (CipherVec state, AESWord column, const int which)
 517              	{
 518              	#if USE_VEC_REG
 519              	    state = op_PINSRUD (state, column, which);
 520              	#else
 521              	    CipherVec_AES_u u;
 522              	    u.state = state;
 523              	    u.columns [which] = column;
 524              	    state = u.state;
 525              	#endif
 526              	    return state;
 527              	}
 528              	
 529              	
 530              	/* ======================================================================
 531              	 * FIPS-197 5.1.4
 532              	 *
 533              	 * The AddRoundKey transformation is a sinple exclusive or of all 128 bits
 534              	 * in the current block against a round key.  This operation is used in all
 535              	 * Cipher and EqInvCipher rounds
 536              	 *
 537              	 * With vector types it is a single operation that with vector registers is
 538              	 * a single op-code.
 539              	 */
 540              	static __inline__ 
 541              	CipherVec AESBCMEMBER(AddRoundKey) (CipherVec state, CipherVec round_key)
 542              	    __attribute__ ((always_inline));
 543              	
 544              	static __inline__ 
 545              	CipherVec AESBCMEMBER(AddRoundKey) (CipherVec state, CipherVec round_key)
 546              	{
 547              	    return AESBCMEMBER(VecXor) (state, round_key);
 548              	}
 549              	
 550              	
 551              	/* ======================================================================
 552              	 * FIPS-197 5.1.2
 553              	 *
 554              	 * FIPS 197 describes the state in column major format
 555              	 * while C and assembly programmers tend to think in row major
 556              	 * The byte order is 0,1,2,3,,...F as shown in the first diagram.
 557              	 *
 558              	 *  ShiftRows() is defined as leaving this state
 559              	 * +---+---+---+---+     +---+---+---+---+
 560              	 * | 0 | 4 | 8 | C |     | 0 | 4 | 8 | C |
 561              	 * +---+---+---+---+     +---+---+---+---+
 562              	 * | 1 | 5 | 9 | D |     | 5 | 9 | D | 1 |
 563              	 * +---+---+---+---+     +---+---+---+---+
 564              	 * | 2 | 6 | A | E |     | A | E | 2 | 6 |
 565              	 * +---+---+---+---+     +---+---+---+---+
 566              	 * | 3 | 7 | B | F |     | F | 3 | 7 | B |
 567              	 * +---+---+---+---+     +---+---+---+---+
GAS LISTING /tmp/ccABNvJu.s 			page 12


 568              	 */
 569              	static __inline__
 570              	CipherVec AESBCMEMBER(ShiftRows) (CipherVec state)
 571              	    __attribute__ ((always_inline));
 572              	
 573              	static __inline__
 574              	CipherVec AESBCMEMBER(ShiftRows) (CipherVec state)
 575              	{
 576              	static const
 577              	    CipherVec ShiftRowTable
 578              	    /*   0,  1,  2,  3,  4,  5,  6,  7,  8,  9, 10, 11, 12, 13, 14, 15 */
 579              	    = {  0,  5, 10, 15,  4,  9, 14,  3,  8, 13,  2,  7, 12,  1,  6, 11 };
 580              	
 581              	    state = AESBCMEMBER(PackShuffleBytes) (state, ShiftRowTable);
 582              	    return state;
 583              	}
 584              	
 585              	
 586              	/* ======================================================================
 587              	 * FIPS-197 5.3.1
 588              	 *
 589              	 * InvShiftRows() is defined as leaving this state
 590              	 * +---+---+---+---+     +---+---+---+---+
 591              	 * | 0 | 4 | 8 | C |     | 0 | 4 | 8 | C |
 592              	 * +---+---+---+---+     +---+---+---+---+
 593              	 * | 1 | 5 | 9 | D |     | D | 1 | 5 | 9 |
 594              	 * +---+---+---+---+     +---+---+---+---+
 595              	 * | 2 | 6 | A | E |     | A | E | 2 | 6 |
 596              	 * +---+---+---+---+     +---+---+---+---+
 597              	 * | 3 | 7 | B | F |     | 7 | B | F | 3 |
 598              	 * +---+---+---+---+     +---+---+---+---+
 599              	 */
 600              	static __inline__
 601              	CipherVec AESBCMEMBER(InvShiftRows) (CipherVec state)
 602              	    __attribute__ ((always_inline));
 603              	
 604              	
 605              	static __inline__
 606              	CipherVec AESBCMEMBER(InvShiftRows) (CipherVec state)
 607              	{
 608              	    static const CipherVecByte InvShiftRowTable
 609              	        /*   0,  1,  2,  3,  4,  5,  6,  7,  8,  9, 10, 11, 12, 13, 14, 15 */
 610              	        = {  0, 13, 10,  7,  4,  1, 14, 11,  8,  5,  2, 15, 12,  9,  6,  3 };
 611              	
 612              	    state = AESBCMEMBER(PackShuffleBytes) (state, InvShiftRowTable);
 613              	    return state;
 614              	}
 615              	
 616              	
 617              	/* ======================================================================
 618              	 * +---+---+---+---+     +---+---+---+---+
 619              	 * | 0 | 4 | 8 | C |     | 3 | 7 | B | F |
 620              	 * +---+---+---+---+     +---+---+---+---+
 621              	 * | 1 | 5 | 9 | D |     | 0 | 4 | 8 | C |
 622              	 * +---+---+---+---+     +---+---+---+---+
 623              	 * | 2 | 6 | A | E |     | 1 | 5 | 9 | D |
 624              	 * +---+---+---+---+     +---+---+---+---+
GAS LISTING /tmp/ccABNvJu.s 			page 13


 625              	 * | 3 | 7 | B | F |     | 2 | 6 | A | E |
 626              	 * +---+---+---+---+     +---+---+---+---+
 627              	 */
 628              	static __inline__
 629              	CipherVec AESBCMEMBER(RotBytesRight) (CipherVec state)
 630              	    __attribute__ ((always_inline));
 631              	
 632              	static __inline__
 633              	CipherVec AESBCMEMBER(RotBytesRight) (CipherVec state)
 634              	{
 635              	static const
 636              	    CipherVec ShiftRowTable
 637              	    /*   0,  1,  2,  3,  4,  5,  6,  7,  8,  9, 10, 11, 12, 13, 14, 15 */
 638              	    = {  3,  0,  1,  2,  7,  4,  5,  6, 11,  8,  9, 10, 15, 12, 13, 14 };
 639              	
 640              	    state = AESBCMEMBER(PackShuffleBytes) (state, ShiftRowTable);
 641              	    return state;
 642              	}
 643              	
 644              	
 645              	/* ======================================================================
 646              	 * +---+---+---+---+     +---+---+---+---+
 647              	 * | 0 | 4 | 8 | C |     | 1 | 5 | B | D |
 648              	 * +---+---+---+---+     +---+---+---+---+
 649              	 * | 1 | 5 | 9 | D |     | 2 | 6 | 8 | E |
 650              	 * +---+---+---+---+     +---+---+---+---+
 651              	 * | 2 | 6 | A | E |     | 3 | 7 | 9 | F |
 652              	 * +---+---+---+---+     +---+---+---+---+
 653              	 * | 3 | 7 | B | F |     | 0 | 4 | 8 | C |
 654              	 * +---+---+---+---+     +---+---+---+---+
 655              	 */
 656              	static __inline__
 657              	CipherVec AESBCMEMBER(RotBytesLeft) (CipherVec state)
 658              	    __attribute__ ((always_inline));
 659              	
 660              	static __inline__
 661              	CipherVec AESBCMEMBER(RotBytesLeft) (CipherVec state)
 662              	{
 663              	    static const CipherVec ShiftRowTable
 664              	        /*   0,  1,  2,  3,  4,  5,  6,  7,  8,  9, 10, 11, 12, 13, 14, 15 */
 665              	        = {  1,  2,  3,  0,  5,  6,  7,  4,  9, 10, 11,  8, 13, 14, 15, 12 };
 666              	
 667              	    state = AESBCMEMBER(PackShuffleBytes) (state, ShiftRowTable);
 668              	    return state;
 669              	}
 670              	
 671              	
 672              	/* ======================================================================
 673              	 * FIPS-197 5.1.1
 674              	 */
 675              	
 676              	
 677              	/*
 678              	 * SubBytes replaces each byte in a state with a specific byte value from
 679              	 * A Rijndael Substitution box
 680              	 */
 681              	static const 
GAS LISTING /tmp/ccABNvJu.s 			page 14


 682              	AESByte AESBCMEMBER(RijndaelSBox)[256] = 
 683              	{
 684              	/*        -0    -1    -2    -3    -4    -5    -6    -7    -8    -9    -A    -B    -C    -D    -E   
 685              	/* 0- */ 0x63, 0x7C, 0x77, 0x7B, 0xF2, 0x6B, 0x6F, 0xC5, 0x30, 0x01, 0x67, 0x2B, 0xFE, 0xD7, 0xAB, 
 686              	/* 1- */ 0xCA, 0x82, 0xC9, 0x7D, 0xFA, 0x59, 0x47, 0xF0, 0xAD, 0xD4, 0xA2, 0xAF, 0x9C, 0xA4, 0x72, 
 687              	/* 2- */ 0xB7, 0xFD, 0x93, 0x26, 0x36, 0x3F, 0xF7, 0xCC, 0x34, 0xA5, 0xE5, 0xF1, 0x71, 0xD8, 0x31, 
 688              	/* 3- */ 0x04, 0xC7, 0x23, 0xC3, 0x18, 0x96, 0x05, 0x9A, 0x07, 0x12, 0x80, 0xE2, 0xEB, 0x27, 0xB2, 
 689              	/* 4- */ 0x09, 0x83, 0x2C, 0x1A, 0x1B, 0x6E, 0x5A, 0xA0, 0x52, 0x3B, 0xD6, 0xB3, 0x29, 0xE3, 0x2F, 
 690              	/* 5- */ 0x53, 0xD1, 0x00, 0xED, 0x20, 0xFC, 0xB1, 0x5B, 0x6A, 0xCB, 0xBE, 0x39, 0x4A, 0x4C, 0x58, 
 691              	/* 6- */ 0xD0, 0xEF, 0xAA, 0xFB, 0x43, 0x4D, 0x33, 0x85, 0x45, 0xF9, 0x02, 0x7F, 0x50, 0x3C, 0x9F, 
 692              	/* 7- */ 0x51, 0xA3, 0x40, 0x8F, 0x92, 0x9D, 0x38, 0xF5, 0xBC, 0xB6, 0xDA, 0x21, 0x10, 0xFF, 0xF3, 
 693              	/* 8- */ 0xCD, 0x0C, 0x13, 0xEC, 0x5F, 0x97, 0x44, 0x17, 0xC4, 0xA7, 0x7E, 0x3D, 0x64, 0x5D, 0x19, 
 694              	/* 9- */ 0x60, 0x81, 0x4F, 0xDC, 0x22, 0x2A, 0x90, 0x88, 0x46, 0xEE, 0xB8, 0x14, 0xDE, 0x5E, 0x0B, 
 695              	/* A- */ 0xE0, 0x32, 0x3A, 0x0A, 0x49, 0x06, 0x24, 0x5C, 0xC2, 0xD3, 0xAC, 0x62, 0x91, 0x95, 0xE4, 
 696              	/* B- */ 0xE7, 0xC8, 0x37, 0x6D, 0x8D, 0xD5, 0x4E, 0xA9, 0x6C, 0x56, 0xF4, 0xEA, 0x65, 0x7A, 0xAE, 
 697              	/* C- */ 0xBA, 0x78, 0x25, 0x2E, 0x1C, 0xA6, 0xB4, 0xC6, 0xE8, 0xDD, 0x74, 0x1F, 0x4B, 0xBD, 0x8B, 
 698              	/* D- */ 0x70, 0x3E, 0xB5, 0x66, 0x48, 0x03, 0xF6, 0x0E, 0x61, 0x35, 0x57, 0xB9, 0x86, 0xC1, 0x1D, 
 699              	/* E- */ 0xE1, 0xF8, 0x98, 0x11, 0x69, 0xD9, 0x8E, 0x94, 0x9B, 0x1E, 0x87, 0xE9, 0xCE, 0x55, 0x28, 
 700              	/* F- */ 0x8C, 0xA1, 0x89, 0x0D, 0xBF, 0xE6, 0x42, 0x68, 0x41, 0x99, 0x2D, 0x0F, 0xB0, 0x54, 0xBB, 
 701              	};
 702              	
 703              	
 704              	#if 0
 705              	static __inline__
 706              	CipherVec AESBCMEMBER(SubBytes) (CipherVec state)
 707              	    __attribute__ ((always_inline));
 708              	
 709              	static __inline__
 710              	CipherVec AESBCMEMBER(SubBytes) (CipherVec state)
 711              	{
 712              	    CipherVec_AES_u u;
 713              	    unsigned ix;
 714              	
 715              	    u.state = state;
 716              	
 717              	    for (ix = 0; ix < sizeof (u.bytes); ++ix)
 718              	    {
 719              	        u.bytes[ix] = AESBCMEMBER(RijndaelSBox)[u.bytes[ix]];
 720              	    }
 721              	
 722              	    return u.state;
 723              	}
 724              	#endif
 725              	
 726              	/*
 727              	 * SubWord performs the same operation as SubBytes but on
 728              	 * the four bytes of a column and not a whole state
 729              	 */
 730              	static __inline__
 731              	AESWord AESBCMEMBER(SubWord) (AESWord w)
 732              	    __attribute__ ((always_inline));
 733              	
 734              	static __inline__
 735              	AESWord AESBCMEMBER(SubWord) (AESWord w)
 736              	{
 737              	    AESColumn col;
 738              	    unsigned ix;
GAS LISTING /tmp/ccABNvJu.s 			page 15


 739              	
 740              	    col.word = w;
 741              	    for (ix = 0; ix < sizeof (col); ++ix)
 742              	        col.bytes[ix] = AESBCMEMBER(RijndaelSBox)[(unsigned)col.bytes[ix]];
 743              	    return col.word;
 744              	}
 745              	
 746              	#if 0
 747              	/*
 748              	 * InvSubBytes replaces each byte in a state with a specific byte value from
 749              	 * an Inversze Rijndael Substitution box.  That is InvSubBytes undoes SubBytes
 750              	 */
 751              	static const 
 752              	uint8_t AESBCMEMBER(RijndaelInvSBox)[256] = 
 753              	{
 754              	/*        -0    -1    -2    -3    -4    -5    -6    -7    -8    -9    -A    -B    -C    -D    -E   
 755              	/* 0- */ 0x52, 0x09, 0x6A, 0xD5, 0x30, 0x36, 0xA5, 0x38, 0xBF, 0x40, 0xA3, 0x9E, 0x81, 0xF3, 0xD7, 
 756              	/* 1- */ 0x7C, 0xE3, 0x39, 0x82, 0x9B, 0x2F, 0xFF, 0x87, 0x34, 0x8E, 0x43, 0x44, 0xC4, 0xDE, 0xE9, 
 757              	/* 2- */ 0x54, 0x7B, 0x94, 0x32, 0xA6, 0xC2, 0x23, 0x3D, 0xEE, 0x4C, 0x95, 0x0B, 0x42, 0xFA, 0xC3, 
 758              	/* 3- */ 0x08, 0x2E, 0xA1, 0x66, 0x28, 0xD9, 0x24, 0xB2, 0x76, 0x5B, 0xA2, 0x49, 0x6D, 0x8B, 0xD1, 
 759              	/* 4- */ 0x72, 0xF8, 0xF6, 0x64, 0x86, 0x68, 0x98, 0x16, 0xD4, 0xA4, 0x5C, 0xCC, 0x5D, 0x65, 0xB6, 
 760              	/* 5- */ 0x6C, 0x70, 0x48, 0x50, 0xFD, 0xED, 0xB9, 0xDA, 0x5E, 0x15, 0x46, 0x57, 0xA7, 0x8D, 0x9D, 
 761              	/* 6- */ 0x90, 0xD8, 0xAB, 0x00, 0x8C, 0xBC, 0xD3, 0x0A, 0xF7, 0xE4, 0x58, 0x05, 0xB8, 0xB3, 0x45, 
 762              	/* 7- */ 0xD0, 0x2C, 0x1E, 0x8F, 0xCA, 0x3F, 0x0F, 0x02, 0xC1, 0xAF, 0xBD, 0x03, 0x01, 0x13, 0x8A, 
 763              	/* 8- */ 0x3A, 0x91, 0x11, 0x41, 0x4F, 0x67, 0xDC, 0xEA, 0x97, 0xF2, 0xCF, 0xCE, 0xF0, 0xB4, 0xE6, 
 764              	/* 9- */ 0x96, 0xAC, 0x74, 0x22, 0xE7, 0xAD, 0x35, 0x85, 0xE2, 0xF9, 0x37, 0xE8, 0x1C, 0x75, 0xDF, 
 765              	/* A- */ 0x47, 0xF1, 0x1A, 0x71, 0x1D, 0x29, 0xC5, 0x89, 0x6F, 0xB7, 0x62, 0x0E, 0xAA, 0x18, 0xBE, 
 766              	/* B- */ 0xFC, 0x56, 0x3E, 0x4B, 0xC6, 0xD2, 0x79, 0x20, 0x9A, 0xDB, 0xC0, 0xFE, 0x78, 0xCD, 0x5A, 
 767              	/* C- */ 0x1F, 0xDD, 0xA8, 0x33, 0x88, 0x07, 0xC7, 0x31, 0xB1, 0x12, 0x10, 0x59, 0x27, 0x80, 0xEC, 
 768              	/* D- */ 0x60, 0x51, 0x7F, 0xA9, 0x19, 0xB5, 0x4A, 0x0D, 0x2D, 0xE5, 0x7A, 0x9F, 0x93, 0xC9, 0x9C, 
 769              	/* E- */ 0xA0, 0xE0, 0x3B, 0x4D, 0xAE, 0x2A, 0xF5, 0xB0, 0xC8, 0xEB, 0xBB, 0x3C, 0x83, 0x53, 0x99, 
 770              	/* F- */ 0x17, 0x2B, 0x04, 0x7E, 0xBA, 0x77, 0xD6, 0x26, 0xE1, 0x69, 0x14, 0x63, 0x55, 0x21, 0x0C, 
 771              	};
 772              	
 773              	
 774              	static __inline__
 775              	CipherVec AESBCMEMBER(InvSubBytes) (CipherVec state)
 776              	    __attribute__ ((always_inline));
 777              	
 778              	static __inline__
 779              	CipherVec AESBCMEMBER(InvSubBytes) (CipherVec state)
 780              	{
 781              	    CipherVec_AES_u u;
 782              	    unsigned ix;
 783              	
 784              	    u.state = state;
 785              	    for (ix = 0; ix < sizeof (u.bytes); ++ix)
 786              	        u.bytes[ix] = AESBCMEMBER(RijndaelInvSBox)[u.bytes[ix]];
 787              	
 788              	    return u.state;
 789              	}
 790              	#endif
 791              	
 792              	static const
 793              	CipherVec AESBCMEMBER(RijndaelSBoxV)[16] = 
 794              	{
 795              	/*     -0    -1    -2    -3    -4    -5    -6    -7    -8    -9    -A    -B    -C    -D    -E    -F
GAS LISTING /tmp/ccABNvJu.s 			page 16


 796              	    { 0x63, 0x7C, 0x77, 0x7B, 0xF2, 0x6B, 0x6F, 0xC5, 0x30, 0x01, 0x67, 0x2B, 0xFE, 0xD7, 0xAB, 0x7
 797              	    { 0xCA, 0x82, 0xC9, 0x7D, 0xFA, 0x59, 0x47, 0xF0, 0xAD, 0xD4, 0xA2, 0xAF, 0x9C, 0xA4, 0x72, 0xC
 798              	    { 0xB7, 0xFD, 0x93, 0x26, 0x36, 0x3F, 0xF7, 0xCC, 0x34, 0xA5, 0xE5, 0xF1, 0x71, 0xD8, 0x31, 0x1
 799              	    { 0x04, 0xC7, 0x23, 0xC3, 0x18, 0x96, 0x05, 0x9A, 0x07, 0x12, 0x80, 0xE2, 0xEB, 0x27, 0xB2, 0x7
 800              	    { 0x09, 0x83, 0x2C, 0x1A, 0x1B, 0x6E, 0x5A, 0xA0, 0x52, 0x3B, 0xD6, 0xB3, 0x29, 0xE3, 0x2F, 0x8
 801              	    { 0x53, 0xD1, 0x00, 0xED, 0x20, 0xFC, 0xB1, 0x5B, 0x6A, 0xCB, 0xBE, 0x39, 0x4A, 0x4C, 0x58, 0xC
 802              	    { 0xD0, 0xEF, 0xAA, 0xFB, 0x43, 0x4D, 0x33, 0x85, 0x45, 0xF9, 0x02, 0x7F, 0x50, 0x3C, 0x9F, 0xA
 803              	    { 0x51, 0xA3, 0x40, 0x8F, 0x92, 0x9D, 0x38, 0xF5, 0xBC, 0xB6, 0xDA, 0x21, 0x10, 0xFF, 0xF3, 0xD
 804              	    { 0xCD, 0x0C, 0x13, 0xEC, 0x5F, 0x97, 0x44, 0x17, 0xC4, 0xA7, 0x7E, 0x3D, 0x64, 0x5D, 0x19, 0x7
 805              	    { 0x60, 0x81, 0x4F, 0xDC, 0x22, 0x2A, 0x90, 0x88, 0x46, 0xEE, 0xB8, 0x14, 0xDE, 0x5E, 0x0B, 0xD
 806              	    { 0xE0, 0x32, 0x3A, 0x0A, 0x49, 0x06, 0x24, 0x5C, 0xC2, 0xD3, 0xAC, 0x62, 0x91, 0x95, 0xE4, 0x7
 807              	    { 0xE7, 0xC8, 0x37, 0x6D, 0x8D, 0xD5, 0x4E, 0xA9, 0x6C, 0x56, 0xF4, 0xEA, 0x65, 0x7A, 0xAE, 0x0
 808              	    { 0xBA, 0x78, 0x25, 0x2E, 0x1C, 0xA6, 0xB4, 0xC6, 0xE8, 0xDD, 0x74, 0x1F, 0x4B, 0xBD, 0x8B, 0x8
 809              	    { 0x70, 0x3E, 0xB5, 0x66, 0x48, 0x03, 0xF6, 0x0E, 0x61, 0x35, 0x57, 0xB9, 0x86, 0xC1, 0x1D, 0x9
 810              	    { 0xE1, 0xF8, 0x98, 0x11, 0x69, 0xD9, 0x8E, 0x94, 0x9B, 0x1E, 0x87, 0xE9, 0xCE, 0x55, 0x28, 0xD
 811              	    { 0x8C, 0xA1, 0x89, 0x0D, 0xBF, 0xE6, 0x42, 0x68, 0x41, 0x99, 0x2D, 0x0F, 0xB0, 0x54, 0xBB, 0x1
 812              	};
 813              	
 814              	static const
 815              	CipherVec AESBCMEMBER(RijndaelInvSBoxV)[16] = 
 816              	{
 817              	/*     -0    -1    -2    -3    -4    -5    -6    -7    -8    -9    -A    -B    -C    -D    -E    -F
 818              	    { 0x52, 0x09, 0x6A, 0xD5, 0x30, 0x36, 0xA5, 0x38, 0xBF, 0x40, 0xA3, 0x9E, 0x81, 0xF3, 0xD7, 0xF
 819              	    { 0x7C, 0xE3, 0x39, 0x82, 0x9B, 0x2F, 0xFF, 0x87, 0x34, 0x8E, 0x43, 0x44, 0xC4, 0xDE, 0xE9, 0xC
 820              	    { 0x54, 0x7B, 0x94, 0x32, 0xA6, 0xC2, 0x23, 0x3D, 0xEE, 0x4C, 0x95, 0x0B, 0x42, 0xFA, 0xC3, 0x4
 821              	    { 0x08, 0x2E, 0xA1, 0x66, 0x28, 0xD9, 0x24, 0xB2, 0x76, 0x5B, 0xA2, 0x49, 0x6D, 0x8B, 0xD1, 0x2
 822              	    { 0x72, 0xF8, 0xF6, 0x64, 0x86, 0x68, 0x98, 0x16, 0xD4, 0xA4, 0x5C, 0xCC, 0x5D, 0x65, 0xB6, 0x9
 823              	    { 0x6C, 0x70, 0x48, 0x50, 0xFD, 0xED, 0xB9, 0xDA, 0x5E, 0x15, 0x46, 0x57, 0xA7, 0x8D, 0x9D, 0x8
 824              	    { 0x90, 0xD8, 0xAB, 0x00, 0x8C, 0xBC, 0xD3, 0x0A, 0xF7, 0xE4, 0x58, 0x05, 0xB8, 0xB3, 0x45, 0x0
 825              	    { 0xD0, 0x2C, 0x1E, 0x8F, 0xCA, 0x3F, 0x0F, 0x02, 0xC1, 0xAF, 0xBD, 0x03, 0x01, 0x13, 0x8A, 0x6
 826              	    { 0x3A, 0x91, 0x11, 0x41, 0x4F, 0x67, 0xDC, 0xEA, 0x97, 0xF2, 0xCF, 0xCE, 0xF0, 0xB4, 0xE6, 0x7
 827              	    { 0x96, 0xAC, 0x74, 0x22, 0xE7, 0xAD, 0x35, 0x85, 0xE2, 0xF9, 0x37, 0xE8, 0x1C, 0x75, 0xDF, 0x6
 828              	    { 0x47, 0xF1, 0x1A, 0x71, 0x1D, 0x29, 0xC5, 0x89, 0x6F, 0xB7, 0x62, 0x0E, 0xAA, 0x18, 0xBE, 0x1
 829              	    { 0xFC, 0x56, 0x3E, 0x4B, 0xC6, 0xD2, 0x79, 0x20, 0x9A, 0xDB, 0xC0, 0xFE, 0x78, 0xCD, 0x5A, 0xF
 830              	    { 0x1F, 0xDD, 0xA8, 0x33, 0x88, 0x07, 0xC7, 0x31, 0xB1, 0x12, 0x10, 0x59, 0x27, 0x80, 0xEC, 0x5
 831              	    { 0x60, 0x51, 0x7F, 0xA9, 0x19, 0xB5, 0x4A, 0x0D, 0x2D, 0xE5, 0x7A, 0x9F, 0x93, 0xC9, 0x9C, 0xE
 832              	    { 0xA0, 0xE0, 0x3B, 0x4D, 0xAE, 0x2A, 0xF5, 0xB0, 0xC8, 0xEB, 0xBB, 0x3C, 0x83, 0x53, 0x99, 0x6
 833              	    { 0x17, 0x2B, 0x04, 0x7E, 0xBA, 0x77, 0xD6, 0x26, 0xE1, 0x69, 0x14, 0x63, 0x55, 0x21, 0x0C, 0x7
 834              	};
 835              	
 836              	
 837              	static const
 838              	CipherVec lo_filter = { 0x00, 0xFF, 0xFF, 0xFF, 0xFF, 0xFF, 0xFF, 0xFF,
 839              	                        0xFF, 0xFF, 0xFF, 0xFF, 0xFF, 0xFF, 0xFF, 0xFF };
 840              	
 841              	static __inline__
 842              	CipherVec AESBCMEMBER(SubBytesInt) (CipherVec state, const CipherVec box [16])
 843              	    __attribute__ ((always_inline));
 844              	
 845              	static __inline__
 846              	CipherVec AESBCMEMBER(SubBytesInt) (CipherVec state, const CipherVec box [16])
 847              	{
 848              	    CipherVec lo, hi, tmp, out;
 849              	    unsigned ix;
 850              	
 851              	    out = vec_00;
 852              	
GAS LISTING /tmp/ccABNvJu.s 			page 17


 853              	/*     DEBUG_CIPHER_VECTOR ("state", state); */
 854              	    lo = AESBCMEMBER(VecAnd) (state, vec_0F);
 855              	/*     DEBUG_CIPHER_VECTOR ("lo", lo); */
 856              	#if USE_VEC_REG
 857              	    hi = op_PSRLDI128 (state, 4);
 858              	/*     DEBUG_CIPHER_VECTOR ("hi", hi); */
 859              	    hi = AESBCMEMBER(VecAnd) (hi, vec_0F);
 860              	/*     DEBUG_CIPHER_VECTOR ("hi", hi); */
 861              	#else
 862              	    hi = AESBCMEMBER(VecDiv) (state, vec_10);
 863              	/*     DEBUG_CIPHER_VECTOR ("hi", hi); */
 864              	#endif
 865              	
 866              	    for (ix = 0; ix < sizeof (state); ++ix)
 867              	    {
 868              	        tmp = AESBCMEMBER(PackShuffleBytes) (lo_filter, hi);
 869              	/*         DEBUG_CIPHER_VECTOR ("tmp", tmp); */
 870              	        tmp = AESBCMEMBER(VecOr) (lo, tmp);
 871              	/*         DEBUG_CIPHER_VECTOR ("tmp", tmp); */
 872              	        tmp = AESBCMEMBER(PackShuffleBytes) (box[ix], tmp);
 873              	/*         DEBUG_CIPHER_VECTOR ("tmp", tmp); */
 874              	        out = AESBCMEMBER(VecOr) (out, tmp);
 875              	/*         DEBUG_CIPHER_VECTOR ("out", out); */
 876              	        hi  = AESBCMEMBER(VecSub) (hi, vec_01);
 877              	/*         DEBUG_CIPHER_VECTOR ("hi", hi); */
 878              	        hi  = AESBCMEMBER(VecAnd) (hi, vec_0F);
 879              	/*         DEBUG_CIPHER_VECTOR ("hi", hi); */
 880              	    }
 881              	/*     DEBUG_CIPHER_VECTOR ("out", out); */
 882              	    return out;
 883              	}
 884              	
 885              	
 886              	static __inline__
 887              	CipherVec AESBCMEMBER(SubBytes) (CipherVec state)
 888              	    __attribute__ ((always_inline));
 889              	
 890              	static __inline__
 891              	CipherVec AESBCMEMBER(SubBytes) (CipherVec state)
 892              	{
 893              	    return AESBCMEMBER(SubBytesInt) (state, AESBCMEMBER(RijndaelSBoxV));
 894              	}
 895              	
 896              	
 897              	static __inline__
 898              	CipherVec AESBCMEMBER(InvSubBytes) (CipherVec state)
 899              	    __attribute__ ((always_inline));
 900              	
 901              	static __inline__
 902              	CipherVec AESBCMEMBER(InvSubBytes) (CipherVec state)
 903              	{
 904              	    return AESBCMEMBER(SubBytesInt) (state, AESBCMEMBER(RijndaelInvSBoxV));
 905              	}
 906              	
 907              	
 908              	/* ======================================================================
 909              	 * FIPS-197 5.1.3
GAS LISTING /tmp/ccABNvJu.s 			page 18


 910              	 */
 911              	
 912              	/*
 913              	 * there are no psllb or psrlb instructions so shift words not bytes
 914              	 * and then cut off bits that would have been zeroed if there were
 915              	 * such instructions
 916              	 *
 917              	 * 
 918              	 */
 919              	static const CipherVec FF_tab = 
 920              	{ 0x00, 0x1B, 0x36, 0x2D, 0x6C, 0x77, 0x5A, 0x41, 0x00, 0x00, 0x00, 0x00, 0x00, 0x00, 0x00, 0x00 };
 921              	
 922              	static __inline__
 923              	CipherVec AESBCMEMBER(FF_mul) (register CipherVec state, const int bits)
 924              	    __attribute__ ((always_inline));
 925              	
 926              	static __inline__
 927              	CipherVec AESBCMEMBER(FF_mul) (register CipherVec state, const int bits)
 928              	{
 929              	    CipherVec sl, sr;
 930              	
 931              	    assert (bits <= 8);
 932              	
 933              	    DEBUG_CIPHER_VECTOR ("state", state);
 934              	    sr = AESBCMEMBER(VecSRLBI) (state, 8 - bits);
 935              	    DEBUG_CIPHER_VECTOR ("sr", sr);
 936              	    sl = AESBCMEMBER(VecSLLBI) (state, bits);
 937              	    DEBUG_CIPHER_VECTOR ("sl", sl);
 938              	    sr = AESBCMEMBER(PackShuffleBytes) (FF_tab, sr);
 939              	    return AESBCMEMBER(VecXor)(sl, sr);
 940              	}
 941              	
 942              	
 943              	static __inline__
 944              	CipherVec AESBCMEMBER(FF_mul_02) (CipherVec state)
 945              	    __attribute__ ((always_inline));
 946              	
 947              	static __inline__
 948              	CipherVec AESBCMEMBER(FF_mul_02) (register CipherVec state)
 949              	{
 950              	    DEBUG_CIPHER_VECTOR ("state", state);
 951              	
 952              	    state =  AESBCMEMBER(FF_mul) (state, 1);
 953              	    DEBUG_CIPHER_VECTOR ("state", state);
 954              	
 955              	    return state;
 956              	}
 957              	
 958              	
 959              	static __inline__
 960              	CipherVec AESBCMEMBER(FF_mul_04) (CipherVec state)
 961              	    __attribute__ ((always_inline));
 962              	
 963              	static __inline__
 964              	CipherVec AESBCMEMBER(FF_mul_04) (CipherVec state)
 965              	{
 966              	    DEBUG_CIPHER_VECTOR ("state", state);
GAS LISTING /tmp/ccABNvJu.s 			page 19


 967              	
 968              	    state =  AESBCMEMBER(FF_mul) (state, 2);
 969              	    DEBUG_CIPHER_VECTOR ("state", state);
 970              	
 971              	    return state;
 972              	}
 973              	
 974              	
 975              	static __inline__
 976              	CipherVec AESBCMEMBER(FF_mul_08) (CipherVec state)
 977              	    __attribute__ ((always_inline));
 978              	
 979              	static __inline__
 980              	CipherVec AESBCMEMBER(FF_mul_08) (CipherVec state)
 981              	{
 982              	    DEBUG_CIPHER_VECTOR ("state", state);
 983              	
 984              	    state =  AESBCMEMBER(FF_mul) (state, 3);
 985              	    DEBUG_CIPHER_VECTOR ("state", state);
 986              	
 987              	    return state;
 988              	}
 989              	
 990              	
 991              	static AESByte AESBCMEMBER(FFtable)[] = { 0x00, 0x1b, 0x36, 0x2d, 0x6c, 0x77, 0x5a, 0x41 };
 992              	
 993              	
 994              	static __inline__ 
 995              	AESByte AESBCMEMBER(FFtab) (uint8_t x)
 996              	    __attribute__ ((always_inline));
 997              	
 998              	static __inline__ 
 999              	AESByte AESBCMEMBER(FFtab) (uint8_t x)
 1000              	{
 1001              	    return AESBCMEMBER(FFtable)[x];
 1002              	}
 1003              	
 1004              	
 1005              	static __inline__ 
 1006              	AESByte AESBCMEMBER(FFmul02) (AESByte b)
 1007              	    __attribute__ ((always_inline));
 1008              	
 1009              	static __inline__ 
 1010              	AESByte AESBCMEMBER(FFmul02) (AESByte b)
 1011              	{
 1012              	    return (b << 1) ^ AESBCMEMBER(FFtab)(b >> 7);
 1013              	}
 1014              	
 1015              	
 1016              	static __inline__ 
 1017              	AESByte AESBCMEMBER(FFmul04) (AESByte b)
 1018              	    __attribute__ ((always_inline));
 1019              	
 1020              	static __inline__ 
 1021              	AESByte AESBCMEMBER(FFmul04) (AESByte b)
 1022              	{
 1023              	    return (b << 2) ^ AESBCMEMBER(FFtab)(b >> 6);
GAS LISTING /tmp/ccABNvJu.s 			page 20


 1024              	}
 1025              	
 1026              	
 1027              	static __inline__ 
 1028              	AESByte AESBCMEMBER(FFmul08) (AESByte b)
 1029              	    __attribute__ ((always_inline));
 1030              	
 1031              	static __inline__ 
 1032              	AESByte AESBCMEMBER(FFmul08) (AESByte b)
 1033              	{
 1034              	    return (b << 3) ^ AESBCMEMBER(FFtab)(b >> 5);
 1035              	}
 1036              	
 1037              	
 1038              	static __inline__
 1039              	CipherVec AESBCMEMBER(MixColumns) (CipherVec state)
 1040              	    __attribute__ ((always_inline));
 1041              	
 1042              	static __inline__
 1043              	CipherVec AESBCMEMBER(MixColumns) (CipherVec state)
 1044              	{
 1045              	    register CipherVec c0, c1, c2, c3;
 1046              	    
 1047              	    c1 = AESBCMEMBER(RotBytesLeft) (state);
 1048              	    c2 = AESBCMEMBER(RotBytesLeft) (c1);
 1049              	    c3 = AESBCMEMBER(RotBytesLeft) (c2);
 1050              	    c0 = AESBCMEMBER(VecXor) (state, c1);
 1051              	
 1052              	
 1053              	#if USE_VEC_REG
 1054              	    c0 = AESBCMEMBER(FF_mul_02) (c0);
 1055              	#else
 1056              	    {
 1057              	        CipherVec_AES_u tmp;
 1058              	        unsigned ix;
 1059              	
 1060              	        tmp.state = c0;
 1061              	    
 1062              	        for (ix = 0; ix < sizeof tmp; ++ix)
 1063              	            tmp.bytes[ix] = AESBCMEMBER(FFmul02)(tmp.bytes[ix]);
 1064              	        c0 = tmp.state;
 1065              	    }
 1066              	#endif
 1067              	    c1 = AESBCMEMBER(VecXor) (c1, c2);
 1068              	    c1 = AESBCMEMBER(VecXor) (c1, c3);
 1069              	    c1 = AESBCMEMBER(VecXor) (c1, c0);
 1070              	
 1071              	    return c1;
 1072              	/* obsoleted 
 1073              	    CipherVec_AES_u in, out;
 1074              	    unsigned ix;
 1075              	
 1076              	    in.state = state;
 1077              	
 1078              	    for (ix = 0; ix < sizeof (out.bytes); ix += 4)
 1079              	    {
 1080              	        unsigned const s0 = in.bytes[ix + 0];
GAS LISTING /tmp/ccABNvJu.s 			page 21


 1081              	        unsigned const s1 = in.bytes[ix + 1];
 1082              	        unsigned const s2 = in.bytes[ix + 2];
 1083              	        unsigned const s3 = in.bytes[ix + 3];
 1084              	
 1085              	        out.bytes[ix + 0] =      s1 ^ s2 ^ s3 ^ AESBCMEMBER(FFmul02)(s0 ^ s1);
 1086              	        out.bytes[ix + 1] = s0      ^ s2 ^ s3 ^ AESBCMEMBER(FFmul02)(s1 ^ s2);
 1087              	        out.bytes[ix + 2] = s0 ^ s1      ^ s3 ^ AESBCMEMBER(FFmul02)(s2 ^ s3);
 1088              	        out.bytes[ix + 3] = s0 ^ s1 ^ s2      ^ AESBCMEMBER(FFmul02)(s3 ^ s0);
 1089              	    }
 1090              	    return out.state;
 1091              	*/
 1092              	}
 1093              	
 1094              	static __inline__
 1095              	CipherVec AESBCMEMBER(InvMixColumns) (CipherVec state)
 1096              	    __attribute__ ((always_inline));
 1097              	
 1098              	static __inline__
 1099              	CipherVec AESBCMEMBER(InvMixColumns) (CipherVec state)
 1100              	{
 1101              	#if USE_AES_NI
 1102              	    state = op_AESIMC (state);
 1103              	#else
 1104              	    register CipherVec r1, r2, r3, f2, f4, f8;
 1105              	
 1106              	    r1 = AESBCMEMBER(RotBytesLeft) (state);
 1107              	    r2 = AESBCMEMBER(RotBytesLeft) (r1);
 1108              	    r3 = AESBCMEMBER(RotBytesLeft) (r2);        
 1109              	
 1110              	    f4 = AESBCMEMBER(VecXor) (state, r2);
 1111              	    f2 = AESBCMEMBER(VecXor) (state, r1);
 1112              	    f8 = AESBCMEMBER(VecXor) (r2, r3);
 1113              	    state = AESBCMEMBER(VecXor) (f8, r1);
 1114              	    f8 = AESBCMEMBER(VecXor) (f8, f2);
 1115              	
 1116              	
 1117              	#if USE_VEC_REG
 1118              	    f2 = AESBCMEMBER(FF_mul) (f2,1);
 1119              	    f4 = AESBCMEMBER(FF_mul) (f4,2);
 1120              	    f8 = AESBCMEMBER(FF_mul) (f8,3);
 1121              	#else
 1122              	    {
 1123              	        CipherVec_AES_u fu2, fu4, fu8;
 1124              	        unsigned ix;
 1125              	
 1126              	        fu2.state = f2;
 1127              	        fu4.state = f4;
 1128              	        fu8.state = f8;
 1129              	
 1130              	        for (ix = 0; ix < sizeof fu2; ++ix)
 1131              	        {
 1132              	            fu2.bytes[ix] = AESBCMEMBER(FFmul02)(fu2.bytes[ix]);
 1133              	            fu4.bytes[ix] = AESBCMEMBER(FFmul04)(fu4.bytes[ix]);
 1134              	            fu8.bytes[ix] = AESBCMEMBER(FFmul08)(fu8.bytes[ix]);
 1135              	        }
 1136              	        f2 = fu2.state;
 1137              	        f4 = fu4.state;
GAS LISTING /tmp/ccABNvJu.s 			page 22


 1138              	        f8 = fu8.state;
 1139              	    }
 1140              	#endif
 1141              	
 1142              	    state = AESBCMEMBER(VecXor) (state, f2);
 1143              	    state = AESBCMEMBER(VecXor) (state, f4);
 1144              	    state = AESBCMEMBER(VecXor) (state, f8);
 1145              	
 1146              	#endif
 1147              	
 1148              	    return state;
 1149              	/*
 1150              	    CipherVec_AES_u in, out;
 1151              	    unsigned ix;
 1152              	
 1153              	    in.state = state;
 1154              	
 1155              	    for (ix = 0; ix < sizeof (out.bytes); ix += AES_Nb)
 1156              	    {
 1157              	        AESWord s0 = in.bytes[ix + 0];
 1158              	        AESWord s1 = in.bytes[ix + 1];
 1159              	        AESWord s2 = in.bytes[ix + 2];
 1160              	        AESWord s3 = in.bytes[ix + 3];
 1161              	        AESWord p, q;
 1162              	
 1163              	        q =     AESBCMEMBER(FFmul08)(s0 ^ s1 ^ s2 ^ s3);
 1164              	        p = q ^ AESBCMEMBER(FFmul04)(s0 ^ s2);
 1165              	        q = q ^ AESBCMEMBER(FFmul04)(s1 ^ s3);
 1166              	
 1167              	        out.bytes[ix + 0] =      s1 ^ s2 ^ s3 ^ AESBCMEMBER(FFmul02)(s0 ^ s1) ^ p;
 1168              	        out.bytes[ix + 1] = s0      ^ s2 ^ s3 ^ AESBCMEMBER(FFmul02)(s1 ^ s2) ^ q;
 1169              	        out.bytes[ix + 2] = s0 ^ s1      ^ s3 ^ AESBCMEMBER(FFmul02)(s2 ^ s3) ^ p;
 1170              	        out.bytes[ix + 3] = s0 ^ s1 ^ s2      ^ AESBCMEMBER(FFmul02)(s3 ^ s0) ^ q;
 1171              	    }
 1172              	
 1173              	    return out.state;
 1174              	*/
 1175              	}
 1176              	
 1177              	
 1178              	/* ======================================================================
 1179              	 * FIPS-197 5.2
 1180              	 */
 1181              	static const
 1182              	AESWord AESBCMEMBER(Rcon)[] = {
 1183              	    0x00000001, 0x00000002, 0x00000004, 0x00000008,
 1184              	    0x00000010, 0x00000020, 0x00000040, 0x00000080,
 1185              	    0x0000001B, 0x00000036
 1186              	};
 1187              	
 1188              	
 1189              	static __inline__
 1190              	AESWord AESBCMEMBER(RotWord) (AESWord w)
 1191              	    __attribute__ ((always_inline));
 1192              	
 1193              	static __inline__
 1194              	AESWord AESBCMEMBER(RotWord) (AESWord w)
GAS LISTING /tmp/ccABNvJu.s 			page 23


 1195              	{
 1196              	    return (w >> 8) | (w << 24);
 1197              	}
 1198              	
 1199              	
 1200              	static __inline__
 1201              	AESWord AESBCMEMBER(GetWord) (const AESByte * pointer)
 1202              	    __attribute__ ((always_inline));
 1203              	
 1204              	static __inline__
 1205              	AESWord AESBCMEMBER(GetWord) (const AESByte * pointer)
 1206              	{
 1207              	    /*
 1208              	     * not portable to architectures which require aligned multibyte reads
 1209              	     * but as this only runs on Intel at this point it is fine for now
 1210              	     */
 1211              	    return *(AESWord*)pointer;
 1212              	}
 1213              	
 1214              	
 1215              	
 1216              	static __inline__
 1217              	void AESBCMEMBER(KeyExpansion) (CipherVec * r, const AESByte * key, unsigned Nr, unsigned Nk)
 1218              	{
 1219              	    AESWord * w = (AESWord*)r;
 1220              	    const AESWord * pRcon;
 1221              	    unsigned ix, limit;
 1222              	    AESWord temp;
 1223              	
 1224              	
 1225              	    DEBUG_KEYEXP(("%s (w (%p), key (%p), Nr (%u) Nk (%u))\n", __func__, w, key, Nr, Nk));
 1226              	
 1227              	    for (ix = 0; ix < Nk; ++ix)
 1228              	    {
 1229              	        DEBUG_KEYEXP(("i (dec): %u\n", ix));
 1230              	        temp = AESBCMEMBER(GetWord) (key+(ix*4));
 1231              	        w[ix] = temp;
 1232              	        DEBUG_KEYEXP(("kw[%i]: %0.8x\n", ix, temp));
 1233              	    }
 1234              	
 1235              	    limit = AES_Nb * (Nr + 1);
 1236              	    pRcon = AESBCMEMBER(Rcon);
 1237              	    DEBUG_KEYEXP(("Nk (%u) Nr (%u) limit (%u)\n", Nk, Nr, limit));
 1238              	        
 1239              	    for (; ix < limit; ++ix)
 1240              	    {
 1241              	
 1242              	        DEBUG_KEYEXP(("i (dec): %u %u\n", ix, limit));
 1243              	
 1244              	        /* temp should already be set */
 1245              	        DEBUG_KEYEXP(("temp: %0.8x\n", temp));
 1246              	        if ((ix % Nk) == 0)
 1247              	        {
 1248              	            temp = AESBCMEMBER(RotWord)(temp);
 1249              	            DEBUG_KEYEXP(("after RotWord: %0.8x \n", temp));
 1250              	            temp = AESBCMEMBER(SubWord) (temp);
 1251              	            DEBUG_KEYEXP(("after SubWord: %0.8x \n", temp));
GAS LISTING /tmp/ccABNvJu.s 			page 24


 1252              	            DEBUG_KEYEXP(("Rcon [i/Nk]: %0.8x\n", *pRcon));
 1253              	            temp ^= *pRcon++;
 1254              	            DEBUG_KEYEXP(("after XOR with Rcon: %0.8x \n", temp));
 1255              	        }
 1256              	        else if ((Nk > 6) && ((ix % Nk) == 4))
 1257              	        {
 1258              	            temp = AESBCMEMBER(SubWord) (temp);
 1259              	            DEBUG_KEYEXP(("after SubWord: %0.8x \n", temp));
 1260              	        }
 1261              	        DEBUG_KEYEXP(("w[i-Nk]: %0.8x\n", w[ix-Nk]));
 1262              	        temp ^= w [ix - Nk];
 1263              	        DEBUG_KEYEXP(("kw[ix]: %0.8x\n", temp));
 1264              	        w [ix] = temp;
 1265              	    }
 1266              	}
 1267              	
 1268              	
 1269              	static __inline__
 1270              	CipherVec AESBCMEMBER(StateShiftLeft32) (CipherVec state)
 1271              	    __attribute__ ((always_inline));
 1272              	
 1273              	static __inline__
 1274              	CipherVec AESBCMEMBER(StateShiftLeft32) (CipherVec state)
 1275              	{
 1276              	#if (USE_VEC_REG)
 1277              	    static const CipherVec mask = { 0xFF, 0xFF, 0xFF, 0xFF, 0, 1, 2, 3, 4, 5, 6, 7, 8, 9, 10, 11 };
 1278              	    return AESBCMEMBER(PackShuffleBytes) (state, mask);
 1279              	#else
 1280              	    CipherVec_AES_u temp;
 1281              	
 1282              	    temp.state = state;
 1283              	    temp.columns[3] = temp.columns[2];
 1284              	    temp.columns[2] = temp.columns[1];
 1285              	    temp.columns[1] = temp.columns[0];
 1286              	    temp.columns[0] = 0;
 1287              	    return temp.state;
 1288              	#endif
 1289              	}
 1290              	
 1291              	
 1292              	static __inline__
 1293              	CipherVec AESBCMEMBER(StateShiftRight64) (CipherVec state)
 1294              	    __attribute__ ((always_inline));
 1295              	
 1296              	static __inline__
 1297              	CipherVec AESBCMEMBER(StateShiftRight64) (CipherVec state)
 1298              	{
 1299              	#if (USE_VEC_REG)
 1300              	    static const CipherVec mask = { 8, 9, 10, 11, 12, 13, 14, 15, 0xFF, 0xFF, 0xFF, 0xFF, 0xFF, 0xF
 1301              	    return AESBCMEMBER(PackShuffleBytes) (state, mask);
 1302              	#else
 1303              	    CipherVec_AES_u temp;
 1304              	
 1305              	    temp.state = state;
 1306              	    temp.columns[0] = temp.columns[2];
 1307              	    temp.columns[1] = temp.columns[3];
 1308              	    temp.columns[2] = 0;
GAS LISTING /tmp/ccABNvJu.s 			page 25


 1309              	    temp.columns[3] = 0;
 1310              	    return temp.state;
 1311              	#endif
 1312              	}
 1313              	
 1314              	
 1315              	static __inline__
 1316              	CipherVec AESBCMEMBER(StateShiftLeft64) (CipherVec state)
 1317              	    __attribute__ ((always_inline));
 1318              	
 1319              	static __inline__
 1320              	CipherVec AESBCMEMBER(StateShiftLeft64) (CipherVec state)
 1321              	{
 1322              	#if (USE_VEC_REG)
 1323              	    static const CipherVec mask = { 0xFF, 0xFF, 0xFF, 0xFF, 0xFF, 0xFF, 0xFF, 0xFF, 0, 1, 2, 3, 4, 
 1324              	    return AESBCMEMBER(PackShuffleBytes) (state, mask);
 1325              	#else
 1326              	    CipherVec_AES_u temp;
 1327              	
 1328              	    temp.state = state;
 1329              	    temp.columns[3] = temp.columns[2];
 1330              	    temp.columns[2] = temp.columns[1];
 1331              	    temp.columns[1] = temp.columns[0];
 1332              	    temp.columns[0] = 0;
 1333              	    return temp.state;
 1334              	#endif
 1335              	}
 1336              	
 1337              	
 1338              	/*
 1339              	 * incoming vector in words
 1340              	 *     W0:W1:W2:W3
 1341              	 *
 1342              	 * output vector in words
 1343              	 *     W3:W3:W3:W3
 1344              	 */
 1345              	static __inline__
 1346              	CipherVec AESBCMEMBER(StateDupColumn3) (CipherVec state)
 1347              	    __attribute__ ((always_inline));
 1348              	
 1349              	static __inline__
 1350              	CipherVec AESBCMEMBER(StateDupColumn3) (CipherVec state)
 1351              	{
 1352              	#if (USE_VEC_REG)
 1353              	    return op_PSHUFD128 (state,0xFF);
 1354              	#else
 1355              	    CipherVec_AES_u temp;
 1356              	
 1357              	    temp.state = state;
 1358              	    temp.columns[2] = temp.columns[3];
 1359              	    temp.columns[1] = temp.columns[3];
 1360              	    temp.columns[0] = temp.columns[3];
 1361              	    return temp.state;
 1362              	#endif
 1363              	}
 1364              	
 1365              	
GAS LISTING /tmp/ccABNvJu.s 			page 26


 1366              	/*
 1367              	 * incoming vector in words
 1368              	 *     W0:W1:W2:W3
 1369              	 *
 1370              	 * output vector in words
 1371              	 *     W2:W2:W2:W2
 1372              	 */
 1373              	static __inline__
 1374              	CipherVec AESBCMEMBER(StateDupColumn2) (CipherVec state)
 1375              	    __attribute__ ((always_inline));
 1376              	
 1377              	static __inline__
 1378              	CipherVec AESBCMEMBER(StateDupColumn2) (CipherVec state)
 1379              	{
 1380              	#if (USE_VEC_REG)
 1381              	    return op_PSHUFD128 (state,0xAA);
 1382              	#else
 1383              	    CipherVec_AES_u temp;
 1384              	
 1385              	    temp.state = state;
 1386              	    temp.columns[3] = temp.columns[2];
 1387              	    temp.columns[1] = temp.columns[2];
 1388              	    temp.columns[0] = temp.columns[2];
 1389              	    return temp.state;
 1390              	#endif
 1391              	}
 1392              	
 1393              	
 1394              	/*
 1395              	 * incoming vector in words
 1396              	 *     W0:W1:W2:W3
 1397              	 *
 1398              	 * output vector in words
 1399              	 *     W2:W2:W2:W2
 1400              	 */
 1401              	static __inline__
 1402              	CipherVec AESBCMEMBER(StateDupColumn1) (CipherVec state)
 1403              	    __attribute__ ((always_inline));
 1404              	
 1405              	static __inline__
 1406              	CipherVec AESBCMEMBER(StateDupColumn1) (CipherVec state)
 1407              	{
 1408              	#if (USE_VEC_REG)
 1409              	    return op_PSHUFD128 (state,0x55);
 1410              	#else
 1411              	    CipherVec_AES_u temp;
 1412              	
 1413              	    temp.state = state;
 1414              	    temp.columns[3] = temp.columns[1];
 1415              	    temp.columns[2] = temp.columns[1];
 1416              	    temp.columns[0] = temp.columns[1];
 1417              	    return temp.state;
 1418              	#endif
 1419              	}
 1420              	
 1421              	
 1422              	/*
GAS LISTING /tmp/ccABNvJu.s 			page 27


 1423              	 * incoming vector in words
 1424              	 *     W0:W1:W2:W3
 1425              	 *
 1426              	 * output vector in words
 1427              	 *     W0:W0:W0:W0
 1428              	 */
 1429              	static __inline__
 1430              	CipherVec AESBCMEMBER(StateDupColumn0) (CipherVec state)
 1431              	    __attribute__ ((always_inline));
 1432              	
 1433              	static __inline__
 1434              	CipherVec AESBCMEMBER(StateDupColumn0) (CipherVec state)
 1435              	{
 1436              	#if (USE_VEC_REG)
 1437              	    return op_PSHUFD128 (state,0x00);
 1438              	#else
 1439              	    CipherVec_AES_u temp;
 1440              	
 1441              	    temp.state = state;
 1442              	    temp.columns[3] = temp.columns[0];
 1443              	    temp.columns[2] = temp.columns[0];
 1444              	    temp.columns[1] = temp.columns[0];
 1445              	    return temp.state;
 1446              	#endif
 1447              	}
 1448              	
 1449              	
 1450              	/*
 1451              	 * incoming vector in words
 1452              	 *     W0:W1:W2:W3
 1453              	 *     X0:X1:X2:X3
 1454              	 *
 1455              	 * output vector in words
 1456              	 *     W0:W1:X0:X1
 1457              	 */
 1458              	static __inline__
 1459              	CipherVec AESBCMEMBER(StateMerge1) (CipherVec w, CipherVec x)
 1460              	    __attribute__ ((always_inline));
 1461              	
 1462              	static __inline__
 1463              	CipherVec AESBCMEMBER(StateMerge1) (CipherVec w, CipherVec x)
 1464              	{
 1465              	#if USE_VEC_REG
 1466              	    return op_SHUFPD (w, x, 0x00);
 1467              	#else
 1468              	    CipherVec_AES_u ww;
 1469              	    CipherVec_AES_u xx;
 1470              	
 1471              	    ww.state = w;
 1472              	    xx.state = x;
 1473              	
 1474              	    ww.columns[2] = xx.columns[0];
 1475              	    ww.columns[3] = xx.columns[1];
 1476              	
 1477              	    return ww.state;
 1478              	#endif
 1479              	}
GAS LISTING /tmp/ccABNvJu.s 			page 28


 1480              	
 1481              	
 1482              	/*
 1483              	 * incoming vector in words
 1484              	 *     W0:W1:W2:W3
 1485              	 *     X0:X1:X2:X3
 1486              	 *
 1487              	 * output vector in words
 1488              	 *     X2:X3:W0:W1
 1489              	 */
 1490              	static __inline__
 1491              	CipherVec AESBCMEMBER(StateMerge2) (CipherVec w, CipherVec x)
 1492              	    __attribute__ ((always_inline));
 1493              	
 1494              	static __inline__
 1495              	CipherVec AESBCMEMBER(StateMerge2) (CipherVec w, CipherVec x)
 1496              	{
 1497              	#if USE_VEC_REG
 1498              	    return op_SHUFPD (w, x, 0x01);
 1499              	#else
 1500              	    CipherVec_AES_u ww;
 1501              	    CipherVec_AES_u xx;
 1502              	
 1503              	    ww.state = w;
 1504              	    xx.state = x;
 1505              	
 1506              	    ww.columns[0] = ww.columns[2];
 1507              	    ww.columns[1] = ww.columns[3];
 1508              	    ww.columns[2] = xx.columns[0];
 1509              	    ww.columns[3] = xx.columns[1];
 1510              	
 1511              	    return ww.state;
 1512              	#endif
 1513              	}
 1514              	
 1515              	
 1516              	/*
 1517              	 * incoming vector in words
 1518              	 *     W0:W1:W2:W3
 1519              	 *     X0:X1:X2:X3
 1520              	 *
 1521              	 * output vector in words
 1522              	 *     X2:X3:W0:W1
 1523              	 */
 1524              	static __inline__
 1525              	CipherVec AESBCMEMBER(StateMerge3) (CipherVec v0, CipherVec v1)
 1526              	    __attribute__ ((always_inline));
 1527              	
 1528              	static __inline__
 1529              	CipherVec AESBCMEMBER(StateMerge3) (CipherVec v0, CipherVec v1)
 1530              	{
 1531              	#if USE_VEC_REG
 1532              	    return op_SHUFPD (v0, v1, 0x02);
 1533              	#else
 1534              	    CipherVec_AES_u t0;
 1535              	    CipherVec_AES_u t1;
 1536              	
GAS LISTING /tmp/ccABNvJu.s 			page 29


 1537              	    t0.state = v0;
 1538              	    t1.state = v1;
 1539              	
 1540              	    t0.columns[2] = t0.columns[0];
 1541              	    t0.columns[3] = t0.columns[1];
 1542              	    t0.columns[0] = t1.columns[2];
 1543              	    t0.columns[1] = t1.columns[3];
 1544              	
 1545              	    return t0.state;
 1546              	#endif
 1547              	}
 1548              	
 1549              	
 1550              	/*
 1551              	 * incoming vector in words
 1552              	 *     W0:W1:W2:W3
 1553              	 *
 1554              	 * output vector in words
 1555              	 *     W0:W0^W1:W0^W1^W2:W0^W1^W2^W3
 1556              	 */
 1557              	static __inline__
 1558              	CipherVec AESBCMEMBER(ShiftXorColumns) (CipherVec state)
 1559              	    __attribute__ ((always_inline));
 1560              	
 1561              	static __inline__
 1562              	CipherVec AESBCMEMBER(ShiftXorColumns) (CipherVec state)
 1563              	{
 1564              	#if USE_VEC
 1565              	    register CipherVec shift = state;
 1566              	
 1567              	    state ^= shift = AESBCMEMBER(StateShiftLeft32) (shift);
 1568              	    state ^= shift = AESBCMEMBER(StateShiftLeft32) (shift);
 1569              	    state ^= shift = AESBCMEMBER(StateShiftLeft32) (shift);
 1570              	
 1571              	    return state;
 1572              	#else
 1573              	    CipherVec_AES_u temp;
 1574              	
 1575              	    temp.state = state;
 1576              	
 1577              	    temp.columns[1] ^= temp.columns[0];
 1578              	    temp.columns[2] ^= temp.columns[1];
 1579              	    temp.columns[3] ^= temp.columns[2];
 1580              	
 1581              	    return temp.state;
 1582              	#endif
 1583              	}
 1584              	
 1585              	
 1586              	static __inline__ 
 1587              	CipherVec AESBCMEMBER(AesKeyGenAssist) (register CipherVec state, const int rcon)
 1588              	    __attribute__ ((always_inline));
 1589              	
 1590              	static __inline__ 
 1591              	CipherVec AESBCMEMBER(AesKeyGenAssist) (register CipherVec state, const int rcon)
 1592              	{
 1593              	#if (USE_AES_NI)
GAS LISTING /tmp/ccABNvJu.s 			page 30


 1594              	    return op_AESKEYGENASSIST (state, rcon);
 1595              	#else
 1596              	    CipherVec_AES_u in;
 1597              	    CipherVec_AES_u out;
 1598              	    AESWord rconw;
 1599              	
 1600              	    rconw = (AESWord)(AESByte)rcon;
 1601              	    in.state = state;
 1602              	
 1603              	    out.columns[0] = AESBCMEMBER(SubWord)(in.columns[1]);
 1604              	    out.columns[1] = AESBCMEMBER(RotWord)(out.columns[0]) ^ rconw;
 1605              	    out.columns[2] = AESBCMEMBER(SubWord)(in.columns[3]);
 1606              	    out.columns[3] = AESBCMEMBER(RotWord)(out.columns[2]) ^ rconw;
 1607              	
 1608              	    return out.state;
 1609              	#endif
 1610              	}
 1611              	
 1612              	
 1613              	static __inline__ 
 1614              	CipherVec AESBCMEMBER(AesKeyGenAssistColumn1) (register CipherVec state, const int rcon)
 1615              	    __attribute__ ((always_inline));
 1616              	
 1617              	static __inline__ 
 1618              	CipherVec AESBCMEMBER(AesKeyGenAssistColumn1) (register CipherVec state, const int rcon)
 1619              	{
 1620              	#if (USE_AES_NI)
 1621              	    register CipherVec tmp = state;
 1622              	    tmp = op_AESKEYGENASSIST (tmp, rcon);
 1623              	    return  AESBCMEMBER(StateDupColumn1) (tmp);
 1624              	#else
 1625              	    CipherVec_AES_u u;
 1626              	    AESWord rconw;
 1627              	    AESWord temp;
 1628              	
 1629              	    rconw = (AESWord)(AESByte)rcon;
 1630              	    u.state = state;
 1631              	    temp  = AESBCMEMBER(SubWord)(u.columns[1]);
 1632              	    temp  = AESBCMEMBER(RotWord)(temp);
 1633              	    temp ^= rconw;
 1634              	
 1635              	    u.columns [0] = u.columns [1] = u.columns [2] = u.columns [3] = temp;
 1636              	    return u.state;
 1637              	#endif
 1638              	}
 1639              	
 1640              	
 1641              	static __inline__ 
 1642              	CipherVec AESBCMEMBER(AesKeyGenAssistColumn2) (register CipherVec state)
 1643              	    __attribute__ ((always_inline));
 1644              	
 1645              	static __inline__ 
 1646              	CipherVec AESBCMEMBER(AesKeyGenAssistColumn2) (register CipherVec state)
 1647              	{
 1648              	#if (USE_AES_NI)
 1649              	    register CipherVec tmp = state;
 1650              	    tmp = op_AESKEYGENASSIST (tmp, 0);
GAS LISTING /tmp/ccABNvJu.s 			page 31


 1651              	    return  AESBCMEMBER(StateDupColumn2) (tmp);
 1652              	#else
 1653              	    CipherVec_AES_u u;
 1654              	    AESWord temp;
 1655              	
 1656              	    u.state = state;
 1657              	    temp  = AESBCMEMBER(SubWord)(u.columns[3]);
 1658              	
 1659              	    u.columns [0] = u.columns [1] = u.columns [2] = u.columns [3] = temp;
 1660              	    return u.state;
 1661              	#endif
 1662              	}
 1663              	
 1664              	
 1665              	static __inline__ 
 1666              	CipherVec AESBCMEMBER(AesKeyGenAssistColumn3) (register CipherVec state, const int rcon)
 1667              	    __attribute__ ((always_inline));
 1668              	
 1669              	static __inline__ 
 1670              	CipherVec AESBCMEMBER(AesKeyGenAssistColumn3) (register CipherVec state, const int rcon)
 1671              	{
 1672              	#if (USE_AES_NI)
 1673              	    register CipherVec tmp = state;
 1674              	    tmp = op_AESKEYGENASSIST (tmp, rcon);
 1675              	    return  AESBCMEMBER(StateDupColumn3) (tmp);
 1676              	
 1677              	#else
 1678              	    register CipherVec vrcon;
 1679              	    register CipherVec tmp;
 1680              	
 1681              	    vrcon = AESBCMEMBER(SetColumn) (vec_00, (AESWord)rcon, 3);
 1682              	    tmp = AESBCMEMBER(SubBytes) (state);
 1683              	    DEBUG_CIPHER_VECTOR ("SubBytes", tmp);
 1684              	    tmp = AESBCMEMBER(RotBytesLeft) (tmp);
 1685              	    DEBUG_CIPHER_VECTOR ("RotBytesLeft", tmp);
 1686              	    tmp = AESBCMEMBER(VecXor)(tmp, vrcon);
 1687              	    DEBUG_CIPHER_VECTOR ("VecXor", tmp);
 1688              	    tmp = AESBCMEMBER(StateDupColumn3) (tmp);
 1689              	    DEBUG_CIPHER_VECTOR ("StateDupColumn3", tmp);
 1690              	    return tmp;
 1691              	
 1692              	#endif
 1693              	/*
 1694              	#elif USE_VEC && 1
 1695              	    register CipherVec tmp;
 1696              	    CipherVec_AES_u u;
 1697              	    
 1698              	    u.columns [3] = rcon;
 1699              	
 1700              	    tmp = AESBCMEMBER(SubBytes) (state);
 1701              	    DEBUG_CIPHER_VECTOR ("SubBytes", tmp);
 1702              	    tmp = AESBCMEMBER(RotBytesLeft) (tmp);
 1703              	    DEBUG_CIPHER_VECTOR ("RotBytesLeft", tmp);
 1704              	    tmp = AESBCMEMBER(VecXor)(tmp, u.state);
 1705              	    DEBUG_CIPHER_VECTOR ("VecXor", tmp);
 1706              	    tmp = AESBCMEMBER(StateDupColumn3) (tmp);
 1707              	    DEBUG_CIPHER_VECTOR ("StateDupColumn3", tmp);
GAS LISTING /tmp/ccABNvJu.s 			page 32


 1708              	    return tmp;
 1709              	
 1710              	#else
 1711              	    CipherVec_AES_u u;
 1712              	    AESWord rconw;
 1713              	    AESWord temp;
 1714              	
 1715              	    rconw = (AESWord)(AESByte)rcon;
 1716              	    u.state = state;
 1717              	    temp  = AESBCMEMBER(SubWord)(u.columns[3]);
 1718              	    temp  = AESBCMEMBER(RotWord)(temp);
 1719              	    temp ^= rconw;
 1720              	
 1721              	    u.columns [0] = u.columns [1] = u.columns [2] = u.columns [3] = temp;
 1722              	    return u.state;
 1723              	#endif
 1724              	*/
 1725              	}
 1726              	
 1727              	
 1728              	#if USE_VEC
 1729              	static __inline__
 1730              	void AESBCMEMBER(KeyExpansion128) (CipherVec * round_keys, const AESByte * key)
 1731              	{
 1732              	    CipherVec state;
 1733              	    CipherVec kgastate;
 1734              	
 1735              	    state = AESBCMEMBER(StateIn) (key);
 1736              	    round_keys[0] = state;
 1737              	
 1738              	#define KE128(rcon,offset) \
 1739              	    kgastate = AESBCMEMBER(AesKeyGenAssistColumn3) (state, rcon); \
 1740              	    state = AESBCMEMBER(ShiftXorColumns) (state); \
 1741              	    state ^= kgastate; \
 1742              	    round_keys[offset] = state
 1743              	
 1744              	    KE128(0x01,1);
 1745              	    KE128(0x02,2);
 1746              	    KE128(0x04,3);
 1747              	    KE128(0x08,4);
 1748              	    KE128(0x10,5);
 1749              	    KE128(0x20,6);
 1750              	    KE128(0x40,7);
 1751              	    KE128(0x80,8);
 1752              	    KE128(0x1B,9);
 1753              	    KE128(0x36,10);
 1754              	}
 1755              	#else
 1756              	static __inline__
 1757              	void AESBCMEMBER(KeyExpansion128) (CipherVec * w, const AESByte * key)
 1758              	{
 1759              	    OUTMSG(("\n\n\n%s: Not my code\n\n\n",__func__));
 1760              	    AESBCMEMBER(KeyExpansion) (w, key, AES_Nr_128, AES_Nk_128);
 1761              	}
 1762              	#endif
 1763              	
 1764              	
GAS LISTING /tmp/ccABNvJu.s 			page 33


 1765              	#if USE_VEC
 1766              	static __inline__
 1767              	void AESBCMEMBER(KeyExpansion192) (CipherVec * round_keys, const AESByte * key)
 1768              	{
 1769              	    /* work on three blocks at a time which is two Nr worth
 1770              	     * we'll build it with 6 words in v0:v1 and 6 words in w0:w1
 1771              	     * but move them them into v0:v1:v2 before writing them to
 1772              	     * the key schedule
 1773              	     */
 1774              	
 1775              	    register CipherVec v0, v1, v2, v3, v4;
 1776              	    register CipherVec k;          /* we'll only need one of the key gen assist blocks at a time */
 1777              	
 1778              	/* pattern 0 */
 1779              	    v0  = AESBCMEMBER(StateIn) (key);              /* k0    : k1    : k2     : k3           */
 1780              	    v1  = AESBCMEMBER(StateIn) (key+8);            /* k2    : k3    : k4     : k5           */
 1781              	    v1  = AESBCMEMBER(StateShiftRight64) (v1);     /* k4    : k5    : 0      : 0            */
 1782              	
 1783              	    round_keys[0] = v0; /* K0:K1:K2:K3 */
 1784              	
 1785              	/* pattern 1 */
 1786              	/* start the working pattern with 6 ready words in v0:v1 */
 1787              	
 1788              	    k   = AESBCMEMBER(AesKeyGenAssistColumn1)
 1789              	        (k = v1, 0x01);                            /* F(k5) : F(k5) : F(k5)  : F(k5)        */
 1790              	    v3  = AESBCMEMBER(ShiftXorColumns) (v0);       /* k0    : k0^k1 :k0^k1^k2:k0^k1^k2^k3   */
 1791              	    v3 ^= k;                                       /* k6    : k7    : k8     : k9           */
 1792              	    v4  = AESBCMEMBER(ShiftXorColumns) (v1);       /* k4    : k4^k5 : k4^k5  : k4^k5        */
 1793              	    k   = AESBCMEMBER(StateDupColumn3) (k = v3);   /* k9    : k9    : k9     : k9           */
 1794              	    v4 ^= k;                                       /* k10   : k11   : k10    : k11          */
 1795              	    v1  = AESBCMEMBER(StateMerge1) (v1,v3);        /* k4    : k5    : k6     : k7           */
 1796              	    round_keys[1] = v1; /* K4:K5:K6:K7 */
 1797              	
 1798              	    v2  = AESBCMEMBER(StateMerge2) (v3,v4);        /* k8    : k9    : k10    : k11          */
 1799              	    round_keys[2] = v2; /* K8:K9:K10:K11 */
 1800              	
 1801              	/* pattern 2 */
 1802              	    v0  = AESBCMEMBER(ShiftXorColumns) (v3);       /* k6    : k6^k7 :k6^k7^k8:k6^k7^k8^k9   */
 1803              	    v1  = AESBCMEMBER(ShiftXorColumns) (v4);       /* k10   :k10^k11: k10^k11: k10^k11      */
 1804              	    k   = AESBCMEMBER(AesKeyGenAssistColumn3)
 1805              	        (k = v2,0x02);                             /* F(k11): F(k11): F(k11) : F(k11)       */
 1806              	    v0 ^= k;                                       /* k12   : k13   : k14    : k15          */
 1807              	    round_keys[3] = v0; /* K12:K13:K14:K15 */
 1808              	    k   = AESBCMEMBER(StateDupColumn3) (k = v0);   /* k15   : k15   : k15    : k15          */
 1809              	    v1 ^= k;                                       /* k16   : k17   : k16    : k17          */
 1810              	
 1811              	
 1812              	/* pattern 1 */
 1813              	/* start the working pattern with 6 ready words in v0:v1 */
 1814              	
 1815              	    k   = AESBCMEMBER(AesKeyGenAssistColumn1)
 1816              	        (k = v1,0x04);                             /* F(k17): F(k17): F(k17) : F(k17)       */
 1817              	    v3  = AESBCMEMBER(ShiftXorColumns) (v0);       /* k12   :k12^k13:k12^k13^k14:k12^k13^k14^k15 */
 1818              	    v3 ^= k;                                       /* k18   : k19   : k20    : k21          */
 1819              	    v4  = AESBCMEMBER(ShiftXorColumns) (v1);       /* k16   :k16^k17: k17    : 0            */
 1820              	    k   = AESBCMEMBER(StateDupColumn3) (k = v3);   /* k21   : k21   : k21    : k21          */
 1821              	    v4 ^= k;                                       /* k22   : k23   : x      : x            */
GAS LISTING /tmp/ccABNvJu.s 			page 34


 1822              	    v1  = AESBCMEMBER(StateMerge1) (v1,v3);        /* k16   : k17   : k18    : k19          */
 1823              	    round_keys[4] = v1; /* K16:K17:K18:K19 */
 1824              	
 1825              	    v2  = AESBCMEMBER(StateMerge2) (v3,v4);        /* k20   : k21   : k22    : k23          */
 1826              	    round_keys[5] = v2; /* K20:K21:K22:K23 */
 1827              	
 1828              	/* pattern 2 */
 1829              	    v0  = AESBCMEMBER(ShiftXorColumns) (v3);       /* k18   :k18^k19:k18^k19^k20:k18^k19^k20^k21 */
 1830              	    v1  = AESBCMEMBER(ShiftXorColumns) (v4);       /* k22   :k22^k23: k23    : 0            */
 1831              	    k   = AESBCMEMBER(AesKeyGenAssistColumn3)
 1832              	        (k = v2,0x08);                             /* F(k23): F(k23): F(k23) : F(k23)       */
 1833              	    v0 ^= k;                                       /* k24   : k25   : k26    : k27          */
 1834              	    k   = AESBCMEMBER(StateDupColumn3) (k = v0);   /* k27   : k27   : k27    : k27          */
 1835              	    v1 ^= k;                                       /* k28   : k29   : x      : x            */
 1836              	
 1837              	    round_keys[6] = v0; /* K24:K25:K26:K27 */
 1838              	
 1839              	/* pattern 1 4-15 = 28-39 */
 1840              	/* start the working pattern with 6 ready words in v0:v1 */
 1841              	
 1842              	    k   = AESBCMEMBER(AesKeyGenAssistColumn1)
 1843              	        (k = v1,0x10);                             /* F(k29): F(k29): F(k29) : F(k29)       */
 1844              	    v3  = AESBCMEMBER(ShiftXorColumns) (v0);       /* k24   :k24^k25:k24^k25^k26:k24^k25^k26^k27 */
 1845              	    v3 ^= k;                                       /* k30   : k31   : k32    : k33          */
 1846              	    v4  = AESBCMEMBER(ShiftXorColumns) (v1);       /* k26   :k28^k29: k29    : 0            */
 1847              	    k   = AESBCMEMBER(StateDupColumn3) (k = v3);   /* k33   : k33   : k33    : k33          */
 1848              	    v4 ^= k;                                       /* k34   : k35   : x      : x            */
 1849              	    v1  = AESBCMEMBER(StateMerge1) (v1,v3);        /* k28   : k29   : k30    : k31          */
 1850              	
 1851              	    round_keys[7] = v1; /* K28:K29:K30:K31 */
 1852              	
 1853              	    v2  = AESBCMEMBER(StateMerge2) (v3,v4);        /* k32   : k33   : k34    : k35          */
 1854              	    round_keys[8] = v2; /* K32:K33:K34:K35 */
 1855              	/* pattern 2 */
 1856              	    v0  = AESBCMEMBER(ShiftXorColumns) (v3);       /* k30   :k30^k31:k30^k31^k32:k30^k31^k32^k33 */
 1857              	    v1  = AESBCMEMBER(ShiftXorColumns) (v4);       /* k26   :k26^k27: k27    : 0            */
 1858              	    k   = AESBCMEMBER(AesKeyGenAssistColumn3)
 1859              	        (k = v2,0x20);                             /* F(k35): F(k35): F(k35) : F(k35)       */
 1860              	    v0 ^= k;                                       /* k36   : k37   : k38    : k39          */
 1861              	    k   = AESBCMEMBER(StateDupColumn3) (v0);       /* k39   : k39   : k39    : k39          */
 1862              	    v1 ^= k;                                       /* k40   : k41   : x      : x            */
 1863              	
 1864              	    round_keys[9] = v0; /* K36:K37:K38:K39 */
 1865              	
 1866              	/* pattern 1 4-15 = 40-55 but we only need through 51 so we change from pattern 2 to pattern 3 */
 1867              	/* start the working pattern with 6 ready words in v0:v1 */
 1868              	
 1869              	    k   = AESBCMEMBER(AesKeyGenAssistColumn1)
 1870              	        (k = v1,0x40);                             /* F(k41): F(k41): F(k41) : F(k41)       */
 1871              	    v3  = AESBCMEMBER(ShiftXorColumns) (v0);       /* k36   :k36^k37:k36^k37^k38:k36^k37^k38^k39 */
 1872              	    v4  = AESBCMEMBER(ShiftXorColumns) (v1);       /* k40   :k40^k41: x   5  : x            */
 1873              	    v3 ^= k;                                       /* k42   : k43   : k44    : k45          */
 1874              	    k   = AESBCMEMBER(StateDupColumn3) (k = v3);   /* k45   : k45   : k45    : k45          */
 1875              	    v4 ^= k;                                       /* k46   : k47   : x      : x            */
 1876              	    v1  = AESBCMEMBER(StateMerge1) (v1,v3);        /* k40   : k41   : k42    : k43          */
 1877              	    round_keys[10] = v1; /* K40:K41:K42:K43 */
 1878              	    v2  = AESBCMEMBER(StateMerge2) (v3,v4);        /* k44   : k45   : k46    : k47          */
GAS LISTING /tmp/ccABNvJu.s 			page 35


 1879              	    round_keys[11] = v2; /* K44:K45:K46:K47 */
 1880              	
 1881              	/* pattern 3 */
 1882              	    v0  = AESBCMEMBER(ShiftXorColumns) (v3);       /* k42   :k42^k43:k42^k43^k44:k42^k43^k44^k45  *
 1883              	    k   = AESBCMEMBER(AesKeyGenAssistColumn3)
 1884              	                                       (v2,0x80);  /* F(k47): F(k47): F(k47) : F(k47)       */
 1885              	    v0 ^= k;                                       /* k48   : k49   : k50    : k51          */
 1886              	    round_keys[12] = v0;                           /* K48:K49:K50:K51 */
 1887              	}
 1888              	#else
 1889              	static __inline__
 1890              	void AESBCMEMBER(KeyExpansion192) (CipherVec * w, const AESByte * key)
 1891              	{
 1892              	    AESBCMEMBER(KeyExpansion) (w, key, AES_Nr_192, AES_Nk_192);
 1893              	}
 1894              	#endif
 1895              	
 1896              	
 1897              	
 1898              	
 1899              	/* ----- */
 1900              	
 1901              	#if USE_VEC || 1
 1902              	static __inline__
 1903              	void AESBCMEMBER(KeyExpansion256) (CipherVec * round_keys, const AESByte * key)
 1904              	{
 1905              	    CipherVec v0, v1;
 1906              	    CipherVec k;
 1907              	
 1908              	    v0 = AESBCMEMBER (StateIn) (key);
 1909              	    v1 = AESBCMEMBER (StateIn) (key + sizeof v0);
 1910              	
 1911              	    round_keys[0] = v0; /* k0  : k1  : k2  : k3  */
 1912              	    round_keys[1] = v1; /* k4  : k5  : k6  : k7  */
 1913              	
 1914              	#define KE256_1(offset,rcon)                            \
 1915              	    k   = AESBCMEMBER(AesKeyGenAssistColumn3)(v1,rcon); \
 1916              	    v0  = AESBCMEMBER(ShiftXorColumns) (v0);            \
 1917              	    v0  = AESBCMEMBER(VecXor) (v0, k);                  \
 1918              	    round_keys[offset] = v0
 1919              	
 1920              	#define KE256_2(offset) \
 1921              	    k   = AESBCMEMBER(AesKeyGenAssistColumn2)(v0);      \
 1922              	    v1  = AESBCMEMBER(ShiftXorColumns) (v1);            \
 1923              	    v1  = AESBCMEMBER(VecXor) (v1, k);                  \
 1924              	    round_keys[offset] = v1
 1925              	
 1926              	    KE256_1(2,0x01);    /* k8  : k9  : k10 : k11 */
 1927              	    KE256_2(3);         /* k12 : k13 : k14 : k15 */
 1928              	    KE256_1(4,0x02);    /* k16 : k17 : k18 : k19 */
 1929              	    KE256_2(5);         /* k20 : k21 : k22 : k23 */
 1930              	    KE256_1(6,0x04);    /* k24 : k25 : k26 : k27 */
 1931              	    KE256_2(7);         /* k28 : k29 : k30 : k31 */
 1932              	    KE256_1(8,0x08);    /* k32 : k33 : k34 : k35 */
 1933              	    KE256_2(9);         /* k36 : k37 : k38 : k39 */
 1934              	    KE256_1(10,0x10);   /* k40 : k41 : k42 : k43 */
 1935              	    KE256_2(11);        /* k44 : k45 : k46 : k47 */
GAS LISTING /tmp/ccABNvJu.s 			page 36


 1936              	    KE256_1(12,0x20);   /* k48 : k49 : k50 : k51 */
 1937              	    KE256_2(13);        /* k52 : k53 : k54 : k55 */
 1938              	    KE256_1(14,0x40);   /* k56 : k57 : k58 : k59 */
 1939              	}
 1940              	#else
 1941              	static __inline__
 1942              	void AESBCMEMBER(KeyExpansion256) (CipherVec * w, const AESByte * key)
 1943              	{
 1944              	    AESBCMEMBER(KeyExpansion) (w, key, AES_Nr_256, AES_Nk_256);
 1945              	}
 1946              	#endif
 1947              	
 1948              	
 1949              	static __inline__
 1950              	void AESBCMEMBER(EqInvKeyExpansion) (CipherVec * r, const CipherVec * dr, unsigned Nr)
 1951              	{
 1952              	    unsigned ix, jx;
 1953              	
 1954              	    jx = Nr;
 1955              	    ix = 0;
 1956              	    r[ix++] = dr[jx--];
 1957              	    while (jx)
 1958              	        r[ix++] = AESBCMEMBER(InvMixColumns)(dr[jx--]);
 1959              	    r[ix] = dr[jx];
 1960              	}
 1961              	
 1962              	
 1963              	static __inline__
 1964              	void AESBCMEMBER(EqInvKeyExpansion128) (CipherVec * w, const CipherVec * kw)
 1965              	{
 1966              	    AESBCMEMBER(EqInvKeyExpansion) (w, kw, AES_Nr_128);
 1967              	}
 1968              	
 1969              	
 1970              	static __inline__
 1971              	void AESBCMEMBER(EqInvKeyExpansion192) (CipherVec * w, const CipherVec * kw)
 1972              	{
 1973              	    AESBCMEMBER(EqInvKeyExpansion) (w, kw, AES_Nr_192);
 1974              	}
 1975              	
 1976              	
 1977              	static __inline__
 1978              	void AESBCMEMBER(EqInvKeyExpansion256) (CipherVec * w, const CipherVec * kw)
 1979              	{
 1980              	    AESBCMEMBER(EqInvKeyExpansion) (w, kw, AES_Nr_256);
 1981              	}
 1982              	
 1983              	
 1984              	/*
 1985              	 * Cipher First Round
 1986              	 */
 1987              	static __inline__ 
 1988              	CipherVec AESBCMEMBER(FirstRound) (CipherVec state, const CipherVec round_keys)
 1989              	    __attribute__ ((always_inline));
 1990              	
 1991              	static __inline__ 
 1992              	CipherVec AESBCMEMBER(FirstRound) (CipherVec state, const CipherVec round_keys)
GAS LISTING /tmp/ccABNvJu.s 			page 37


 1993              	{
 1994              	    DEBUG_CIPHER_VECTOR("Start of Round", state);
 1995              	
 1996              	    DEBUG_CIPHER_VECTOR("Round Key", round_keys);
 1997              	
 1998              	    state = AESBCMEMBER(AddRoundKey) (state, round_keys);
 1999              	
 2000              	    DEBUG_CIPHER_VECTOR("End 1st Round", state);
 2001              	
 2002              	    return state;
 2003              	}
 2004              	
 2005              	
 2006              	static __inline__ 
 2007              	CipherVec AESBCMEMBER(MiddleRound) (register CipherVec state,
 2008              	                                    register const CipherVec round_keys)
 2009              	    __attribute__ ((always_inline));
 2010              	
 2011              	static __inline__ 
 2012              	CipherVec AESBCMEMBER(MiddleRound) (register CipherVec state,
 2013              	                                    register const CipherVec round_keys)
 2014              	{
 2015              	#if _DEBUGGING
 2016              	    CipherVec mstate;
 2017              	    CipherVec mround_keys;
 2018              	
 2019              	    mstate = state;
 2020              	    mround_keys = round_keys;
 2021              	
 2022              	    DEBUG_CIPHER_VECTOR("Start of Round", mstate);
 2023              	
 2024              	#endif
 2025              	
 2026              	#if USE_AES_NI
 2027              	    state = op_AESENC (state, round_keys);
 2028              	#else
 2029              	    state = AESBCMEMBER(SubBytes) (state);
 2030              	
 2031              	    DEBUG_CIPHER_VECTOR("After SubBytes", state);
 2032              	
 2033              	    state = AESBCMEMBER(ShiftRows) (state);
 2034              	
 2035              	    DEBUG_CIPHER_VECTOR("After ShiftRow", state);
 2036              	
 2037              	    state = AESBCMEMBER(MixColumns) (state);
 2038              	
 2039              	    /* ommited n on purpose */
 2040              	    DEBUG_CIPHER_VECTOR("After MixColum", state);
 2041              	
 2042              	    state = AESBCMEMBER(AddRoundKey) (state, round_keys);
 2043              	#endif
 2044              	    DEBUG_CIPHER_VECTOR("Round Key", round_keys);
 2045              	    DEBUG_CIPHER_VECTOR("End of Round", state);
 2046              	
 2047              	    return state;
 2048              	}
 2049              	
GAS LISTING /tmp/ccABNvJu.s 			page 38


 2050              	
 2051              	static __inline__ 
 2052              	CipherVec AESBCMEMBER(LastRound) (register CipherVec state, register CipherVec round_keys)
 2053              	    __attribute__ ((always_inline));
 2054              	
 2055              	static __inline__ 
 2056              	CipherVec AESBCMEMBER(LastRound) (register CipherVec state, register CipherVec round_keys)
 2057              	{
 2058              	    DEBUG_CIPHER_VECTOR("Start of Round", state);
 2059              	
 2060              	#if USE_AES_NI
 2061              	    state = op_AESENCLAST (state, round_keys);
 2062              	#else
 2063              	    state = AESBCMEMBER(SubBytes) (state);
 2064              	
 2065              	    DEBUG_CIPHER_VECTOR("After SubBytes", state);
 2066              	
 2067              	    state = AESBCMEMBER(ShiftRows) (state);
 2068              	
 2069              	    DEBUG_CIPHER_VECTOR("After ShiftRow", state);
 2070              	
 2071              	    state = AESBCMEMBER(AddRoundKey) (state, round_keys);
 2072              	#endif
 2073              	    DEBUG_CIPHER_VECTOR("Round Key", round_keys);
 2074              	    DEBUG_CIPHER_VECTOR("End of Round", state);
 2075              	
 2076              	    return state;
 2077              	}
 2078              	
 2079              	
 2080              	/* ----------------------------------------------------------------------
 2081              	 * Cipher
 2082              	 */
 2083              	/*
 2084              	 * 
 2085              	This implementation as stated
 2086              	 * above for simplifaction broke out the three types of rounds into
 2087              	 * first round, middle rounds, and last round.  This approach was taken
 2088              	 * for ease of coding for optimization using smaller bytes of code
 2089              	 * but inlining of the functions for efficiency
 2090              	 */
 2091              	static __inline__ 
 2092              	CipherVec AESBCMEMBER(Cipher) (CipherVec state, const CipherVec * key,
 2093              	                            unsigned Nr)
 2094              	{
 2095              	    unsigned ix = 0;
 2096              	
 2097              	    state = AESBCMEMBER(FirstRound) (state, key[ix++]);
 2098              	
 2099              	    for ( ; ix < Nr; ++ix)
 2100              	        state = AESBCMEMBER(MiddleRound) (state, key[ix] );
 2101              	
 2102              	    return AESBCMEMBER(LastRound) (state, key[ix]);
 2103              	}
 2104              	
 2105              	
 2106              	/* 
GAS LISTING /tmp/ccABNvJu.s 			page 39


 2107              	 * Section 5.1 of FIPS 197
 2108              	 *
 2109              	 *   This set of routines implements our structured wrapping of the 
 2110              	 *   FIPS-197 Section 5.3.5 Equivalent Inverse Cipher.  In particular
 2111              	 *   figure 15 Pseudo Code for the Equivalent Inverse Cipher.
 2112              	 *
 2113              	 *   The FIPS pseudocode has a single function which we have broken out 
 2114              	 *   into three kinds of rounds - first round, middle rounds and last
 2115              	 *   round as we have also done with the cipher rountine.
 2116              	 *
 2117              	 *   The EqInvCipher operates on whole cipher blocks so the Byte and Block
 2118              	 *   code is the same here until subroutines of the round functions are
 2119              	 *   called.  
 2120              	 */
 2121              	
 2122              	/* 
 2123              	 * First round of equivalent inverse cipher is merely an XOR against the
 2124              	 * round key.
 2125              	 */
 2126              	static __inline__
 2127              	CipherVec AESBCMEMBER(EqInvFirstRound) (CipherVec state, CipherVec round_keys)
 2128              	    __attribute__ ((always_inline));
 2129              	
 2130              	static __inline__
 2131              	CipherVec AESBCMEMBER(EqInvFirstRound) (CipherVec state, CipherVec round_keys)
 2132              	{
 2133              	    DEBUG_INVCIPHER_VECTOR("Start of Round", state);
 2134              	
 2135              	    state =  AESBCMEMBER(AddRoundKey) (state, round_keys);
 2136              	
 2137              	    DEBUG_INVCIPHER_VECTOR("Round Key", round_keys);
 2138              	    DEBUG_INVCIPHER_VECTOR("End of Round", state);
 2139              	    return state;
 2140              	}
 2141              	
 2142              	
 2143              	/*
 2144              	 * middle rounds of the equivalent inverse cipher perform four steps
 2145              	 *   InvSubBytes (inverse substitute bytes
 2146              	 *   InvShiftRows (inverse shift rows
 2147              	 *   InvMixColumns (inverse mix columns)
 2148              	 *   AddRoundKey   (xor against the round key)
 2149              	 *
 2150              	 * the AES-NI instruction set from until implments all four steps with 
 2151              	 * a single instruction
 2152              	 */
 2153              	
 2154              	static __inline__
 2155              	CipherVec AESBCMEMBER(EqInvMiddleRound) (register CipherVec state,
 2156              	                                         register CipherVec round_keys)
 2157              	    __attribute__ ((always_inline));
 2158              	
 2159              	static __inline__
 2160              	CipherVec AESBCMEMBER(EqInvMiddleRound) (register CipherVec state,
 2161              	                                         register CipherVec round_keys)
 2162              	{
 2163              	#if _DEBUGGING
GAS LISTING /tmp/ccABNvJu.s 			page 40


 2164              	    CipherVec mstate;
 2165              	    CipherVec mround_keys;
 2166              	
 2167              	    mstate = state;
 2168              	    mround_keys = round_keys;
 2169              	#endif
 2170              	
 2171              	    DEBUG_INVCIPHER_VECTOR("Start of Round", mstate);
 2172              	
 2173              	    /* 
 2174              	     * AES-NI implmentation
 2175              	     */
 2176              	#if USE_AES_NI
 2177              	
 2178              	    state = op_AESDEC (state, round_keys);
 2179              	
 2180              	#else /* #if USE_AES_NI */
 2181              	
 2182              	    /*
 2183              	     * All other implementations
 2184              	     */
 2185              	    state = AESBCMEMBER(InvSubBytes) (state);
 2186              	
 2187              	# if _DEBUGGING
 2188              	    mstate = state;
 2189              	
 2190              	    DEBUG_INVCIPHER_VECTOR("After InvSubBy", mstate);
 2191              	# endif
 2192              	
 2193              	    state = AESBCMEMBER(InvShiftRows) (state);
 2194              	
 2195              	# if _DEBUGGING
 2196              	    mstate = state;
 2197              	
 2198              	    DEBUG_INVCIPHER_VECTOR("After InvShift", mstate);
 2199              	# endif
 2200              	
 2201              	    state = AESBCMEMBER(InvMixColumns) (state);
 2202              	
 2203              	# if _DEBUGGING
 2204              	    mstate = state;
 2205              	
 2206              	    DEBUG_INVCIPHER_VECTOR("After InvMixCo", mstate);
 2207              	# endif
 2208              	
 2209              	    state = AESBCMEMBER(AddRoundKey) (state, round_keys);
 2210              	#endif
 2211              	
 2212              	#if _DEBUGGING
 2213              	    mstate = state;
 2214              	
 2215              	    DEBUG_INVCIPHER_VECTOR("Round Key", mround_keys);
 2216              	
 2217              	    DEBUG_INVCIPHER_VECTOR("End of Round", mstate);
 2218              	#endif /* #if USE_AES_NI */
 2219              	
 2220              	    return state;
GAS LISTING /tmp/ccABNvJu.s 			page 41


 2221              	}
 2222              	
 2223              	
 2224              	/*
 2225              	 * The final round of the equivalent inverse cipher is the same as 
 2226              	 * the middle rounds with the ommission of the InvMixColumns step.
 2227              	 */
 2228              	static __inline__
 2229              	CipherVec AESBCMEMBER(EqInvLastRound) (register CipherVec state,
 2230              	                                       register CipherVec round_keys)
 2231              	    __attribute__ ((always_inline));
 2232              	
 2233              	static __inline__
 2234              	CipherVec AESBCMEMBER(EqInvLastRound) (register CipherVec state,
 2235              	                                       register CipherVec round_keys)
 2236              	{
 2237              	    DEBUG_INVCIPHER_VECTOR("Start of Round", state);
 2238              	
 2239              	#if USE_AES_NI
 2240              	    state = op_AESDECLAST (state, round_keys);
 2241              	#else
 2242              	
 2243              	    state = AESBCMEMBER(InvSubBytes) (state);
 2244              	
 2245              	    DEBUG_INVCIPHER_VECTOR("After InvSubBy", state);
 2246              	
 2247              	    state = AESBCMEMBER(InvShiftRows) (state);
 2248              	
 2249              	    DEBUG_INVCIPHER_VECTOR("After InvShift", state);
 2250              	
 2251              	    state = AESBCMEMBER(AddRoundKey) (state, round_keys);
 2252              	#endif
 2253              	    DEBUG_INVCIPHER_VECTOR("Round Key", round_keys);
 2254              	    DEBUG_INVCIPHER_VECTOR("End of Round", state);
 2255              	
 2256              	    return state;
 2257              	}
 2258              	
 2259              	
 2260              	/*
 2261              	 * The EqInvCipher functions (is defined in Figure 15 'Pseudo Code for
 2262              	 * for the Equivalent Inverse Cipher.  This implementation as stated
 2263              	 * above for simplifaction broke out the three types of rounds into
 2264              	 * first round, middle rounds, and last round.  This approach was taken
 2265              	 * for ease of coding for optimization using smaller bytes of code
 2266              	 * but inlining of the functions for efficiency
 2267              	 */
 2268              	static /*__inline__*/
 2269              	CipherVec AESBCMEMBER(EqInvCipher) (CipherVec state, const CipherVec * key,
 2270              	                                    unsigned Nr)
 2271              	{
 2272              	    unsigned ix = 0;
 2273              	
 2274              	    state = AESBCMEMBER(EqInvFirstRound) (state, key[ix++]);
 2275              	
 2276              	    for ( ; ix < Nr; ++ix)
 2277              	        state = AESBCMEMBER(EqInvMiddleRound) (state, key[ix] );
GAS LISTING /tmp/ccABNvJu.s 			page 42


 2278              	
 2279              	    return AESBCMEMBER(EqInvLastRound) (state, key[ix]);
 2280              	}
 2281              	
 2282              	
 2283              	/* ======================================================================
 2284              	 * This section of the file is the use of the cipher defined above within
 2285              	 * our BlockCipherObject.
 2286              	 *
 2287              	 * These are the functions that will be directly referenced in the vector
 2288              	 * table for the block cipher.  These are not specifically derived from
 2289              	 * the FIPS-197 document.
 2290              	 */
 2291              	#include "blockcipher-impl.h"
 2292              	
 2293              	typedef struct AES_CLASS AES_CLASS;
 2294              	
 2295              	static const char AESBCMEMBER(aes_ncbi_name) [] = CLASS_STRING(AES_CLASS);
 2296              	
 2297              	
 2298              	/* ----------------------------------------------------------------------
 2299              	 * Destroy
 2300              	 *   How large is the stored key for this cipher?  Not the user key used
 2301              	 *   to create this key (key schedule)
 2302              	 *
 2303              	 *   This is needed by KCipher to know how large the KCipher objecr is at
 2304              	 *   allocation and to know how much of a buffer each decryption/encryption is
 2305              	 */
 2306              	static
 2307              	void AESBCMEMBER(Destroy) (const BLOCKCIPHER_VEC_IMPL * self)
 2308              	{
 2309              	    /* we use a constant object so do nothing */
 2310              	}
 2311              	
 2312              	
 2313              	/* ----------------------------------------------------------------------
 2314              	 * BlockSize
 2315              	 */
 2316              	static
 2317              	uint32_t AESBCMEMBER(BlockSize) ()
 2318              	{
 2319              	    return (uint32_t) sizeof (AESBlock);
 2320              	}
 2321              	
 2322              	
 2323              	/* ----------------------------------------------------------------------
 2324              	 * KeySize
 2325              	 *   How large is the stored key for this cipher?  Not the user key used
 2326              	 *   to create this key (key schedule)
 2327              	 *
 2328              	 *   This is needed by KCipher to know how large the KCipher objecr is at
 2329              	 *   allocation and to know how much of a buffer each decryption/encryption is
 2330              	 */
 2331              	static
 2332              	uint32_t AESBCMEMBER(KeySize) ()
 2333              	{
 2334              	    return (uint32_t) sizeof (AESKeySchedule);
GAS LISTING /tmp/ccABNvJu.s 			page 43


 2335              	}
 2336              	
 2337              	
 2338              	/* ----------------------------------------------------------------------
 2339              	 * SetEncryptKey
 2340              	 *   The KCipher calls this to have the block cipher build an encryption
 2341              	 *   key in the KCipher object
 2342              	 *
 2343              	 */
 2344              	static
 2345              	rc_t AESBCMEMBER(SetEncryptKey) (void * encrypt_key, const char * user_key,
 2346              	                                 uint32_t user_key_size)
 2347              	{
 2348              	    rc_t rc;
 2349              	    AESKeySchedule * key;
 2350              	
 2351              	    rc = 0;
 2352              	    key = encrypt_key;
 2353              	
 2354              	    switch (user_key_size)
 2355              	    {
 2356              	    case AES_Nk_128 * sizeof (AESWord):
 2357              	        key->number_of_rounds = AES_Nr_128;
 2358              	        AESBCMEMBER(KeyExpansion128) (key->round_keys, (AESByte*)user_key);
 2359              	        break;
 2360              	
 2361              	    case AES_Nk_192 * sizeof (AESWord):
 2362              	        key->number_of_rounds = AES_Nr_192;
 2363              	        AESBCMEMBER(KeyExpansion192) (key->round_keys, (AESByte*)user_key);
 2364              	        break;
 2365              	
 2366              	    case AES_Nk_256 * sizeof (AESWord):
 2367              	        key->number_of_rounds = AES_Nr_256;
 2368              	        AESBCMEMBER(KeyExpansion256) (key->round_keys, (AESByte*)user_key);
 2369              	        break;
 2370              	
 2371              	    default:
 2372              	        key->number_of_rounds = 0;
 2373              	        memset (key, 0, sizeof (*key));
 2374              	        rc = RC (rcKrypto, rcBlockCipher, rcUpdating, rcParam, rcInvalid);
 2375              	        break;
 2376              	    }
 2377              	    return rc;
 2378              	}
 2379              	
 2380              	
 2381              	/* ----------------------------------------------------------------------
 2382              	 * SetDecryptKey
 2383              	 *   The KCipher calls this to have the block cipher build an decryption
 2384              	 *   key in the KCipher object
 2385              	 *
 2386              	 */
 2387              	static
 2388              	rc_t AESBCMEMBER(SetDecryptKey) (void * decrypt_key,
 2389              	                                 const char * user_key,
 2390              	                                 uint32_t user_key_size)
 2391              	{
GAS LISTING /tmp/ccABNvJu.s 			page 44


 2392              	    AESKeySchedule encrypt_key;
 2393              	    rc_t rc;
 2394              	
 2395              	    rc = AESBCMEMBER(SetEncryptKey) (&encrypt_key, user_key, user_key_size);
 2396              	    if (rc == 0)
 2397              	    {
 2398              	        AESKeySchedule * key;
 2399              	
 2400              	        key = decrypt_key;
 2401              	
 2402              	        switch (key->number_of_rounds = encrypt_key.number_of_rounds)
 2403              	        {
 2404              	        case AES_Nr_128:
 2405              	            AESBCMEMBER(EqInvKeyExpansion128) (key->round_keys,
 2406              	                                               encrypt_key.round_keys);
 2407              	            break;
 2408              	
 2409              	        case AES_Nr_192:
 2410              	            AESBCMEMBER(EqInvKeyExpansion192) (key->round_keys,
 2411              	                                               encrypt_key.round_keys);
 2412              	            break;
 2413              	
 2414              	        case AES_Nr_256:
 2415              	            AESBCMEMBER(EqInvKeyExpansion256) (key->round_keys,
 2416              	                                               encrypt_key.round_keys);
 2417              	            break;
 2418              	        }
 2419              	    }
 2420              	    return rc;
 2421              	}
 2422              	
 2423              	
 2424              	/* ----------------------------------------------------------------------
 2425              	 * Encrypt
 2426              	 *
 2427              	 *   Perform an encryption of a single block.  Chained modes and stream
 2428              	 *   cipher modes will call this multiple times.
 2429              	 *
 2430              	 */
 2431              	static
 2432              	CipherVec AESBCMEMBER(Encrypt) (CipherVec state,
 2433              	                                const void * encrypt_key)
 2434              	{
 2435              	    const AESKeySchedule * key = encrypt_key;
 2436              	    assert (key);
 2437              	
 2438              	    switch (key->number_of_rounds)
 2439              	    {
 2440              	    default:
 2441              	        state = vec_00;
 2442              	        break;
 2443              	
 2444              	    case AES_Nr_128:
 2445              	        state = AESBCMEMBER(Cipher) (state, key->round_keys, AES_Nr_128);
 2446              	        break;
 2447              	
 2448              	    case AES_Nr_192:
GAS LISTING /tmp/ccABNvJu.s 			page 45


 2449              	        state = AESBCMEMBER(Cipher) (state, key->round_keys, AES_Nr_192);
 2450              	        break;
 2451              	
 2452              	    case AES_Nr_256:
 2453              	        state = AESBCMEMBER(Cipher) (state, key->round_keys, AES_Nr_256);
 2454              	        break;
 2455              	    }
 2456              	
 2457              	    return state;
 2458              	}
 2459              	
 2460              	
 2461              	/* ----------------------------------------------------------------------
 2462              	 * Decrypt
 2463              	 *
 2464              	 *   Perform a decryption of a single block.  Chained modes and stream
 2465              	 *   cipher modes will call this multiple times.
 2466              	 */
 2467              	static
 2468              	CipherVec AESBCMEMBER(Decrypt) (CipherVec state,
 2469              	                                const void * decrypt_key)
 2470              	{
 2471              	    const AESKeySchedule * key = decrypt_key;
 2472              	
 2473              	    assert (key);
 2474              	
 2475              	    switch (key->number_of_rounds)
 2476              	    {
 2477              	    default:
 2478              	        state = vec_00; /* for an illegal cipher key schedule just write zeroes */
 2479              	        break;
 2480              	
 2481              	    case AES_Nr_128:
 2482              	        state = AESBCMEMBER(EqInvCipher) (state, key->round_keys,
 2483              	                                          AES_Nr_128);
 2484              	        break;
 2485              	
 2486              	    case AES_Nr_192:
 2487              	        state = AESBCMEMBER(EqInvCipher) (state, key->round_keys,
 2488              	                                          AES_Nr_192);
 2489              	        break;
 2490              	
 2491              	    case AES_Nr_256:
 2492              	        state = AESBCMEMBER(EqInvCipher) (state, key->round_keys,
 2493              	                                          AES_Nr_256);
 2494              	        break;
 2495              	    }
 2496              	
 2497              	    return state;
 2498              	}
 2499              	
 2500              	
 2501              	/* ----------------------------------------------------------------------
 2502              	 * MakeProcessorSupport
 2503              	 *
 2504              	 * Run-time check for support of this particular AES implmentation by
 2505              	 * checking the flags given via the cpuid instruction.
GAS LISTING /tmp/ccABNvJu.s 			page 46


 2506              	 */
 2507              	static __inline__
 2508              	bool AESBCMEMBER(ProcessorSupport) ()
 2509              	{
 2510              	    uint32_t level = 1, a, b, c, d;
 2511              	    bool ret = true;
 2512              	
 2513 0047 0FA2     	    __cpuid (level, a, b, c, d);
 2514              	
 2515              	    DEBUG_OBJECT(("%s: level %x a %x, b %x c %x d %x\n",__func__, level, a,b,c,d));
  49              		cpuid
  50              		
  51              	# 0 "" 2
  52              	#NO_APP
  53 0049 F7C10000 		testl	$524288, %ecx
  53      0800
  54 004f 741F     		je	.L10
  55 0051 F6C502   		testb	$2, %ch
  56 0054 741A     		je	.L10
  57 0056 83E101   		andl	$1, %ecx
  58 0059 7415     		je	.L10
  59 005b F7C20000 		testl	$67108864, %edx
  59      0004
  60              		.p2align 4,,5
  61 0061 740D     		je	.L10
  62 0063 81E20000 		andl	$33554432, %edx
  62      0002
  63              		.p2align 4,,5
  64 0069 7515     		jne	.L11
  65 006b 0F1F4400 		.p2align 4,,10
  65      00
  66              		.p2align 3
  67              	.L10:
  68 0070 B8038500 		movl	$-2030009085, %eax
  68      87
  69              	.L9:
  70 0075 5B       		popq	%rbx
  71              		.p2align 4,,4
  72 0076 C3       		ret
  73 0077 660F1F84 		.p2align 4,,10
  73      00000000 
  73      00
  74              		.p2align 3
  75              	.L11:
  76 0080 488D0500 		leaq	KAESBlockCipherVecReg_vt_(%rip), %rax
  76      000000
  77 0087 5B       		popq	%rbx
  78 0088 488907   		movq	%rax, (%rdi)
  79 008b 31C0     		xorl	%eax, %eax
  80 008d C3       		ret
  81              		.cfi_endproc
  82              	.LFE732:
  83              		.size	KAESBlockCipherVecRegMake, .-KAESBlockCipherVecRegMake
  84 008e 6690     		.p2align 4,,15
  85              		.type	KAESBlockCipherVecRegEqInvCipher, @function
  86              	KAESBlockCipherVecRegEqInvCipher:
  87              	.LFB723:
GAS LISTING /tmp/ccABNvJu.s 			page 47


  88              		.cfi_startproc
  89 0090 4883EC70 		subq	$112, %rsp
  90              		.cfi_def_cfa_offset 120
  91 0094 83FE01   		cmpl	$1, %esi
  92 0097 660F6F27 		movdqa	(%rdi), %xmm4
  93 009b 660FEFE0 		pxor	%xmm0, %xmm4
  94 009f 0F864C07 		jbe	.L20
  94      0000
  95 00a5 66440F6F 		movdqa	.LC7(%rip), %xmm10
  95      15000000 
  95      00
  96 00ae 8D56FE   		leal	-2(%rsi), %edx
  97 00b1 31C0     		xorl	%eax, %eax
  98 00b3 660F6F05 		movdqa	.LC8(%rip), %xmm0
  98      00000000 
  99 00bb 4883C201 		addq	$1, %rdx
 100 00bf 48C1E204 		salq	$4, %rdx
 101 00c3 660F6F2D 		movdqa	.LC9(%rip), %xmm5
 101      00000000 
 102 00cb 66440F6F 		movdqa	.LC12(%rip), %xmm8
 102      05000000 
 102      00
 103 00d4 660F6F35 		movdqa	.LC10(%rip), %xmm6
 103      00000000 
 104 00dc 660F6F3D 		movdqa	.LC11(%rip), %xmm7
 104      00000000 
 105 00e4 66440F7F 		movdqa	%xmm10, 56(%rsp)
 105      542438
 106 00eb 660F7F44 		movdqa	%xmm0, 72(%rsp)
 106      2448
 107 00f1 660F7F6C 		movdqa	%xmm5, 88(%rsp)
 107      2458
 108 00f7 66440F7F 		movdqa	%xmm8, -72(%rsp)
 108      4424B8
 109 00fe 660F7F74 		movdqa	%xmm6, -104(%rsp)
 109      2498
 110 0104 660F7F7C 		movdqa	%xmm7, -88(%rsp)
 110      24A8
 111 010a 66440F6F 		movdqa	.LC13(%rip), %xmm9
 111      0D000000 
 111      00
 112 0113 66440F6F 		movdqa	.LC14(%rip), %xmm10
 112      15000000 
 112      00
 113 011c 660F6F05 		movdqa	.LC15(%rip), %xmm0
 113      00000000 
 114 0124 660F6F2D 		movdqa	.LC16(%rip), %xmm5
 114      00000000 
 115 012c 66440F6F 		movdqa	.LC19(%rip), %xmm8
 115      05000000 
 115      00
 116 0135 660F6F35 		movdqa	.LC17(%rip), %xmm6
 116      00000000 
 117 013d 660F6F3D 		movdqa	.LC18(%rip), %xmm7
 117      00000000 
 118 0145 66440F7F 		movdqa	%xmm9, -56(%rsp)
 118      4C24C8
GAS LISTING /tmp/ccABNvJu.s 			page 48


 119 014c 66440F7F 		movdqa	%xmm10, -40(%rsp)
 119      5424D8
 120 0153 660F7F44 		movdqa	%xmm0, -24(%rsp)
 120      24E8
 121 0159 660F7F6C 		movdqa	%xmm5, -8(%rsp)
 121      24F8
 122 015f 66440F7F 		movdqa	%xmm8, 40(%rsp)
 122      442428
 123 0166 660F7F74 		movdqa	%xmm6, 8(%rsp)
 123      2408
 124 016c 660F7F7C 		movdqa	%xmm7, 24(%rsp)
 124      2418
 125 0172 660F6F0D 		movdqa	.LC0(%rip), %xmm1
 125      00000000 
 126 017a 660F6F15 		movdqa	.LC1(%rip), %xmm2
 126      00000000 
 127 0182 66440F6F 		movdqa	.LC2(%rip), %xmm15
 127      3D000000 
 127      00
 128 018b 660F6F1D 		movdqa	.LC3(%rip), %xmm3
 128      00000000 
 129 0193 66440F6F 		movdqa	.LC4(%rip), %xmm14
 129      35000000 
 129      00
 130 019c 66440F6F 		movdqa	.LC5(%rip), %xmm13
 130      2D000000 
 130      00
 131 01a5 66440F6F 		movdqa	.LC6(%rip), %xmm12
 131      25000000 
 131      00
 132 01ae 660F6F3D 		movdqa	.LC20(%rip), %xmm7
 132      00000000 
 133 01b6 660F6F35 		movdqa	.LC21(%rip), %xmm6
 133      00000000 
 134 01be 6690     		.p2align 4,,10
 135              		.p2align 3
 136              	.L17:
 137 01c0 660F6FEC 		movdqa	%xmm4, %xmm5
 138 01c4 660F72D4 		psrld	$4, %xmm4
 138      04
 139 01c9 660FDBE1 		pand	%xmm1, %xmm4
 140 01cd 660F6FC2 		movdqa	%xmm2, %xmm0
 141 01d1 660FDBE9 		pand	%xmm1, %xmm5
 142 01d5 66440F6F 		movdqa	%xmm2, %xmm8
 142      C2
 143 01da 66450F6F 		movdqa	%xmm15, %xmm9
 143      CF
 144 01df 660F3800 		pshufb	%xmm4, %xmm0
 144      C4
 145 01e4 660FF8E3 		psubb	%xmm3, %xmm4
 146 01e8 660FDBE1 		pand	%xmm1, %xmm4
 147 01ec 66450FEF 		pxor	%xmm10, %xmm10
 147      D2
 148 01f1 660FEBC5 		por	%xmm5, %xmm0
 149 01f5 66440F38 		pshufb	%xmm4, %xmm8
 149      00C4
 150 01fb 660FF8E3 		psubb	%xmm3, %xmm4
GAS LISTING /tmp/ccABNvJu.s 			page 49


 151 01ff 660FDBE1 		pand	%xmm1, %xmm4
 152 0203 66440F38 		pshufb	%xmm0, %xmm9
 152      00C8
 153 0209 66440FEB 		por	%xmm5, %xmm8
 153      C5
 154 020e 66410F6F 		movdqa	%xmm9, %xmm0
 154      C1
 155 0213 66450F6F 		movdqa	%xmm14, %xmm9
 155      CE
 156 0218 66410FEB 		por	%xmm10, %xmm0
 156      C2
 157 021d 66450F6F 		movdqa	%xmm13, %xmm10
 157      D5
 158 0222 66450F38 		pshufb	%xmm8, %xmm9
 158      00C8
 159 0228 66440F6F 		movdqa	%xmm2, %xmm8
 159      C2
 160 022d 66440F38 		pshufb	%xmm4, %xmm8
 160      00C4
 161 0233 660FF8E3 		psubb	%xmm3, %xmm4
 162 0237 660FDBE1 		pand	%xmm1, %xmm4
 163 023b 66410FEB 		por	%xmm9, %xmm0
 163      C1
 164 0240 66450F6F 		movdqa	%xmm12, %xmm9
 164      CC
 165 0245 66440FEB 		por	%xmm5, %xmm8
 165      C5
 166 024a 66450F38 		pshufb	%xmm8, %xmm10
 166      00D0
 167 0250 66440F6F 		movdqa	%xmm2, %xmm8
 167      C2
 168 0255 66440F38 		pshufb	%xmm4, %xmm8
 168      00C4
 169 025b 660FF8E3 		psubb	%xmm3, %xmm4
 170 025f 660FDBE1 		pand	%xmm1, %xmm4
 171 0263 66410FEB 		por	%xmm10, %xmm0
 171      C2
 172 0268 66440F6F 		movdqa	56(%rsp), %xmm10
 172      542438
 173 026f 66440FEB 		por	%xmm5, %xmm8
 173      C5
 174 0274 66450F38 		pshufb	%xmm8, %xmm9
 174      00C8
 175 027a 66440F6F 		movdqa	%xmm2, %xmm8
 175      C2
 176 027f 66440F38 		pshufb	%xmm4, %xmm8
 176      00C4
 177 0285 660FF8E3 		psubb	%xmm3, %xmm4
 178 0289 660FDBE1 		pand	%xmm1, %xmm4
 179 028d 66410FEB 		por	%xmm9, %xmm0
 179      C1
 180 0292 66440F6F 		movdqa	72(%rsp), %xmm9
 180      4C2448
 181 0299 66440FEB 		por	%xmm5, %xmm8
 181      C5
 182 029e 66450F38 		pshufb	%xmm8, %xmm10
 182      00D0
GAS LISTING /tmp/ccABNvJu.s 			page 50


 183 02a4 66440F6F 		movdqa	%xmm2, %xmm8
 183      C2
 184 02a9 66440F38 		pshufb	%xmm4, %xmm8
 184      00C4
 185 02af 660FF8E3 		psubb	%xmm3, %xmm4
 186 02b3 660FDBE1 		pand	%xmm1, %xmm4
 187 02b7 66410FEB 		por	%xmm10, %xmm0
 187      C2
 188 02bc 66440F6F 		movdqa	88(%rsp), %xmm10
 188      542458
 189 02c3 66440FEB 		por	%xmm5, %xmm8
 189      C5
 190 02c8 66450F38 		pshufb	%xmm8, %xmm9
 190      00C8
 191 02ce 66440F6F 		movdqa	%xmm2, %xmm8
 191      C2
 192 02d3 66440F38 		pshufb	%xmm4, %xmm8
 192      00C4
 193 02d9 660FF8E3 		psubb	%xmm3, %xmm4
 194 02dd 660FDBE1 		pand	%xmm1, %xmm4
 195 02e1 66410FEB 		por	%xmm9, %xmm0
 195      C1
 196 02e6 66440F6F 		movdqa	-104(%rsp), %xmm9
 196      4C2498
 197 02ed 66440FEB 		por	%xmm5, %xmm8
 197      C5
 198 02f2 66450F38 		pshufb	%xmm8, %xmm10
 198      00D0
 199 02f8 66440F6F 		movdqa	%xmm2, %xmm8
 199      C2
 200 02fd 66440F38 		pshufb	%xmm4, %xmm8
 200      00C4
 201 0303 660FF8E3 		psubb	%xmm3, %xmm4
 202 0307 660FDBE1 		pand	%xmm1, %xmm4
 203 030b 66410FEB 		por	%xmm10, %xmm0
 203      C2
 204 0310 66440F6F 		movdqa	-88(%rsp), %xmm10
 204      5424A8
 205 0317 66440FEB 		por	%xmm5, %xmm8
 205      C5
 206 031c 66450F38 		pshufb	%xmm8, %xmm9
 206      00C8
 207 0322 66440F6F 		movdqa	%xmm2, %xmm8
 207      C2
 208 0327 66440F38 		pshufb	%xmm4, %xmm8
 208      00C4
 209 032d 660FF8E3 		psubb	%xmm3, %xmm4
 210 0331 660FDBE1 		pand	%xmm1, %xmm4
 211 0335 66410FEB 		por	%xmm9, %xmm0
 211      C1
 212 033a 66440F6F 		movdqa	-72(%rsp), %xmm9
 212      4C24B8
 213 0341 66440FEB 		por	%xmm5, %xmm8
 213      C5
 214 0346 66450F38 		pshufb	%xmm8, %xmm10
 214      00D0
 215 034c 66440F6F 		movdqa	%xmm2, %xmm8
GAS LISTING /tmp/ccABNvJu.s 			page 51


 215      C2
 216 0351 66440F38 		pshufb	%xmm4, %xmm8
 216      00C4
 217 0357 660FF8E3 		psubb	%xmm3, %xmm4
 218 035b 660FDBE1 		pand	%xmm1, %xmm4
 219 035f 66410FEB 		por	%xmm10, %xmm0
 219      C2
 220 0364 66440F6F 		movdqa	-56(%rsp), %xmm10
 220      5424C8
 221 036b 66440FEB 		por	%xmm5, %xmm8
 221      C5
 222 0370 66450F38 		pshufb	%xmm8, %xmm9
 222      00C8
 223 0376 66440F6F 		movdqa	%xmm2, %xmm8
 223      C2
 224 037b 66440F38 		pshufb	%xmm4, %xmm8
 224      00C4
 225 0381 660FF8E3 		psubb	%xmm3, %xmm4
 226 0385 660FDBE1 		pand	%xmm1, %xmm4
 227 0389 66410FEB 		por	%xmm9, %xmm0
 227      C1
 228 038e 66440F6F 		movdqa	-40(%rsp), %xmm9
 228      4C24D8
 229 0395 66440FEB 		por	%xmm5, %xmm8
 229      C5
 230 039a 66450F38 		pshufb	%xmm8, %xmm10
 230      00D0
 231 03a0 66440F6F 		movdqa	%xmm2, %xmm8
 231      C2
 232 03a5 66440F38 		pshufb	%xmm4, %xmm8
 232      00C4
 233 03ab 660FF8E3 		psubb	%xmm3, %xmm4
 234 03af 660FDBE1 		pand	%xmm1, %xmm4
 235 03b3 66410FEB 		por	%xmm10, %xmm0
 235      C2
 236 03b8 66440F6F 		movdqa	-24(%rsp), %xmm10
 236      5424E8
 237 03bf 66440FEB 		por	%xmm5, %xmm8
 237      C5
 238 03c4 66450F38 		pshufb	%xmm8, %xmm9
 238      00C8
 239 03ca 66440F6F 		movdqa	%xmm2, %xmm8
 239      C2
 240 03cf 66440F38 		pshufb	%xmm4, %xmm8
 240      00C4
 241 03d5 660FF8E3 		psubb	%xmm3, %xmm4
 242 03d9 660FDBE1 		pand	%xmm1, %xmm4
 243 03dd 66410FEB 		por	%xmm9, %xmm0
 243      C1
 244 03e2 66440F6F 		movdqa	-8(%rsp), %xmm9
 244      4C24F8
 245 03e9 66440FEB 		por	%xmm5, %xmm8
 245      C5
 246 03ee 66450F38 		pshufb	%xmm8, %xmm10
 246      00D0
 247 03f4 66440F6F 		movdqa	%xmm2, %xmm8
 247      C2
GAS LISTING /tmp/ccABNvJu.s 			page 52


 248 03f9 66440F38 		pshufb	%xmm4, %xmm8
 248      00C4
 249 03ff 660FF8E3 		psubb	%xmm3, %xmm4
 250 0403 660FDBE1 		pand	%xmm1, %xmm4
 251 0407 66410FEB 		por	%xmm10, %xmm0
 251      C2
 252 040c 66440F6F 		movdqa	8(%rsp), %xmm10
 252      542408
 253 0413 66440FEB 		por	%xmm5, %xmm8
 253      C5
 254 0418 66450F38 		pshufb	%xmm8, %xmm9
 254      00C8
 255 041e 66440F6F 		movdqa	%xmm2, %xmm8
 255      C2
 256 0423 66440F38 		pshufb	%xmm4, %xmm8
 256      00C4
 257 0429 660FF8E3 		psubb	%xmm3, %xmm4
 258 042d 660FDBE1 		pand	%xmm1, %xmm4
 259 0431 66410FEB 		por	%xmm9, %xmm0
 259      C1
 260 0436 66440F6F 		movdqa	24(%rsp), %xmm9
 260      4C2418
 261 043d 66440FEB 		por	%xmm5, %xmm8
 261      C5
 262 0442 66450F38 		pshufb	%xmm8, %xmm10
 262      00D0
 263 0448 66440F6F 		movdqa	%xmm2, %xmm8
 263      C2
 264 044d 66440F38 		pshufb	%xmm4, %xmm8
 264      00C4
 265 0453 66410FEB 		por	%xmm10, %xmm0
 265      C2
 266 0458 66410F6F 		movdqa	%xmm8, %xmm4
 266      E0
 267 045d 660FEBE5 		por	%xmm5, %xmm4
 268 0461 66440F38 		pshufb	%xmm4, %xmm9
 268      00CC
 269 0467 66410FEB 		por	%xmm9, %xmm0
 269      C1
 270 046c 660F3800 		pshufb	40(%rsp), %xmm0
 270      442428
 271 0473 660F6FE8 		movdqa	%xmm0, %xmm5
 272 0477 66440F6F 		movdqa	%xmm0, %xmm8
 272      C0
 273 047c 660F3800 		pshufb	%xmm7, %xmm5
 273      EF
 274 0481 66440F6F 		movdqa	%xmm5, %xmm9
 274      CD
 275 0486 66440FEF 		pxor	%xmm5, %xmm8
 275      C5
 276 048b 66440F38 		pshufb	%xmm7, %xmm9
 276      00CF
 277 0491 66450F6F 		movdqa	%xmm8, %xmm10
 277      D0
 278 0496 66410F6F 		movdqa	%xmm9, %xmm4
 278      E1
 279 049b 66410FEF 		pxor	%xmm9, %xmm0
GAS LISTING /tmp/ccABNvJu.s 			page 53


 279      C1
 280 04a0 66410F72 		psrld	$7, %xmm10
 280      D207
 281 04a6 66440FDB 		pand	%xmm3, %xmm10
 281      D3
 282 04ab 660F3800 		pshufb	%xmm7, %xmm4
 282      E7
 283 04b0 66450F6F 		movdqa	%xmm8, %xmm11
 283      D8
 284 04b5 66440F7F 		movdqa	%xmm10, -120(%rsp)
 284      542488
 285 04bc 66410F72 		pslld	$1, %xmm11
 285      F301
 286 04c2 66410FEF 		pxor	%xmm9, %xmm4
 286      E1
 287 04c7 66440F6F 		movdqa	%xmm6, %xmm10
 287      D6
 288 04cc 66440F6F 		movdqa	%xmm0, %xmm9
 288      C8
 289 04d1 660F72F0 		pslld	$2, %xmm0
 289      02
 290 04d6 66440F38 		pshufb	-120(%rsp), %xmm10
 290      00542488 
 291 04de 66410F72 		psrld	$6, %xmm9
 291      D106
 292 04e4 660FEFEC 		pxor	%xmm4, %xmm5
 293 04e8 66440FDB 		pand	.LC22(%rip), %xmm9
 293      0D000000 
 293      00
 294 04f1 66440F7F 		movdqa	%xmm10, -120(%rsp)
 294      542488
 295 04f8 66410FEF 		pxor	%xmm8, %xmm4
 295      E0
 296 04fd 66440F6F 		movdqa	%xmm6, %xmm10
 296      D6
 297 0502 66440FDB 		pand	.LC24(%rip), %xmm11
 297      1D000000 
 297      00
 298 050b 66440F6F 		movdqa	%xmm4, %xmm8
 298      C4
 299 0510 660F72F4 		pslld	$3, %xmm4
 299      03
 300 0515 66450F38 		pshufb	%xmm9, %xmm10
 300      00D1
 301 051b 66410F72 		psrld	$5, %xmm8
 301      D005
 302 0521 660FDB05 		pand	.LC26(%rip), %xmm0
 302      00000000 
 303 0529 66440FDB 		pand	.LC23(%rip), %xmm8
 303      05000000 
 303      00
 304 0532 66450F6F 		movdqa	%xmm10, %xmm9
 304      CA
 305 0537 66440FEF 		pxor	-120(%rsp), %xmm11
 305      5C2488
 306 053e 66440F6F 		movdqa	%xmm6, %xmm10
 306      D6
GAS LISTING /tmp/ccABNvJu.s 			page 54


 307 0543 660FDB25 		pand	.LC25(%rip), %xmm4
 307      00000000 
 308 054b 66450F38 		pshufb	%xmm8, %xmm10
 308      00D0
 309 0551 66410FEF 		pxor	%xmm11, %xmm5
 309      EB
 310 0556 66410FEF 		pxor	%xmm9, %xmm0
 310      C1
 311 055b 66410FEF 		pxor	%xmm10, %xmm4
 311      E2
 312 0560 660FEFC5 		pxor	%xmm5, %xmm0
 313 0564 660FEFE0 		pxor	%xmm0, %xmm4
 314 0568 660FEF64 		pxor	16(%rdi,%rax), %xmm4
 314      0710
 315 056e 4883C010 		addq	$16, %rax
 316 0572 4839D0   		cmpq	%rdx, %rax
 317 0575 0F8545FC 		jne	.L17
 317      FFFF
 318 057b 89F0     		mov	%esi, %eax
 319 057d 48C1E004 		salq	$4, %rax
 320              	.L16:
 321 0581 660F6FE9 		movdqa	%xmm1, %xmm5
 322 0585 660F6FC4 		movdqa	%xmm4, %xmm0
 323 0589 660F72D4 		psrld	$4, %xmm4
 323      04
 324 058e 660F6F74 		movdqa	56(%rsp), %xmm6
 324      2438
 325 0594 660FDBEC 		pand	%xmm4, %xmm5
 326 0598 660F6FE2 		movdqa	%xmm2, %xmm4
 327 059c 660FDBC1 		pand	%xmm1, %xmm0
 328 05a0 660F6F7C 		movdqa	72(%rsp), %xmm7
 328      2448
 329 05a6 660F3800 		pshufb	%xmm5, %xmm4
 329      E5
 330 05ab 66440F6F 		movdqa	88(%rsp), %xmm8
 330      442458
 331 05b2 660FEBE0 		por	%xmm0, %xmm4
 332 05b6 66440F6F 		movdqa	-104(%rsp), %xmm9
 332      4C2498
 333 05bd 66440F38 		pshufb	%xmm4, %xmm15
 333      00FC
 334 05c3 660FEFE4 		pxor	%xmm4, %xmm4
 335 05c7 66440F6F 		movdqa	-88(%rsp), %xmm10
 335      5424A8
 336 05ce 66440FEB 		por	%xmm4, %xmm15
 336      FC
 337 05d3 660F6FE5 		movdqa	%xmm5, %xmm4
 338 05d7 660F6FEA 		movdqa	%xmm2, %xmm5
 339 05db 660FF8E3 		psubb	%xmm3, %xmm4
 340 05df 660FDBE1 		pand	%xmm1, %xmm4
 341 05e3 660F3800 		pshufb	%xmm4, %xmm5
 341      EC
 342 05e8 660FF8E3 		psubb	%xmm3, %xmm4
 343 05ec 660FDBE1 		pand	%xmm1, %xmm4
 344 05f0 660FEBE8 		por	%xmm0, %xmm5
 345 05f4 66440F38 		pshufb	%xmm5, %xmm14
 345      00F5
GAS LISTING /tmp/ccABNvJu.s 			page 55


 346 05fa 660F6FEA 		movdqa	%xmm2, %xmm5
 347 05fe 660F3800 		pshufb	%xmm4, %xmm5
 347      EC
 348 0603 660FF8E3 		psubb	%xmm3, %xmm4
 349 0607 660FDBE1 		pand	%xmm1, %xmm4
 350 060b 66450FEB 		por	%xmm14, %xmm15
 350      FE
 351 0610 660FEBE8 		por	%xmm0, %xmm5
 352 0614 66440F38 		pshufb	%xmm5, %xmm13
 352      00ED
 353 061a 660F6FEA 		movdqa	%xmm2, %xmm5
 354 061e 660F3800 		pshufb	%xmm4, %xmm5
 354      EC
 355 0623 660FF8E3 		psubb	%xmm3, %xmm4
 356 0627 660FDBE1 		pand	%xmm1, %xmm4
 357 062b 66450FEB 		por	%xmm13, %xmm15
 357      FD
 358 0630 660FEBE8 		por	%xmm0, %xmm5
 359 0634 66440F38 		pshufb	%xmm5, %xmm12
 359      00E5
 360 063a 660F6FEA 		movdqa	%xmm2, %xmm5
 361 063e 660F3800 		pshufb	%xmm4, %xmm5
 361      EC
 362 0643 660FF8E3 		psubb	%xmm3, %xmm4
 363 0647 660FDBE1 		pand	%xmm1, %xmm4
 364 064b 66450FEB 		por	%xmm15, %xmm12
 364      E7
 365 0650 660FEBE8 		por	%xmm0, %xmm5
 366 0654 660F3800 		pshufb	%xmm5, %xmm6
 366      F5
 367 0659 660F6FEE 		movdqa	%xmm6, %xmm5
 368 065d 660F6FF2 		movdqa	%xmm2, %xmm6
 369 0661 66410FEB 		por	%xmm12, %xmm5
 369      EC
 370 0666 660F3800 		pshufb	%xmm4, %xmm6
 370      F4
 371 066b 660FF8E3 		psubb	%xmm3, %xmm4
 372 066f 660FDBE1 		pand	%xmm1, %xmm4
 373 0673 660FEBF0 		por	%xmm0, %xmm6
 374 0677 660F3800 		pshufb	%xmm6, %xmm7
 374      FE
 375 067c 660F6FF7 		movdqa	%xmm7, %xmm6
 376 0680 660F6F7C 		movdqa	-72(%rsp), %xmm7
 376      24B8
 377 0686 660FEBF5 		por	%xmm5, %xmm6
 378 068a 660F6FEA 		movdqa	%xmm2, %xmm5
 379 068e 660F3800 		pshufb	%xmm4, %xmm5
 379      EC
 380 0693 660FF8E3 		psubb	%xmm3, %xmm4
 381 0697 660FDBE1 		pand	%xmm1, %xmm4
 382 069b 660FEBE8 		por	%xmm0, %xmm5
 383 069f 66440F38 		pshufb	%xmm5, %xmm8
 383      00C5
 384 06a5 660F6FEA 		movdqa	%xmm2, %xmm5
 385 06a9 660F3800 		pshufb	%xmm4, %xmm5
 385      EC
 386 06ae 660FF8E3 		psubb	%xmm3, %xmm4
GAS LISTING /tmp/ccABNvJu.s 			page 56


 387 06b2 660FDBE1 		pand	%xmm1, %xmm4
 388 06b6 66410FEB 		por	%xmm8, %xmm6
 388      F0
 389 06bb 66440F6F 		movdqa	-56(%rsp), %xmm8
 389      4424C8
 390 06c2 660FEBE8 		por	%xmm0, %xmm5
 391 06c6 66440F38 		pshufb	%xmm5, %xmm9
 391      00CD
 392 06cc 660F6FEA 		movdqa	%xmm2, %xmm5
 393 06d0 660F3800 		pshufb	%xmm4, %xmm5
 393      EC
 394 06d5 660FF8E3 		psubb	%xmm3, %xmm4
 395 06d9 660FDBE1 		pand	%xmm1, %xmm4
 396 06dd 66410FEB 		por	%xmm9, %xmm6
 396      F1
 397 06e2 66440F6F 		movdqa	-40(%rsp), %xmm9
 397      4C24D8
 398 06e9 660FEBE8 		por	%xmm0, %xmm5
 399 06ed 66440F38 		pshufb	%xmm5, %xmm10
 399      00D5
 400 06f3 660F6FEA 		movdqa	%xmm2, %xmm5
 401 06f7 660F3800 		pshufb	%xmm4, %xmm5
 401      EC
 402 06fc 660FF8E3 		psubb	%xmm3, %xmm4
 403 0700 660FDBE1 		pand	%xmm1, %xmm4
 404 0704 66410FEB 		por	%xmm10, %xmm6
 404      F2
 405 0709 66440F6F 		movdqa	-24(%rsp), %xmm10
 405      5424E8
 406 0710 660FEBE8 		por	%xmm0, %xmm5
 407 0714 660F3800 		pshufb	%xmm5, %xmm7
 407      FD
 408 0719 660F6FEA 		movdqa	%xmm2, %xmm5
 409 071d 660F3800 		pshufb	%xmm4, %xmm5
 409      EC
 410 0722 660FF8E3 		psubb	%xmm3, %xmm4
 411 0726 660FDBE1 		pand	%xmm1, %xmm4
 412 072a 660FEBF7 		por	%xmm7, %xmm6
 413 072e 660F6F7C 		movdqa	-8(%rsp), %xmm7
 413      24F8
 414 0734 660FEBE8 		por	%xmm0, %xmm5
 415 0738 66440F38 		pshufb	%xmm5, %xmm8
 415      00C5
 416 073e 660F6FEA 		movdqa	%xmm2, %xmm5
 417 0742 660F3800 		pshufb	%xmm4, %xmm5
 417      EC
 418 0747 660FF8E3 		psubb	%xmm3, %xmm4
 419 074b 660FDBE1 		pand	%xmm1, %xmm4
 420 074f 66410FEB 		por	%xmm8, %xmm6
 420      F0
 421 0754 66440F6F 		movdqa	8(%rsp), %xmm8
 421      442408
 422 075b 660FEBE8 		por	%xmm0, %xmm5
 423 075f 66440F38 		pshufb	%xmm5, %xmm9
 423      00CD
 424 0765 660F6FEA 		movdqa	%xmm2, %xmm5
 425 0769 660F3800 		pshufb	%xmm4, %xmm5
GAS LISTING /tmp/ccABNvJu.s 			page 57


 425      EC
 426 076e 660FF8E3 		psubb	%xmm3, %xmm4
 427 0772 660FDBE1 		pand	%xmm1, %xmm4
 428 0776 66410FEB 		por	%xmm9, %xmm6
 428      F1
 429 077b 660FEBE8 		por	%xmm0, %xmm5
 430 077f 66440F38 		pshufb	%xmm5, %xmm10
 430      00D5
 431 0785 660F6FEA 		movdqa	%xmm2, %xmm5
 432 0789 660F3800 		pshufb	%xmm4, %xmm5
 432      EC
 433 078e 660FF8E3 		psubb	%xmm3, %xmm4
 434 0792 660FDBE1 		pand	%xmm1, %xmm4
 435 0796 66410FEB 		por	%xmm10, %xmm6
 435      F2
 436 079b 660FEBE8 		por	%xmm0, %xmm5
 437 079f 660F3800 		pshufb	%xmm5, %xmm7
 437      FD
 438 07a4 660F6FEA 		movdqa	%xmm2, %xmm5
 439 07a8 660F3800 		pshufb	%xmm4, %xmm5
 439      EC
 440 07ad 660FF8E3 		psubb	%xmm3, %xmm4
 441 07b1 660FDBE1 		pand	%xmm1, %xmm4
 442 07b5 660FEBF7 		por	%xmm7, %xmm6
 443 07b9 660FEBE8 		por	%xmm0, %xmm5
 444 07bd 660F3800 		pshufb	%xmm4, %xmm2
 444      D4
 445 07c2 66440F38 		pshufb	%xmm5, %xmm8
 445      00C5
 446 07c8 660FEBD0 		por	%xmm0, %xmm2
 447 07cc 660F6F44 		movdqa	24(%rsp), %xmm0
 447      2418
 448 07d2 66410FEB 		por	%xmm8, %xmm6
 448      F0
 449 07d7 660F3800 		pshufb	%xmm2, %xmm0
 449      C2
 450 07dc 660FEBC6 		por	%xmm6, %xmm0
 451 07e0 660F3800 		pshufb	40(%rsp), %xmm0
 451      442428
 452 07e7 660FEF04 		pxor	(%rdi,%rax), %xmm0
 452      07
 453 07ec 4883C470 		addq	$112, %rsp
 454 07f0 C3       		ret
 455              	.L20:
 456 07f1 660F6F05 		movdqa	.LC7(%rip), %xmm0
 456      00000000 
 457 07f9 B8100000 		movl	$16, %eax
 457      00
 458 07fe 660F6F2D 		movdqa	.LC8(%rip), %xmm5
 458      00000000 
 459 0806 660F6F35 		movdqa	.LC9(%rip), %xmm6
 459      00000000 
 460 080e 660F6F3D 		movdqa	.LC10(%rip), %xmm7
 460      00000000 
 461 0816 66440F6F 		movdqa	.LC11(%rip), %xmm8
 461      05000000 
 461      00
GAS LISTING /tmp/ccABNvJu.s 			page 58


 462 081f 66440F6F 		movdqa	.LC12(%rip), %xmm9
 462      0D000000 
 462      00
 463 0828 660F7F44 		movdqa	%xmm0, 56(%rsp)
 463      2438
 464 082e 660F7F6C 		movdqa	%xmm5, 72(%rsp)
 464      2448
 465 0834 660F7F74 		movdqa	%xmm6, 88(%rsp)
 465      2458
 466 083a 660F7F7C 		movdqa	%xmm7, -104(%rsp)
 466      2498
 467 0840 66440F7F 		movdqa	%xmm8, -88(%rsp)
 467      4424A8
 468 0847 66440F7F 		movdqa	%xmm9, -72(%rsp)
 468      4C24B8
 469 084e 66440F6F 		movdqa	.LC13(%rip), %xmm10
 469      15000000 
 469      00
 470 0857 660F6F05 		movdqa	.LC14(%rip), %xmm0
 470      00000000 
 471 085f 660F6F2D 		movdqa	.LC15(%rip), %xmm5
 471      00000000 
 472 0867 660F6F35 		movdqa	.LC16(%rip), %xmm6
 472      00000000 
 473 086f 660F6F3D 		movdqa	.LC17(%rip), %xmm7
 473      00000000 
 474 0877 66440F6F 		movdqa	.LC18(%rip), %xmm8
 474      05000000 
 474      00
 475 0880 66440F6F 		movdqa	.LC19(%rip), %xmm9
 475      0D000000 
 475      00
 476 0889 660F6F0D 		movdqa	.LC0(%rip), %xmm1
 476      00000000 
 477 0891 660F6F15 		movdqa	.LC1(%rip), %xmm2
 477      00000000 
 478 0899 66440F6F 		movdqa	.LC2(%rip), %xmm15
 478      3D000000 
 478      00
 479 08a2 660F6F1D 		movdqa	.LC3(%rip), %xmm3
 479      00000000 
 480 08aa 66440F6F 		movdqa	.LC4(%rip), %xmm14
 480      35000000 
 480      00
 481 08b3 66440F6F 		movdqa	.LC5(%rip), %xmm13
 481      2D000000 
 481      00
 482 08bc 66440F6F 		movdqa	.LC6(%rip), %xmm12
 482      25000000 
 482      00
 483 08c5 66440F7F 		movdqa	%xmm10, -56(%rsp)
 483      5424C8
 484 08cc 660F7F44 		movdqa	%xmm0, -40(%rsp)
 484      24D8
 485 08d2 660F7F6C 		movdqa	%xmm5, -24(%rsp)
 485      24E8
 486 08d8 660F7F74 		movdqa	%xmm6, -8(%rsp)
GAS LISTING /tmp/ccABNvJu.s 			page 59


 486      24F8
 487 08de 660F7F7C 		movdqa	%xmm7, 8(%rsp)
 487      2408
 488 08e4 66440F7F 		movdqa	%xmm8, 24(%rsp)
 488      442418
 489 08eb 66440F7F 		movdqa	%xmm9, 40(%rsp)
 489      4C2428
 490 08f2 E98AFCFF 		jmp	.L16
 490      FF
 491              		.cfi_endproc
 492              	.LFE723:
 493              		.size	KAESBlockCipherVecRegEqInvCipher, .-KAESBlockCipherVecRegEqInvCipher
 494 08f7 660F1F84 		.p2align 4,,15
 494      00000000 
 494      00
 495              		.type	KAESBlockCipherVecRegDecrypt, @function
 496              	KAESBlockCipherVecRegDecrypt:
 497              	.LFB730:
 498              		.cfi_startproc
 499 0900 8B87F000 		movl	240(%rdi), %eax
 499      0000
 500 0906 83F80C   		cmpl	$12, %eax
 501 0909 7435     		je	.L24
 502 090b 83F80E   		cmpl	$14, %eax
 503 090e 7420     		je	.L25
 504 0910 83F80A   		cmpl	$10, %eax
 505 0913 740B     		je	.L23
 506 0915 660FEFC0 		pxor	%xmm0, %xmm0
 507              		.p2align 4,,5
 508 0919 C3       		ret
 509 091a 660F1F44 		.p2align 4,,10
 509      0000
 510              		.p2align 3
 511              	.L23:
 512 0920 BE0A0000 		movl	$10, %esi
 512      00
 513              		.p2align 4,,6
 514 0925 E966F7FF 		jmp	KAESBlockCipherVecRegEqInvCipher
 514      FF
 515 092a 660F1F44 		.p2align 4,,10
 515      0000
 516              		.p2align 3
 517              	.L25:
 518 0930 BE0E0000 		movl	$14, %esi
 518      00
 519 0935 E956F7FF 		jmp	KAESBlockCipherVecRegEqInvCipher
 519      FF
 520 093a 660F1F44 		.p2align 4,,10
 520      0000
 521              		.p2align 3
 522              	.L24:
 523 0940 BE0C0000 		movl	$12, %esi
 523      00
 524 0945 E946F7FF 		jmp	KAESBlockCipherVecRegEqInvCipher
 524      FF
 525              		.cfi_endproc
 526              	.LFE730:
GAS LISTING /tmp/ccABNvJu.s 			page 60


 527              		.size	KAESBlockCipherVecRegDecrypt, .-KAESBlockCipherVecRegDecrypt
 528 094a 660F1F44 		.p2align 4,,15
 528      0000
 529              		.type	KAESBlockCipherVecRegKeyExpansion128, @function
 530              	KAESBlockCipherVecRegKeyExpansion128:
 531              	.LFB709:
 532              		.cfi_startproc
 533 0950 660F6F0D 		movdqa	.LC0(%rip), %xmm1
 533      00000000 
 534 0958 4889F8   		movq	%rdi, %rax
 535 095b 4889F7   		movq	%rsi, %rdi
 536 095e 660FEFFF 		pxor	%xmm7, %xmm7
 537              	#APP
 538              	# 126 "/home/rodarmer/sra_sdk-2.2.2a/libs/krypto/aes-ncbi.c" 1
 539              		movdqu (%rdi),%xmm12
 540              	# 0 "" 2
 541              	#NO_APP
 542 0967 66410F6F 		movdqa	%xmm12, %xmm5
 542      EC
 543 096c BA010000 		movl	$1, %edx
 543      00
 544 0971 660F6F15 		movdqa	.LC1(%rip), %xmm2
 544      00000000 
 545 0979 660F72D5 		psrld	$4, %xmm5
 545      04
 546 097e 660FDBE9 		pand	%xmm1, %xmm5
 547 0982 66450F6F 		movdqa	%xmm12, %xmm9
 547      CC
 548 0987 660F6FE2 		movdqa	%xmm2, %xmm4
 549 098b 66440FDB 		pand	%xmm1, %xmm9
 549      C9
 550 0990 660F6F05 		movdqa	.LC27(%rip), %xmm0
 550      00000000 
 551 0998 660F3800 		pshufb	%xmm5, %xmm4
 551      E5
 552 099d 660F6FD8 		movdqa	%xmm0, %xmm3
 553 09a1 660F6FF2 		movdqa	%xmm2, %xmm6
 554 09a5 66440F6F 		movdqa	.LC28(%rip), %xmm11
 554      1D000000 
 554      00
 555 09ae 66410FEB 		por	%xmm9, %xmm4
 555      E1
 556 09b3 66450F6F 		movdqa	%xmm11, %xmm14
 556      F3
 557 09b8 66440F6F 		movdqa	.LC29(%rip), %xmm15
 557      3D000000 
 557      00
 558 09c1 66450FEF 		pxor	%xmm10, %xmm10
 558      D2
 559 09c6 660F3800 		pshufb	%xmm4, %xmm3
 559      DC
 560 09cb 66440F6F 		movdqa	.LC31(%rip), %xmm8
 560      05000000 
 560      00
 561 09d4 66450F6F 		movdqa	%xmm10, %xmm13
 561      EA
 562 09d9 660F6FE3 		movdqa	%xmm3, %xmm4
GAS LISTING /tmp/ccABNvJu.s 			page 61


 563 09dd 660F6F1D 		movdqa	.LC3(%rip), %xmm3
 563      00000000 
 564 09e5 66440F3A 		pinsrd	$3, %edx, %xmm13
 564      22EA03
 565 09ec B202     		movb	$2, %dl
 566 09ee 660FF8EB 		psubb	%xmm3, %xmm5
 567 09f2 660FDBE9 		pand	%xmm1, %xmm5
 568 09f6 660FEBE7 		por	%xmm7, %xmm4
 569 09fa 660F6F3D 		movdqa	.LC30(%rip), %xmm7
 569      00000000 
 570 0a02 660F3800 		pshufb	%xmm5, %xmm6
 570      F5
 571 0a07 660FF8EB 		psubb	%xmm3, %xmm5
 572 0a0b 660FDBE9 		pand	%xmm1, %xmm5
 573 0a0f 66440F7F 		movdqa	%xmm12, (%rax)
 573      20
 574 0a14 66410FEB 		por	%xmm9, %xmm6
 574      F1
 575 0a19 66440F38 		pshufb	%xmm6, %xmm14
 575      00F6
 576 0a1f 660F6FF2 		movdqa	%xmm2, %xmm6
 577 0a23 660F3800 		pshufb	%xmm5, %xmm6
 577      F5
 578 0a28 660FF8EB 		psubb	%xmm3, %xmm5
 579 0a2c 660FDBE9 		pand	%xmm1, %xmm5
 580 0a30 66410FEB 		por	%xmm14, %xmm4
 580      E6
 581 0a35 66450F6F 		movdqa	%xmm8, %xmm14
 581      F0
 582 0a3a 66410FEB 		por	%xmm9, %xmm6
 582      F1
 583 0a3f 66440F38 		pshufb	%xmm6, %xmm15
 583      00FE
 584 0a45 660F6FF2 		movdqa	%xmm2, %xmm6
 585 0a49 660F3800 		pshufb	%xmm5, %xmm6
 585      F5
 586 0a4e 660FF8EB 		psubb	%xmm3, %xmm5
 587 0a52 660FDBE9 		pand	%xmm1, %xmm5
 588 0a56 66410FEB 		por	%xmm15, %xmm4
 588      E7
 589 0a5b 66410FEB 		por	%xmm9, %xmm6
 589      F1
 590 0a60 660F3800 		pshufb	%xmm6, %xmm7
 590      FE
 591 0a65 660F6FF2 		movdqa	%xmm2, %xmm6
 592 0a69 660F3800 		pshufb	%xmm5, %xmm6
 592      F5
 593 0a6e 660FF8EB 		psubb	%xmm3, %xmm5
 594 0a72 660FDBE9 		pand	%xmm1, %xmm5
 595 0a76 660FEBE7 		por	%xmm7, %xmm4
 596 0a7a 660F6F3D 		movdqa	.LC32(%rip), %xmm7
 596      00000000 
 597 0a82 66410FEB 		por	%xmm9, %xmm6
 597      F1
 598 0a87 66440F6F 		movdqa	%xmm7, %xmm15
 598      FF
 599 0a8c 66440F38 		pshufb	%xmm6, %xmm14
GAS LISTING /tmp/ccABNvJu.s 			page 62


 599      00F6
 600 0a92 660F6FF2 		movdqa	%xmm2, %xmm6
 601 0a96 660F3800 		pshufb	%xmm5, %xmm6
 601      F5
 602 0a9b 660FF8EB 		psubb	%xmm3, %xmm5
 603 0a9f 660FDBE9 		pand	%xmm1, %xmm5
 604 0aa3 66410FEB 		por	%xmm14, %xmm4
 604      E6
 605 0aa8 66440F6F 		movdqa	%xmm2, %xmm14
 605      F2
 606 0aad 66410FEB 		por	%xmm9, %xmm6
 606      F1
 607 0ab2 66440F38 		pshufb	%xmm5, %xmm14
 607      00F5
 608 0ab8 660FF8EB 		psubb	%xmm3, %xmm5
 609 0abc 660FDBE9 		pand	%xmm1, %xmm5
 610 0ac0 66440F38 		pshufb	%xmm6, %xmm15
 610      00FE
 611 0ac6 660F6F35 		movdqa	.LC33(%rip), %xmm6
 611      00000000 
 612 0ace 66450FEB 		por	%xmm9, %xmm14
 612      F1
 613 0ad3 66410FEB 		por	%xmm15, %xmm4
 613      E7
 614 0ad8 66440F6F 		movdqa	%xmm6, %xmm15
 614      FE
 615 0add 66450F38 		pshufb	%xmm14, %xmm15
 615      00FE
 616 0ae3 66440F6F 		movdqa	%xmm2, %xmm14
 616      F2
 617 0ae8 66440F38 		pshufb	%xmm5, %xmm14
 617      00F5
 618 0aee 660FF8EB 		psubb	%xmm3, %xmm5
 619 0af2 66410FEB 		por	%xmm15, %xmm4
 619      E7
 620 0af7 66440F6F 		movdqa	.LC34(%rip), %xmm15
 620      3D000000 
 620      00
 621 0b00 660FDBE9 		pand	%xmm1, %xmm5
 622 0b04 66450FEB 		por	%xmm9, %xmm14
 622      F1
 623 0b09 66450F38 		pshufb	%xmm14, %xmm15
 623      00FE
 624 0b0f 66440F6F 		movdqa	%xmm2, %xmm14
 624      F2
 625 0b14 66440F38 		pshufb	%xmm5, %xmm14
 625      00F5
 626 0b1a 660FF8EB 		psubb	%xmm3, %xmm5
 627 0b1e 66410FEB 		por	%xmm15, %xmm4
 627      E7
 628 0b23 66440F6F 		movdqa	.LC35(%rip), %xmm15
 628      3D000000 
 628      00
 629 0b2c 660FDBE9 		pand	%xmm1, %xmm5
 630 0b30 66450FEB 		por	%xmm9, %xmm14
 630      F1
 631 0b35 66450F38 		pshufb	%xmm14, %xmm15
GAS LISTING /tmp/ccABNvJu.s 			page 63


 631      00FE
 632 0b3b 66440F6F 		movdqa	%xmm2, %xmm14
 632      F2
 633 0b40 66440F38 		pshufb	%xmm5, %xmm14
 633      00F5
 634 0b46 660FF8EB 		psubb	%xmm3, %xmm5
 635 0b4a 66410FEB 		por	%xmm15, %xmm4
 635      E7
 636 0b4f 66440F6F 		movdqa	.LC36(%rip), %xmm15
 636      3D000000 
 636      00
 637 0b58 660FDBE9 		pand	%xmm1, %xmm5
 638 0b5c 66450FEB 		por	%xmm9, %xmm14
 638      F1
 639 0b61 66450F38 		pshufb	%xmm14, %xmm15
 639      00FE
 640 0b67 66440F6F 		movdqa	%xmm2, %xmm14
 640      F2
 641 0b6c 66440F38 		pshufb	%xmm5, %xmm14
 641      00F5
 642 0b72 660FF8EB 		psubb	%xmm3, %xmm5
 643 0b76 66410FEB 		por	%xmm15, %xmm4
 643      E7
 644 0b7b 66440F6F 		movdqa	.LC37(%rip), %xmm15
 644      3D000000 
 644      00
 645 0b84 660FDBE9 		pand	%xmm1, %xmm5
 646 0b88 66450FEB 		por	%xmm9, %xmm14
 646      F1
 647 0b8d 66450F38 		pshufb	%xmm14, %xmm15
 647      00FE
 648 0b93 66440F6F 		movdqa	%xmm2, %xmm14
 648      F2
 649 0b98 66440F38 		pshufb	%xmm5, %xmm14
 649      00F5
 650 0b9e 660FF8EB 		psubb	%xmm3, %xmm5
 651 0ba2 66410FEB 		por	%xmm15, %xmm4
 651      E7
 652 0ba7 66440F6F 		movdqa	.LC38(%rip), %xmm15
 652      3D000000 
 652      00
 653 0bb0 660FDBE9 		pand	%xmm1, %xmm5
 654 0bb4 66450FEB 		por	%xmm9, %xmm14
 654      F1
 655 0bb9 66450F38 		pshufb	%xmm14, %xmm15
 655      00FE
 656 0bbf 66440F6F 		movdqa	%xmm2, %xmm14
 656      F2
 657 0bc4 66440F38 		pshufb	%xmm5, %xmm14
 657      00F5
 658 0bca 660FF8EB 		psubb	%xmm3, %xmm5
 659 0bce 66410FEB 		por	%xmm15, %xmm4
 659      E7
 660 0bd3 66440F6F 		movdqa	.LC39(%rip), %xmm15
 660      3D000000 
 660      00
 661 0bdc 660FDBE9 		pand	%xmm1, %xmm5
GAS LISTING /tmp/ccABNvJu.s 			page 64


 662 0be0 66450FEB 		por	%xmm9, %xmm14
 662      F1
 663 0be5 66450F38 		pshufb	%xmm14, %xmm15
 663      00FE
 664 0beb 66440F6F 		movdqa	%xmm2, %xmm14
 664      F2
 665 0bf0 66440F38 		pshufb	%xmm5, %xmm14
 665      00F5
 666 0bf6 660FF8EB 		psubb	%xmm3, %xmm5
 667 0bfa 66410FEB 		por	%xmm15, %xmm4
 667      E7
 668 0bff 66440F6F 		movdqa	.LC40(%rip), %xmm15
 668      3D000000 
 668      00
 669 0c08 660FDBE9 		pand	%xmm1, %xmm5
 670 0c0c 66450FEB 		por	%xmm9, %xmm14
 670      F1
 671 0c11 66450F38 		pshufb	%xmm14, %xmm15
 671      00FE
 672 0c17 66440F6F 		movdqa	%xmm2, %xmm14
 672      F2
 673 0c1c 66440F38 		pshufb	%xmm5, %xmm14
 673      00F5
 674 0c22 660FF8EB 		psubb	%xmm3, %xmm5
 675 0c26 66410FEB 		por	%xmm15, %xmm4
 675      E7
 676 0c2b 66440F6F 		movdqa	.LC41(%rip), %xmm15
 676      3D000000 
 676      00
 677 0c34 660FDBE9 		pand	%xmm1, %xmm5
 678 0c38 66450FEB 		por	%xmm9, %xmm14
 678      F1
 679 0c3d 66450F38 		pshufb	%xmm14, %xmm15
 679      00FE
 680 0c43 66440F6F 		movdqa	%xmm2, %xmm14
 680      F2
 681 0c48 66440F38 		pshufb	%xmm5, %xmm14
 681      00F5
 682 0c4e 66410FEB 		por	%xmm15, %xmm4
 682      E7
 683 0c53 66440F6F 		movdqa	.LC42(%rip), %xmm15
 683      3D000000 
 683      00
 684 0c5c 66410F6F 		movdqa	%xmm14, %xmm5
 684      EE
 685 0c61 66450F6F 		movdqa	%xmm10, %xmm14
 685      F2
 686 0c66 66410FEB 		por	%xmm9, %xmm5
 686      E9
 687 0c6b 66440F6F 		movdqa	.LC43(%rip), %xmm9
 687      0D000000 
 687      00
 688 0c74 66440F3A 		pinsrd	$3, %edx, %xmm14
 688      22F203
 689 0c7b B204     		movb	$4, %dl
 690 0c7d 66440F38 		pshufb	%xmm5, %xmm15
 690      00FD
GAS LISTING /tmp/ccABNvJu.s 			page 65


 691 0c83 66410F6F 		movdqa	%xmm15, %xmm5
 691      EF
 692 0c88 66440F6F 		movdqa	%xmm0, %xmm15
 692      F8
 693 0c8d 660FEBEC 		por	%xmm4, %xmm5
 694 0c91 66410F6F 		movdqa	%xmm12, %xmm4
 694      E4
 695 0c96 66410F38 		pshufb	%xmm9, %xmm4
 695      00E1
 696 0c9c 660F3800 		pshufb	.LC20(%rip), %xmm5
 696      2D000000 
 696      00
 697 0ca5 66440FEF 		pxor	%xmm4, %xmm12
 697      E4
 698 0caa 66410F38 		pshufb	%xmm9, %xmm4
 698      00E1
 699 0cb0 66410FEF 		pxor	%xmm13, %xmm5
 699      ED
 700 0cb5 66440F6F 		movdqa	%xmm4, %xmm13
 700      EC
 701 0cba 66440FEF 		pxor	%xmm4, %xmm12
 701      E4
 702 0cbf 660F6FE2 		movdqa	%xmm2, %xmm4
 703 0cc3 66450F38 		pshufb	%xmm9, %xmm13
 703      00E9
 704 0cc9 660F70ED 		pshufd	$255, %xmm5, %xmm5
 704      FF
 705 0cce 66450FEF 		pxor	%xmm13, %xmm12
 705      E5
 706 0cd3 66440FEF 		pxor	%xmm5, %xmm12
 706      E5
 707 0cd8 66450F6F 		movdqa	%xmm12, %xmm13
 707      EC
 708 0cdd 66410F6F 		movdqa	%xmm12, %xmm5
 708      EC
 709 0ce2 66410F72 		psrld	$4, %xmm13
 709      D504
 710 0ce8 66440FDB 		pand	%xmm1, %xmm13
 710      E9
 711 0ced 660FDBE9 		pand	%xmm1, %xmm5
 712 0cf1 66440F7F 		movdqa	%xmm12, 16(%rax)
 712      6010
 713 0cf7 66410F38 		pshufb	%xmm13, %xmm4
 713      00E5
 714 0cfd 66440FF8 		psubb	%xmm3, %xmm13
 714      EB
 715 0d02 66440FDB 		pand	%xmm1, %xmm13
 715      E9
 716 0d07 660FEBE5 		por	%xmm5, %xmm4
 717 0d0b 66440F38 		pshufb	%xmm4, %xmm15
 717      00FC
 718 0d11 66410F6F 		movdqa	%xmm15, %xmm4
 718      E7
 719 0d16 66450FEF 		pxor	%xmm15, %xmm15
 719      FF
 720 0d1b 66410FEB 		por	%xmm15, %xmm4
 720      E7
GAS LISTING /tmp/ccABNvJu.s 			page 66


 721 0d20 66440F6F 		movdqa	%xmm2, %xmm15
 721      FA
 722 0d25 66450F38 		pshufb	%xmm13, %xmm15
 722      00FD
 723 0d2b 66440FF8 		psubb	%xmm3, %xmm13
 723      EB
 724 0d30 66440FDB 		pand	%xmm1, %xmm13
 724      E9
 725 0d35 66440FEB 		por	%xmm5, %xmm15
 725      FD
 726 0d3a 66440F7F 		movdqa	%xmm15, -24(%rsp)
 726      7C24E8
 727 0d41 66450F6F 		movdqa	%xmm11, %xmm15
 727      FB
 728 0d46 66440F38 		pshufb	-24(%rsp), %xmm15
 728      007C24E8 
 729 0d4e 66410FEB 		por	%xmm15, %xmm4
 729      E7
 730 0d53 66440F6F 		movdqa	%xmm2, %xmm15
 730      FA
 731 0d58 66450F38 		pshufb	%xmm13, %xmm15
 731      00FD
 732 0d5e 66440FF8 		psubb	%xmm3, %xmm13
 732      EB
 733 0d63 66440FDB 		pand	%xmm1, %xmm13
 733      E9
 734 0d68 66440FEB 		por	%xmm5, %xmm15
 734      FD
 735 0d6d 66440F7F 		movdqa	%xmm15, -24(%rsp)
 735      7C24E8
 736 0d74 66440F6F 		movdqa	.LC29(%rip), %xmm15
 736      3D000000 
 736      00
 737 0d7d 66440F38 		pshufb	-24(%rsp), %xmm15
 737      007C24E8 
 738 0d85 66410FEB 		por	%xmm15, %xmm4
 738      E7
 739 0d8a 66440F6F 		movdqa	%xmm2, %xmm15
 739      FA
 740 0d8f 66450F38 		pshufb	%xmm13, %xmm15
 740      00FD
 741 0d95 66440FF8 		psubb	%xmm3, %xmm13
 741      EB
 742 0d9a 66440FDB 		pand	%xmm1, %xmm13
 742      E9
 743 0d9f 66440FEB 		por	%xmm5, %xmm15
 743      FD
 744 0da4 66440F7F 		movdqa	%xmm15, -24(%rsp)
 744      7C24E8
 745 0dab 66440F6F 		movdqa	.LC30(%rip), %xmm15
 745      3D000000 
 745      00
 746 0db4 66440F38 		pshufb	-24(%rsp), %xmm15
 746      007C24E8 
 747 0dbc 66410FEB 		por	%xmm15, %xmm4
 747      E7
 748 0dc1 66440F6F 		movdqa	%xmm2, %xmm15
GAS LISTING /tmp/ccABNvJu.s 			page 67


 748      FA
 749 0dc6 66450F38 		pshufb	%xmm13, %xmm15
 749      00FD
 750 0dcc 66440FF8 		psubb	%xmm3, %xmm13
 750      EB
 751 0dd1 66440FDB 		pand	%xmm1, %xmm13
 751      E9
 752 0dd6 66440FEB 		por	%xmm5, %xmm15
 752      FD
 753 0ddb 66440F7F 		movdqa	%xmm15, -24(%rsp)
 753      7C24E8
 754 0de2 66450F6F 		movdqa	%xmm8, %xmm15
 754      F8
 755 0de7 66440F38 		pshufb	-24(%rsp), %xmm15
 755      007C24E8 
 756 0def 66410FEB 		por	%xmm15, %xmm4
 756      E7
 757 0df4 66440F6F 		movdqa	%xmm2, %xmm15
 757      FA
 758 0df9 66450F38 		pshufb	%xmm13, %xmm15
 758      00FD
 759 0dff 66440FF8 		psubb	%xmm3, %xmm13
 759      EB
 760 0e04 66440FDB 		pand	%xmm1, %xmm13
 760      E9
 761 0e09 66440FEB 		por	%xmm5, %xmm15
 761      FD
 762 0e0e 66440F7F 		movdqa	%xmm15, -24(%rsp)
 762      7C24E8
 763 0e15 66440F6F 		movdqa	%xmm7, %xmm15
 763      FF
 764 0e1a 66440F38 		pshufb	-24(%rsp), %xmm15
 764      007C24E8 
 765 0e22 66410FEB 		por	%xmm15, %xmm4
 765      E7
 766 0e27 66440F6F 		movdqa	%xmm2, %xmm15
 766      FA
 767 0e2c 66450F38 		pshufb	%xmm13, %xmm15
 767      00FD
 768 0e32 66440FF8 		psubb	%xmm3, %xmm13
 768      EB
 769 0e37 66440FDB 		pand	%xmm1, %xmm13
 769      E9
 770 0e3c 66440FEB 		por	%xmm5, %xmm15
 770      FD
 771 0e41 66440F7F 		movdqa	%xmm15, -24(%rsp)
 771      7C24E8
 772 0e48 66440F6F 		movdqa	%xmm6, %xmm15
 772      FE
 773 0e4d 66440F38 		pshufb	-24(%rsp), %xmm15
 773      007C24E8 
 774 0e55 66410FEB 		por	%xmm15, %xmm4
 774      E7
 775 0e5a 66440F6F 		movdqa	%xmm2, %xmm15
 775      FA
 776 0e5f 66450F38 		pshufb	%xmm13, %xmm15
 776      00FD
GAS LISTING /tmp/ccABNvJu.s 			page 68


 777 0e65 66440FF8 		psubb	%xmm3, %xmm13
 777      EB
 778 0e6a 66440FDB 		pand	%xmm1, %xmm13
 778      E9
 779 0e6f 66440FEB 		por	%xmm5, %xmm15
 779      FD
 780 0e74 66440F7F 		movdqa	%xmm15, -24(%rsp)
 780      7C24E8
 781 0e7b 66440F6F 		movdqa	.LC34(%rip), %xmm15
 781      3D000000 
 781      00
 782 0e84 66440F38 		pshufb	-24(%rsp), %xmm15
 782      007C24E8 
 783 0e8c 66410FEB 		por	%xmm15, %xmm4
 783      E7
 784 0e91 66440F6F 		movdqa	%xmm2, %xmm15
 784      FA
 785 0e96 66450F38 		pshufb	%xmm13, %xmm15
 785      00FD
 786 0e9c 66440FF8 		psubb	%xmm3, %xmm13
 786      EB
 787 0ea1 66440FDB 		pand	%xmm1, %xmm13
 787      E9
 788 0ea6 66440FEB 		por	%xmm5, %xmm15
 788      FD
 789 0eab 66440F7F 		movdqa	%xmm15, -24(%rsp)
 789      7C24E8
 790 0eb2 66440F6F 		movdqa	.LC35(%rip), %xmm15
 790      3D000000 
 790      00
 791 0ebb 66440F38 		pshufb	-24(%rsp), %xmm15
 791      007C24E8 
 792 0ec3 66410FEB 		por	%xmm15, %xmm4
 792      E7
 793 0ec8 66440F6F 		movdqa	%xmm2, %xmm15
 793      FA
 794 0ecd 66450F38 		pshufb	%xmm13, %xmm15
 794      00FD
 795 0ed3 66440FF8 		psubb	%xmm3, %xmm13
 795      EB
 796 0ed8 66440FDB 		pand	%xmm1, %xmm13
 796      E9
 797 0edd 66440FEB 		por	%xmm5, %xmm15
 797      FD
 798 0ee2 66440F7F 		movdqa	%xmm15, -24(%rsp)
 798      7C24E8
 799 0ee9 66440F6F 		movdqa	.LC36(%rip), %xmm15
 799      3D000000 
 799      00
 800 0ef2 66440F38 		pshufb	-24(%rsp), %xmm15
 800      007C24E8 
 801 0efa 66410FEB 		por	%xmm15, %xmm4
 801      E7
 802 0eff 66440F6F 		movdqa	%xmm2, %xmm15
 802      FA
 803 0f04 66450F38 		pshufb	%xmm13, %xmm15
 803      00FD
GAS LISTING /tmp/ccABNvJu.s 			page 69


 804 0f0a 66440FF8 		psubb	%xmm3, %xmm13
 804      EB
 805 0f0f 66440FDB 		pand	%xmm1, %xmm13
 805      E9
 806 0f14 66440FEB 		por	%xmm5, %xmm15
 806      FD
 807 0f19 66440F7F 		movdqa	%xmm15, -24(%rsp)
 807      7C24E8
 808 0f20 66440F6F 		movdqa	.LC37(%rip), %xmm15
 808      3D000000 
 808      00
 809 0f29 66440F38 		pshufb	-24(%rsp), %xmm15
 809      007C24E8 
 810 0f31 66410FEB 		por	%xmm15, %xmm4
 810      E7
 811 0f36 66440F6F 		movdqa	%xmm2, %xmm15
 811      FA
 812 0f3b 66450F38 		pshufb	%xmm13, %xmm15
 812      00FD
 813 0f41 66440FF8 		psubb	%xmm3, %xmm13
 813      EB
 814 0f46 66440FDB 		pand	%xmm1, %xmm13
 814      E9
 815 0f4b 66440FEB 		por	%xmm5, %xmm15
 815      FD
 816 0f50 66440F7F 		movdqa	%xmm15, -24(%rsp)
 816      7C24E8
 817 0f57 66440F6F 		movdqa	.LC38(%rip), %xmm15
 817      3D000000 
 817      00
 818 0f60 66440F38 		pshufb	-24(%rsp), %xmm15
 818      007C24E8 
 819 0f68 66410FEB 		por	%xmm15, %xmm4
 819      E7
 820 0f6d 66440F6F 		movdqa	%xmm2, %xmm15
 820      FA
 821 0f72 66450F38 		pshufb	%xmm13, %xmm15
 821      00FD
 822 0f78 66440FF8 		psubb	%xmm3, %xmm13
 822      EB
 823 0f7d 66440FDB 		pand	%xmm1, %xmm13
 823      E9
 824 0f82 66440FEB 		por	%xmm5, %xmm15
 824      FD
 825 0f87 66440F7F 		movdqa	%xmm15, -24(%rsp)
 825      7C24E8
 826 0f8e 66440F6F 		movdqa	.LC39(%rip), %xmm15
 826      3D000000 
 826      00
 827 0f97 66440F38 		pshufb	-24(%rsp), %xmm15
 827      007C24E8 
 828 0f9f 66410FEB 		por	%xmm15, %xmm4
 828      E7
 829 0fa4 66440F6F 		movdqa	%xmm2, %xmm15
 829      FA
 830 0fa9 66450F38 		pshufb	%xmm13, %xmm15
 830      00FD
GAS LISTING /tmp/ccABNvJu.s 			page 70


 831 0faf 66440FF8 		psubb	%xmm3, %xmm13
 831      EB
 832 0fb4 66440FDB 		pand	%xmm1, %xmm13
 832      E9
 833 0fb9 66440FEB 		por	%xmm5, %xmm15
 833      FD
 834 0fbe 66440F7F 		movdqa	%xmm15, -24(%rsp)
 834      7C24E8
 835 0fc5 66440F6F 		movdqa	.LC40(%rip), %xmm15
 835      3D000000 
 835      00
 836 0fce 66440F38 		pshufb	-24(%rsp), %xmm15
 836      007C24E8 
 837 0fd6 66410FEB 		por	%xmm15, %xmm4
 837      E7
 838 0fdb 66440F6F 		movdqa	%xmm2, %xmm15
 838      FA
 839 0fe0 66450F38 		pshufb	%xmm13, %xmm15
 839      00FD
 840 0fe6 66440FF8 		psubb	%xmm3, %xmm13
 840      EB
 841 0feb 66440FDB 		pand	%xmm1, %xmm13
 841      E9
 842 0ff0 66440FEB 		por	%xmm5, %xmm15
 842      FD
 843 0ff5 66440F7F 		movdqa	%xmm15, -24(%rsp)
 843      7C24E8
 844 0ffc 66440F6F 		movdqa	.LC41(%rip), %xmm15
 844      3D000000 
 844      00
 845 1005 66440F38 		pshufb	-24(%rsp), %xmm15
 845      007C24E8 
 846 100d 66410FEB 		por	%xmm15, %xmm4
 846      E7
 847 1012 66440F6F 		movdqa	%xmm2, %xmm15
 847      FA
 848 1017 66450F38 		pshufb	%xmm13, %xmm15
 848      00FD
 849 101d 66450F6F 		movdqa	%xmm15, %xmm13
 849      EF
 850 1022 66440F6F 		movdqa	%xmm0, %xmm15
 850      F8
 851 1027 66440FEB 		por	%xmm5, %xmm13
 851      ED
 852 102c 660F6F2D 		movdqa	.LC42(%rip), %xmm5
 852      00000000 
 853 1034 66410F38 		pshufb	%xmm13, %xmm5
 853      00ED
 854 103a 66440F6F 		movdqa	%xmm5, %xmm13
 854      ED
 855 103f 66440FEB 		por	%xmm4, %xmm13
 855      EC
 856 1044 66410F6F 		movdqa	%xmm12, %xmm4
 856      E4
 857 1049 66410F38 		pshufb	%xmm9, %xmm4
 857      00E1
 858 104f 66440F38 		pshufb	.LC20(%rip), %xmm13
GAS LISTING /tmp/ccABNvJu.s 			page 71


 858      002D0000 
 858      0000
 859 1059 66440FEF 		pxor	%xmm4, %xmm12
 859      E4
 860 105e 66410F38 		pshufb	%xmm9, %xmm4
 860      00E1
 861 1064 66450FEF 		pxor	%xmm14, %xmm13
 861      EE
 862 1069 66450F6F 		movdqa	%xmm10, %xmm14
 862      F2
 863 106e 660F6FEC 		movdqa	%xmm4, %xmm5
 864 1072 66440FEF 		pxor	%xmm4, %xmm12
 864      E4
 865 1077 660F6FE2 		movdqa	%xmm2, %xmm4
 866 107b 66410F38 		pshufb	%xmm9, %xmm5
 866      00E9
 867 1081 66450F70 		pshufd	$255, %xmm13, %xmm13
 867      EDFF
 868 1087 66440F3A 		pinsrd	$3, %edx, %xmm14
 868      22F203
 869 108e B208     		movb	$8, %dl
 870 1090 66440FEF 		pxor	%xmm5, %xmm12
 870      E5
 871 1095 66450FEF 		pxor	%xmm13, %xmm12
 871      E5
 872 109a 66450F6F 		movdqa	%xmm12, %xmm13
 872      EC
 873 109f 66410F6F 		movdqa	%xmm12, %xmm5
 873      EC
 874 10a4 66410F72 		psrld	$4, %xmm13
 874      D504
 875 10aa 66440FDB 		pand	%xmm1, %xmm13
 875      E9
 876 10af 660FDBE9 		pand	%xmm1, %xmm5
 877 10b3 66440F7F 		movdqa	%xmm12, 32(%rax)
 877      6020
 878 10b9 66410F38 		pshufb	%xmm13, %xmm4
 878      00E5
 879 10bf 66440FF8 		psubb	%xmm3, %xmm13
 879      EB
 880 10c4 66440FDB 		pand	%xmm1, %xmm13
 880      E9
 881 10c9 660FEBE5 		por	%xmm5, %xmm4
 882 10cd 66440F38 		pshufb	%xmm4, %xmm15
 882      00FC
 883 10d3 66410F6F 		movdqa	%xmm15, %xmm4
 883      E7
 884 10d8 66450FEF 		pxor	%xmm15, %xmm15
 884      FF
 885 10dd 66410FEB 		por	%xmm15, %xmm4
 885      E7
 886 10e2 66440F6F 		movdqa	%xmm2, %xmm15
 886      FA
 887 10e7 66450F38 		pshufb	%xmm13, %xmm15
 887      00FD
 888 10ed 66440FF8 		psubb	%xmm3, %xmm13
 888      EB
GAS LISTING /tmp/ccABNvJu.s 			page 72


 889 10f2 66440FDB 		pand	%xmm1, %xmm13
 889      E9
 890 10f7 66440FEB 		por	%xmm5, %xmm15
 890      FD
 891 10fc 66440F7F 		movdqa	%xmm15, -24(%rsp)
 891      7C24E8
 892 1103 66450F6F 		movdqa	%xmm11, %xmm15
 892      FB
 893 1108 66440F38 		pshufb	-24(%rsp), %xmm15
 893      007C24E8 
 894 1110 66410FEB 		por	%xmm15, %xmm4
 894      E7
 895 1115 66440F6F 		movdqa	%xmm2, %xmm15
 895      FA
 896 111a 66450F38 		pshufb	%xmm13, %xmm15
 896      00FD
 897 1120 66440FF8 		psubb	%xmm3, %xmm13
 897      EB
 898 1125 66440FDB 		pand	%xmm1, %xmm13
 898      E9
 899 112a 66440FEB 		por	%xmm5, %xmm15
 899      FD
 900 112f 66440F7F 		movdqa	%xmm15, -24(%rsp)
 900      7C24E8
 901 1136 66440F6F 		movdqa	.LC29(%rip), %xmm15
 901      3D000000 
 901      00
 902 113f 66440F38 		pshufb	-24(%rsp), %xmm15
 902      007C24E8 
 903 1147 66410FEB 		por	%xmm15, %xmm4
 903      E7
 904 114c 66440F6F 		movdqa	%xmm2, %xmm15
 904      FA
 905 1151 66450F38 		pshufb	%xmm13, %xmm15
 905      00FD
 906 1157 66440FF8 		psubb	%xmm3, %xmm13
 906      EB
 907 115c 66440FDB 		pand	%xmm1, %xmm13
 907      E9
 908 1161 66440FEB 		por	%xmm5, %xmm15
 908      FD
 909 1166 66440F7F 		movdqa	%xmm15, -24(%rsp)
 909      7C24E8
 910 116d 66440F6F 		movdqa	.LC30(%rip), %xmm15
 910      3D000000 
 910      00
 911 1176 66440F38 		pshufb	-24(%rsp), %xmm15
 911      007C24E8 
 912 117e 66410FEB 		por	%xmm15, %xmm4
 912      E7
 913 1183 66440F6F 		movdqa	%xmm2, %xmm15
 913      FA
 914 1188 66450F38 		pshufb	%xmm13, %xmm15
 914      00FD
 915 118e 66440FF8 		psubb	%xmm3, %xmm13
 915      EB
 916 1193 66440FDB 		pand	%xmm1, %xmm13
GAS LISTING /tmp/ccABNvJu.s 			page 73


 916      E9
 917 1198 66440FEB 		por	%xmm5, %xmm15
 917      FD
 918 119d 66440F7F 		movdqa	%xmm15, -24(%rsp)
 918      7C24E8
 919 11a4 66450F6F 		movdqa	%xmm8, %xmm15
 919      F8
 920 11a9 66440F38 		pshufb	-24(%rsp), %xmm15
 920      007C24E8 
 921 11b1 66410FEB 		por	%xmm15, %xmm4
 921      E7
 922 11b6 66440F6F 		movdqa	%xmm2, %xmm15
 922      FA
 923 11bb 66450F38 		pshufb	%xmm13, %xmm15
 923      00FD
 924 11c1 66440FF8 		psubb	%xmm3, %xmm13
 924      EB
 925 11c6 66440FDB 		pand	%xmm1, %xmm13
 925      E9
 926 11cb 66440FEB 		por	%xmm5, %xmm15
 926      FD
 927 11d0 66440F7F 		movdqa	%xmm15, -24(%rsp)
 927      7C24E8
 928 11d7 66440F6F 		movdqa	%xmm7, %xmm15
 928      FF
 929 11dc 66440F38 		pshufb	-24(%rsp), %xmm15
 929      007C24E8 
 930 11e4 66410FEB 		por	%xmm15, %xmm4
 930      E7
 931 11e9 66440F6F 		movdqa	%xmm2, %xmm15
 931      FA
 932 11ee 66450F38 		pshufb	%xmm13, %xmm15
 932      00FD
 933 11f4 66440FF8 		psubb	%xmm3, %xmm13
 933      EB
 934 11f9 66440FDB 		pand	%xmm1, %xmm13
 934      E9
 935 11fe 66440FEB 		por	%xmm5, %xmm15
 935      FD
 936 1203 66440F7F 		movdqa	%xmm15, -24(%rsp)
 936      7C24E8
 937 120a 66440F6F 		movdqa	%xmm6, %xmm15
 937      FE
 938 120f 66440F38 		pshufb	-24(%rsp), %xmm15
 938      007C24E8 
 939 1217 66410FEB 		por	%xmm15, %xmm4
 939      E7
 940 121c 66440F6F 		movdqa	%xmm2, %xmm15
 940      FA
 941 1221 66450F38 		pshufb	%xmm13, %xmm15
 941      00FD
 942 1227 66440FF8 		psubb	%xmm3, %xmm13
 942      EB
 943 122c 66440FDB 		pand	%xmm1, %xmm13
 943      E9
 944 1231 66440FEB 		por	%xmm5, %xmm15
 944      FD
GAS LISTING /tmp/ccABNvJu.s 			page 74


 945 1236 66440F7F 		movdqa	%xmm15, -24(%rsp)
 945      7C24E8
 946 123d 66440F6F 		movdqa	.LC34(%rip), %xmm15
 946      3D000000 
 946      00
 947 1246 66440F38 		pshufb	-24(%rsp), %xmm15
 947      007C24E8 
 948 124e 66410FEB 		por	%xmm15, %xmm4
 948      E7
 949 1253 66440F6F 		movdqa	%xmm2, %xmm15
 949      FA
 950 1258 66450F38 		pshufb	%xmm13, %xmm15
 950      00FD
 951 125e 66440FF8 		psubb	%xmm3, %xmm13
 951      EB
 952 1263 66440FDB 		pand	%xmm1, %xmm13
 952      E9
 953 1268 66440FEB 		por	%xmm5, %xmm15
 953      FD
 954 126d 66440F7F 		movdqa	%xmm15, -24(%rsp)
 954      7C24E8
 955 1274 66440F6F 		movdqa	.LC35(%rip), %xmm15
 955      3D000000 
 955      00
 956 127d 66440F38 		pshufb	-24(%rsp), %xmm15
 956      007C24E8 
 957 1285 66410FEB 		por	%xmm15, %xmm4
 957      E7
 958 128a 66440F6F 		movdqa	%xmm2, %xmm15
 958      FA
 959 128f 66450F38 		pshufb	%xmm13, %xmm15
 959      00FD
 960 1295 66440FF8 		psubb	%xmm3, %xmm13
 960      EB
 961 129a 66440FDB 		pand	%xmm1, %xmm13
 961      E9
 962 129f 66440FEB 		por	%xmm5, %xmm15
 962      FD
 963 12a4 66440F7F 		movdqa	%xmm15, -24(%rsp)
 963      7C24E8
 964 12ab 66440F6F 		movdqa	.LC36(%rip), %xmm15
 964      3D000000 
 964      00
 965 12b4 66440F38 		pshufb	-24(%rsp), %xmm15
 965      007C24E8 
 966 12bc 66410FEB 		por	%xmm15, %xmm4
 966      E7
 967 12c1 66440F6F 		movdqa	%xmm2, %xmm15
 967      FA
 968 12c6 66450F38 		pshufb	%xmm13, %xmm15
 968      00FD
 969 12cc 66440FF8 		psubb	%xmm3, %xmm13
 969      EB
 970 12d1 66440FDB 		pand	%xmm1, %xmm13
 970      E9
 971 12d6 66440FEB 		por	%xmm5, %xmm15
 971      FD
GAS LISTING /tmp/ccABNvJu.s 			page 75


 972 12db 66440F7F 		movdqa	%xmm15, -24(%rsp)
 972      7C24E8
 973 12e2 66440F6F 		movdqa	.LC37(%rip), %xmm15
 973      3D000000 
 973      00
 974 12eb 66440F38 		pshufb	-24(%rsp), %xmm15
 974      007C24E8 
 975 12f3 66410FEB 		por	%xmm15, %xmm4
 975      E7
 976 12f8 66440F6F 		movdqa	%xmm2, %xmm15
 976      FA
 977 12fd 66450F38 		pshufb	%xmm13, %xmm15
 977      00FD
 978 1303 66440FF8 		psubb	%xmm3, %xmm13
 978      EB
 979 1308 66440FDB 		pand	%xmm1, %xmm13
 979      E9
 980 130d 66440FEB 		por	%xmm5, %xmm15
 980      FD
 981 1312 66440F7F 		movdqa	%xmm15, -24(%rsp)
 981      7C24E8
 982 1319 66440F6F 		movdqa	.LC38(%rip), %xmm15
 982      3D000000 
 982      00
 983 1322 66440F38 		pshufb	-24(%rsp), %xmm15
 983      007C24E8 
 984 132a 66410FEB 		por	%xmm15, %xmm4
 984      E7
 985 132f 66440F6F 		movdqa	%xmm2, %xmm15
 985      FA
 986 1334 66450F38 		pshufb	%xmm13, %xmm15
 986      00FD
 987 133a 66440FF8 		psubb	%xmm3, %xmm13
 987      EB
 988 133f 66440FDB 		pand	%xmm1, %xmm13
 988      E9
 989 1344 66440FEB 		por	%xmm5, %xmm15
 989      FD
 990 1349 66440F7F 		movdqa	%xmm15, -24(%rsp)
 990      7C24E8
 991 1350 66440F6F 		movdqa	.LC39(%rip), %xmm15
 991      3D000000 
 991      00
 992 1359 66440F38 		pshufb	-24(%rsp), %xmm15
 992      007C24E8 
 993 1361 66410FEB 		por	%xmm15, %xmm4
 993      E7
 994 1366 66440F6F 		movdqa	%xmm2, %xmm15
 994      FA
 995 136b 66450F38 		pshufb	%xmm13, %xmm15
 995      00FD
 996 1371 66440FF8 		psubb	%xmm3, %xmm13
 996      EB
 997 1376 66440FDB 		pand	%xmm1, %xmm13
 997      E9
 998 137b 66440FEB 		por	%xmm5, %xmm15
 998      FD
GAS LISTING /tmp/ccABNvJu.s 			page 76


 999 1380 66440F7F 		movdqa	%xmm15, -24(%rsp)
 999      7C24E8
 1000 1387 66440F6F 		movdqa	.LC40(%rip), %xmm15
 1000      3D000000 
 1000      00
 1001 1390 66440F38 		pshufb	-24(%rsp), %xmm15
 1001      007C24E8 
 1002 1398 66410FEB 		por	%xmm15, %xmm4
 1002      E7
 1003 139d 66440F6F 		movdqa	%xmm2, %xmm15
 1003      FA
 1004 13a2 66450F38 		pshufb	%xmm13, %xmm15
 1004      00FD
 1005 13a8 66440FF8 		psubb	%xmm3, %xmm13
 1005      EB
 1006 13ad 66440FDB 		pand	%xmm1, %xmm13
 1006      E9
 1007 13b2 66440FEB 		por	%xmm5, %xmm15
 1007      FD
 1008 13b7 66440F7F 		movdqa	%xmm15, -24(%rsp)
 1008      7C24E8
 1009 13be 66440F6F 		movdqa	.LC41(%rip), %xmm15
 1009      3D000000 
 1009      00
 1010 13c7 66440F38 		pshufb	-24(%rsp), %xmm15
 1010      007C24E8 
 1011 13cf 66410FEB 		por	%xmm15, %xmm4
 1011      E7
 1012 13d4 66440F6F 		movdqa	%xmm2, %xmm15
 1012      FA
 1013 13d9 66450F38 		pshufb	%xmm13, %xmm15
 1013      00FD
 1014 13df 66450F6F 		movdqa	%xmm15, %xmm13
 1014      EF
 1015 13e4 66440F6F 		movdqa	%xmm0, %xmm15
 1015      F8
 1016 13e9 66440FEB 		por	%xmm5, %xmm13
 1016      ED
 1017 13ee 660F6F2D 		movdqa	.LC42(%rip), %xmm5
 1017      00000000 
 1018 13f6 66410F38 		pshufb	%xmm13, %xmm5
 1018      00ED
 1019 13fc 66440F6F 		movdqa	%xmm5, %xmm13
 1019      ED
 1020 1401 66440FEB 		por	%xmm4, %xmm13
 1020      EC
 1021 1406 66410F6F 		movdqa	%xmm12, %xmm4
 1021      E4
 1022 140b 66410F38 		pshufb	%xmm9, %xmm4
 1022      00E1
 1023 1411 66440F38 		pshufb	.LC20(%rip), %xmm13
 1023      002D0000 
 1023      0000
 1024 141b 66440FEF 		pxor	%xmm4, %xmm12
 1024      E4
 1025 1420 66410F38 		pshufb	%xmm9, %xmm4
 1025      00E1
GAS LISTING /tmp/ccABNvJu.s 			page 77


 1026 1426 66450FEF 		pxor	%xmm14, %xmm13
 1026      EE
 1027 142b 66450F6F 		movdqa	%xmm10, %xmm14
 1027      F2
 1028 1430 660F6FEC 		movdqa	%xmm4, %xmm5
 1029 1434 66440FEF 		pxor	%xmm4, %xmm12
 1029      E4
 1030 1439 660F6FE2 		movdqa	%xmm2, %xmm4
 1031 143d 66410F38 		pshufb	%xmm9, %xmm5
 1031      00E9
 1032 1443 66450F70 		pshufd	$255, %xmm13, %xmm13
 1032      EDFF
 1033 1449 66440F3A 		pinsrd	$3, %edx, %xmm14
 1033      22F203
 1034 1450 B210     		movb	$16, %dl
 1035 1452 66440FEF 		pxor	%xmm5, %xmm12
 1035      E5
 1036 1457 66450FEF 		pxor	%xmm13, %xmm12
 1036      E5
 1037 145c 66450F6F 		movdqa	%xmm12, %xmm13
 1037      EC
 1038 1461 66410F6F 		movdqa	%xmm12, %xmm5
 1038      EC
 1039 1466 66410F72 		psrld	$4, %xmm13
 1039      D504
 1040 146c 66440FDB 		pand	%xmm1, %xmm13
 1040      E9
 1041 1471 660FDBE9 		pand	%xmm1, %xmm5
 1042 1475 66440F7F 		movdqa	%xmm12, 48(%rax)
 1042      6030
 1043 147b 66410F38 		pshufb	%xmm13, %xmm4
 1043      00E5
 1044 1481 66440FF8 		psubb	%xmm3, %xmm13
 1044      EB
 1045 1486 66440FDB 		pand	%xmm1, %xmm13
 1045      E9
 1046 148b 660FEBE5 		por	%xmm5, %xmm4
 1047 148f 66440F38 		pshufb	%xmm4, %xmm15
 1047      00FC
 1048 1495 66410F6F 		movdqa	%xmm15, %xmm4
 1048      E7
 1049 149a 66450FEF 		pxor	%xmm15, %xmm15
 1049      FF
 1050 149f 66410FEB 		por	%xmm15, %xmm4
 1050      E7
 1051 14a4 66440F6F 		movdqa	%xmm2, %xmm15
 1051      FA
 1052 14a9 66450F38 		pshufb	%xmm13, %xmm15
 1052      00FD
 1053 14af 66440FF8 		psubb	%xmm3, %xmm13
 1053      EB
 1054 14b4 66440FDB 		pand	%xmm1, %xmm13
 1054      E9
 1055 14b9 66440FEB 		por	%xmm5, %xmm15
 1055      FD
 1056 14be 66440F7F 		movdqa	%xmm15, -24(%rsp)
 1056      7C24E8
GAS LISTING /tmp/ccABNvJu.s 			page 78


 1057 14c5 66450F6F 		movdqa	%xmm11, %xmm15
 1057      FB
 1058 14ca 66440F38 		pshufb	-24(%rsp), %xmm15
 1058      007C24E8 
 1059 14d2 66410FEB 		por	%xmm15, %xmm4
 1059      E7
 1060 14d7 66440F6F 		movdqa	%xmm2, %xmm15
 1060      FA
 1061 14dc 66450F38 		pshufb	%xmm13, %xmm15
 1061      00FD
 1062 14e2 66440FF8 		psubb	%xmm3, %xmm13
 1062      EB
 1063 14e7 66440FDB 		pand	%xmm1, %xmm13
 1063      E9
 1064 14ec 66440FEB 		por	%xmm5, %xmm15
 1064      FD
 1065 14f1 66440F7F 		movdqa	%xmm15, -24(%rsp)
 1065      7C24E8
 1066 14f8 66440F6F 		movdqa	.LC29(%rip), %xmm15
 1066      3D000000 
 1066      00
 1067 1501 66440F38 		pshufb	-24(%rsp), %xmm15
 1067      007C24E8 
 1068 1509 66410FEB 		por	%xmm15, %xmm4
 1068      E7
 1069 150e 66440F6F 		movdqa	%xmm2, %xmm15
 1069      FA
 1070 1513 66450F38 		pshufb	%xmm13, %xmm15
 1070      00FD
 1071 1519 66440FF8 		psubb	%xmm3, %xmm13
 1071      EB
 1072 151e 66440FDB 		pand	%xmm1, %xmm13
 1072      E9
 1073 1523 66440FEB 		por	%xmm5, %xmm15
 1073      FD
 1074 1528 66440F7F 		movdqa	%xmm15, -24(%rsp)
 1074      7C24E8
 1075 152f 66440F6F 		movdqa	.LC30(%rip), %xmm15
 1075      3D000000 
 1075      00
 1076 1538 66440F38 		pshufb	-24(%rsp), %xmm15
 1076      007C24E8 
 1077 1540 66410FEB 		por	%xmm15, %xmm4
 1077      E7
 1078 1545 66440F6F 		movdqa	%xmm2, %xmm15
 1078      FA
 1079 154a 66450F38 		pshufb	%xmm13, %xmm15
 1079      00FD
 1080 1550 66440FF8 		psubb	%xmm3, %xmm13
 1080      EB
 1081 1555 66440FDB 		pand	%xmm1, %xmm13
 1081      E9
 1082 155a 66440FEB 		por	%xmm5, %xmm15
 1082      FD
 1083 155f 66440F7F 		movdqa	%xmm15, -24(%rsp)
 1083      7C24E8
 1084 1566 66450F6F 		movdqa	%xmm8, %xmm15
GAS LISTING /tmp/ccABNvJu.s 			page 79


 1084      F8
 1085 156b 66440F38 		pshufb	-24(%rsp), %xmm15
 1085      007C24E8 
 1086 1573 66410FEB 		por	%xmm15, %xmm4
 1086      E7
 1087 1578 66440F6F 		movdqa	%xmm2, %xmm15
 1087      FA
 1088 157d 66450F38 		pshufb	%xmm13, %xmm15
 1088      00FD
 1089 1583 66440FF8 		psubb	%xmm3, %xmm13
 1089      EB
 1090 1588 66440FDB 		pand	%xmm1, %xmm13
 1090      E9
 1091 158d 66440FEB 		por	%xmm5, %xmm15
 1091      FD
 1092 1592 66440F7F 		movdqa	%xmm15, -24(%rsp)
 1092      7C24E8
 1093 1599 66440F6F 		movdqa	%xmm7, %xmm15
 1093      FF
 1094 159e 66440F38 		pshufb	-24(%rsp), %xmm15
 1094      007C24E8 
 1095 15a6 66410FEB 		por	%xmm15, %xmm4
 1095      E7
 1096 15ab 66440F6F 		movdqa	%xmm2, %xmm15
 1096      FA
 1097 15b0 66450F38 		pshufb	%xmm13, %xmm15
 1097      00FD
 1098 15b6 66440FF8 		psubb	%xmm3, %xmm13
 1098      EB
 1099 15bb 66440FDB 		pand	%xmm1, %xmm13
 1099      E9
 1100 15c0 66440FEB 		por	%xmm5, %xmm15
 1100      FD
 1101 15c5 66440F7F 		movdqa	%xmm15, -24(%rsp)
 1101      7C24E8
 1102 15cc 66440F6F 		movdqa	%xmm6, %xmm15
 1102      FE
 1103 15d1 66440F38 		pshufb	-24(%rsp), %xmm15
 1103      007C24E8 
 1104 15d9 66410FEB 		por	%xmm15, %xmm4
 1104      E7
 1105 15de 66440F6F 		movdqa	%xmm2, %xmm15
 1105      FA
 1106 15e3 66450F38 		pshufb	%xmm13, %xmm15
 1106      00FD
 1107 15e9 66440FF8 		psubb	%xmm3, %xmm13
 1107      EB
 1108 15ee 66440FDB 		pand	%xmm1, %xmm13
 1108      E9
 1109 15f3 66440FEB 		por	%xmm5, %xmm15
 1109      FD
 1110 15f8 66440F7F 		movdqa	%xmm15, -24(%rsp)
 1110      7C24E8
 1111 15ff 66440F6F 		movdqa	.LC34(%rip), %xmm15
 1111      3D000000 
 1111      00
 1112 1608 66440F38 		pshufb	-24(%rsp), %xmm15
GAS LISTING /tmp/ccABNvJu.s 			page 80


 1112      007C24E8 
 1113 1610 66410FEB 		por	%xmm15, %xmm4
 1113      E7
 1114 1615 66440F6F 		movdqa	%xmm2, %xmm15
 1114      FA
 1115 161a 66450F38 		pshufb	%xmm13, %xmm15
 1115      00FD
 1116 1620 66440FF8 		psubb	%xmm3, %xmm13
 1116      EB
 1117 1625 66440FDB 		pand	%xmm1, %xmm13
 1117      E9
 1118 162a 66440FEB 		por	%xmm5, %xmm15
 1118      FD
 1119 162f 66440F7F 		movdqa	%xmm15, -24(%rsp)
 1119      7C24E8
 1120 1636 66440F6F 		movdqa	.LC35(%rip), %xmm15
 1120      3D000000 
 1120      00
 1121 163f 66440F38 		pshufb	-24(%rsp), %xmm15
 1121      007C24E8 
 1122 1647 66410FEB 		por	%xmm15, %xmm4
 1122      E7
 1123 164c 66440F6F 		movdqa	%xmm2, %xmm15
 1123      FA
 1124 1651 66450F38 		pshufb	%xmm13, %xmm15
 1124      00FD
 1125 1657 66440FF8 		psubb	%xmm3, %xmm13
 1125      EB
 1126 165c 66440FDB 		pand	%xmm1, %xmm13
 1126      E9
 1127 1661 66440FEB 		por	%xmm5, %xmm15
 1127      FD
 1128 1666 66440F7F 		movdqa	%xmm15, -24(%rsp)
 1128      7C24E8
 1129 166d 66440F6F 		movdqa	.LC36(%rip), %xmm15
 1129      3D000000 
 1129      00
 1130 1676 66440F38 		pshufb	-24(%rsp), %xmm15
 1130      007C24E8 
 1131 167e 66410FEB 		por	%xmm15, %xmm4
 1131      E7
 1132 1683 66440F6F 		movdqa	%xmm2, %xmm15
 1132      FA
 1133 1688 66450F38 		pshufb	%xmm13, %xmm15
 1133      00FD
 1134 168e 66440FF8 		psubb	%xmm3, %xmm13
 1134      EB
 1135 1693 66440FDB 		pand	%xmm1, %xmm13
 1135      E9
 1136 1698 66440FEB 		por	%xmm5, %xmm15
 1136      FD
 1137 169d 66440F7F 		movdqa	%xmm15, -24(%rsp)
 1137      7C24E8
 1138 16a4 66440F6F 		movdqa	.LC37(%rip), %xmm15
 1138      3D000000 
 1138      00
 1139 16ad 66440F38 		pshufb	-24(%rsp), %xmm15
GAS LISTING /tmp/ccABNvJu.s 			page 81


 1139      007C24E8 
 1140 16b5 66410FEB 		por	%xmm15, %xmm4
 1140      E7
 1141 16ba 66440F6F 		movdqa	%xmm2, %xmm15
 1141      FA
 1142 16bf 66450F38 		pshufb	%xmm13, %xmm15
 1142      00FD
 1143 16c5 66440FF8 		psubb	%xmm3, %xmm13
 1143      EB
 1144 16ca 66440FDB 		pand	%xmm1, %xmm13
 1144      E9
 1145 16cf 66440FEB 		por	%xmm5, %xmm15
 1145      FD
 1146 16d4 66440F7F 		movdqa	%xmm15, -24(%rsp)
 1146      7C24E8
 1147 16db 66440F6F 		movdqa	.LC38(%rip), %xmm15
 1147      3D000000 
 1147      00
 1148 16e4 66440F38 		pshufb	-24(%rsp), %xmm15
 1148      007C24E8 
 1149 16ec 66410FEB 		por	%xmm15, %xmm4
 1149      E7
 1150 16f1 66440F6F 		movdqa	%xmm2, %xmm15
 1150      FA
 1151 16f6 66450F38 		pshufb	%xmm13, %xmm15
 1151      00FD
 1152 16fc 66440FF8 		psubb	%xmm3, %xmm13
 1152      EB
 1153 1701 66440FDB 		pand	%xmm1, %xmm13
 1153      E9
 1154 1706 66440FEB 		por	%xmm5, %xmm15
 1154      FD
 1155 170b 66440F7F 		movdqa	%xmm15, -24(%rsp)
 1155      7C24E8
 1156 1712 66440F6F 		movdqa	.LC39(%rip), %xmm15
 1156      3D000000 
 1156      00
 1157 171b 66440F38 		pshufb	-24(%rsp), %xmm15
 1157      007C24E8 
 1158 1723 66410FEB 		por	%xmm15, %xmm4
 1158      E7
 1159 1728 66440F6F 		movdqa	%xmm2, %xmm15
 1159      FA
 1160 172d 66450F38 		pshufb	%xmm13, %xmm15
 1160      00FD
 1161 1733 66440FF8 		psubb	%xmm3, %xmm13
 1161      EB
 1162 1738 66440FDB 		pand	%xmm1, %xmm13
 1162      E9
 1163 173d 66440FEB 		por	%xmm5, %xmm15
 1163      FD
 1164 1742 66440F7F 		movdqa	%xmm15, -24(%rsp)
 1164      7C24E8
 1165 1749 66440F6F 		movdqa	.LC40(%rip), %xmm15
 1165      3D000000 
 1165      00
 1166 1752 66440F38 		pshufb	-24(%rsp), %xmm15
GAS LISTING /tmp/ccABNvJu.s 			page 82


 1166      007C24E8 
 1167 175a 66410FEB 		por	%xmm15, %xmm4
 1167      E7
 1168 175f 66440F6F 		movdqa	%xmm2, %xmm15
 1168      FA
 1169 1764 66450F38 		pshufb	%xmm13, %xmm15
 1169      00FD
 1170 176a 66440FF8 		psubb	%xmm3, %xmm13
 1170      EB
 1171 176f 66440FDB 		pand	%xmm1, %xmm13
 1171      E9
 1172 1774 66440FEB 		por	%xmm5, %xmm15
 1172      FD
 1173 1779 66440F7F 		movdqa	%xmm15, -24(%rsp)
 1173      7C24E8
 1174 1780 66440F6F 		movdqa	.LC41(%rip), %xmm15
 1174      3D000000 
 1174      00
 1175 1789 66440F38 		pshufb	-24(%rsp), %xmm15
 1175      007C24E8 
 1176 1791 66410FEB 		por	%xmm15, %xmm4
 1176      E7
 1177 1796 66440F6F 		movdqa	%xmm2, %xmm15
 1177      FA
 1178 179b 66450F38 		pshufb	%xmm13, %xmm15
 1178      00FD
 1179 17a1 66450F6F 		movdqa	%xmm15, %xmm13
 1179      EF
 1180 17a6 66440F6F 		movdqa	%xmm0, %xmm15
 1180      F8
 1181 17ab 66440FEB 		por	%xmm5, %xmm13
 1181      ED
 1182 17b0 660F6F2D 		movdqa	.LC42(%rip), %xmm5
 1182      00000000 
 1183 17b8 66410F38 		pshufb	%xmm13, %xmm5
 1183      00ED
 1184 17be 66440F6F 		movdqa	%xmm5, %xmm13
 1184      ED
 1185 17c3 66410F6F 		movdqa	%xmm12, %xmm5
 1185      EC
 1186 17c8 66440FEB 		por	%xmm4, %xmm13
 1186      EC
 1187 17cd 66410F6F 		movdqa	%xmm12, %xmm4
 1187      E4
 1188 17d2 66410F38 		pshufb	%xmm9, %xmm4
 1188      00E1
 1189 17d8 66440F38 		pshufb	.LC20(%rip), %xmm13
 1189      002D0000 
 1189      0000
 1190 17e2 660FEFEC 		pxor	%xmm4, %xmm5
 1191 17e6 66410F38 		pshufb	%xmm9, %xmm4
 1191      00E1
 1192 17ec 66450FEF 		pxor	%xmm14, %xmm13
 1192      EE
 1193 17f1 66450F6F 		movdqa	%xmm10, %xmm14
 1193      F2
 1194 17f6 66440F6F 		movdqa	%xmm4, %xmm12
GAS LISTING /tmp/ccABNvJu.s 			page 83


 1194      E4
 1195 17fb 660FEFEC 		pxor	%xmm4, %xmm5
 1196 17ff 660F6FE2 		movdqa	%xmm2, %xmm4
 1197 1803 66450F38 		pshufb	%xmm9, %xmm12
 1197      00E1
 1198 1809 66450F70 		pshufd	$255, %xmm13, %xmm13
 1198      EDFF
 1199 180f 66440F3A 		pinsrd	$3, %edx, %xmm14
 1199      22F203
 1200 1816 B220     		movb	$32, %dl
 1201 1818 66410FEF 		pxor	%xmm12, %xmm5
 1201      EC
 1202 181d 66410FEF 		pxor	%xmm13, %xmm5
 1202      ED
 1203 1822 66440F6F 		movdqa	%xmm5, %xmm13
 1203      ED
 1204 1827 66440F6F 		movdqa	%xmm5, %xmm12
 1204      E5
 1205 182c 66410F72 		psrld	$4, %xmm13
 1205      D504
 1206 1832 66440FDB 		pand	%xmm1, %xmm13
 1206      E9
 1207 1837 66440FDB 		pand	%xmm1, %xmm12
 1207      E1
 1208 183c 660F7F68 		movdqa	%xmm5, 64(%rax)
 1208      40
 1209 1841 66410F38 		pshufb	%xmm13, %xmm4
 1209      00E5
 1210 1847 66440FF8 		psubb	%xmm3, %xmm13
 1210      EB
 1211 184c 66440FDB 		pand	%xmm1, %xmm13
 1211      E9
 1212 1851 66410FEB 		por	%xmm12, %xmm4
 1212      E4
 1213 1856 66440F38 		pshufb	%xmm4, %xmm15
 1213      00FC
 1214 185c 66410F6F 		movdqa	%xmm15, %xmm4
 1214      E7
 1215 1861 66450FEF 		pxor	%xmm15, %xmm15
 1215      FF
 1216 1866 66410FEB 		por	%xmm15, %xmm4
 1216      E7
 1217 186b 66440F6F 		movdqa	%xmm2, %xmm15
 1217      FA
 1218 1870 66450F38 		pshufb	%xmm13, %xmm15
 1218      00FD
 1219 1876 66440FF8 		psubb	%xmm3, %xmm13
 1219      EB
 1220 187b 66440FDB 		pand	%xmm1, %xmm13
 1220      E9
 1221 1880 66450FEB 		por	%xmm12, %xmm15
 1221      FC
 1222 1885 66440F7F 		movdqa	%xmm15, -24(%rsp)
 1222      7C24E8
 1223 188c 66450F6F 		movdqa	%xmm11, %xmm15
 1223      FB
 1224 1891 66440F38 		pshufb	-24(%rsp), %xmm15
GAS LISTING /tmp/ccABNvJu.s 			page 84


 1224      007C24E8 
 1225 1899 66410FEB 		por	%xmm15, %xmm4
 1225      E7
 1226 189e 66440F6F 		movdqa	%xmm2, %xmm15
 1226      FA
 1227 18a3 66450F38 		pshufb	%xmm13, %xmm15
 1227      00FD
 1228 18a9 66440FF8 		psubb	%xmm3, %xmm13
 1228      EB
 1229 18ae 66440FDB 		pand	%xmm1, %xmm13
 1229      E9
 1230 18b3 66450FEB 		por	%xmm12, %xmm15
 1230      FC
 1231 18b8 66440F7F 		movdqa	%xmm15, -24(%rsp)
 1231      7C24E8
 1232 18bf 66440F6F 		movdqa	.LC29(%rip), %xmm15
 1232      3D000000 
 1232      00
 1233 18c8 66440F38 		pshufb	-24(%rsp), %xmm15
 1233      007C24E8 
 1234 18d0 66410FEB 		por	%xmm15, %xmm4
 1234      E7
 1235 18d5 66440F6F 		movdqa	%xmm2, %xmm15
 1235      FA
 1236 18da 66450F38 		pshufb	%xmm13, %xmm15
 1236      00FD
 1237 18e0 66440FF8 		psubb	%xmm3, %xmm13
 1237      EB
 1238 18e5 66440FDB 		pand	%xmm1, %xmm13
 1238      E9
 1239 18ea 66450FEB 		por	%xmm12, %xmm15
 1239      FC
 1240 18ef 66440F7F 		movdqa	%xmm15, -24(%rsp)
 1240      7C24E8
 1241 18f6 66440F6F 		movdqa	.LC30(%rip), %xmm15
 1241      3D000000 
 1241      00
 1242 18ff 66440F38 		pshufb	-24(%rsp), %xmm15
 1242      007C24E8 
 1243 1907 66410FEB 		por	%xmm15, %xmm4
 1243      E7
 1244 190c 66440F6F 		movdqa	%xmm2, %xmm15
 1244      FA
 1245 1911 66450F38 		pshufb	%xmm13, %xmm15
 1245      00FD
 1246 1917 66440FF8 		psubb	%xmm3, %xmm13
 1246      EB
 1247 191c 66440FDB 		pand	%xmm1, %xmm13
 1247      E9
 1248 1921 66450FEB 		por	%xmm12, %xmm15
 1248      FC
 1249 1926 66440F7F 		movdqa	%xmm15, -24(%rsp)
 1249      7C24E8
 1250 192d 66450F6F 		movdqa	%xmm8, %xmm15
 1250      F8
 1251 1932 66440F38 		pshufb	-24(%rsp), %xmm15
 1251      007C24E8 
GAS LISTING /tmp/ccABNvJu.s 			page 85


 1252 193a 66410FEB 		por	%xmm15, %xmm4
 1252      E7
 1253 193f 66440F6F 		movdqa	%xmm2, %xmm15
 1253      FA
 1254 1944 66450F38 		pshufb	%xmm13, %xmm15
 1254      00FD
 1255 194a 66440FF8 		psubb	%xmm3, %xmm13
 1255      EB
 1256 194f 66440FDB 		pand	%xmm1, %xmm13
 1256      E9
 1257 1954 66450FEB 		por	%xmm12, %xmm15
 1257      FC
 1258 1959 66440F7F 		movdqa	%xmm15, -24(%rsp)
 1258      7C24E8
 1259 1960 66440F6F 		movdqa	%xmm7, %xmm15
 1259      FF
 1260 1965 66440F38 		pshufb	-24(%rsp), %xmm15
 1260      007C24E8 
 1261 196d 66410FEB 		por	%xmm15, %xmm4
 1261      E7
 1262 1972 66440F6F 		movdqa	%xmm2, %xmm15
 1262      FA
 1263 1977 66450F38 		pshufb	%xmm13, %xmm15
 1263      00FD
 1264 197d 66440FF8 		psubb	%xmm3, %xmm13
 1264      EB
 1265 1982 66440FDB 		pand	%xmm1, %xmm13
 1265      E9
 1266 1987 66450FEB 		por	%xmm12, %xmm15
 1266      FC
 1267 198c 66440F7F 		movdqa	%xmm15, -24(%rsp)
 1267      7C24E8
 1268 1993 66440F6F 		movdqa	%xmm6, %xmm15
 1268      FE
 1269 1998 66440F38 		pshufb	-24(%rsp), %xmm15
 1269      007C24E8 
 1270 19a0 66410FEB 		por	%xmm15, %xmm4
 1270      E7
 1271 19a5 66440F6F 		movdqa	%xmm2, %xmm15
 1271      FA
 1272 19aa 66450F38 		pshufb	%xmm13, %xmm15
 1272      00FD
 1273 19b0 66440FF8 		psubb	%xmm3, %xmm13
 1273      EB
 1274 19b5 66440FDB 		pand	%xmm1, %xmm13
 1274      E9
 1275 19ba 66450FEB 		por	%xmm12, %xmm15
 1275      FC
 1276 19bf 66440F7F 		movdqa	%xmm15, -24(%rsp)
 1276      7C24E8
 1277 19c6 66440F6F 		movdqa	.LC34(%rip), %xmm15
 1277      3D000000 
 1277      00
 1278 19cf 66440F38 		pshufb	-24(%rsp), %xmm15
 1278      007C24E8 
 1279 19d7 66410FEB 		por	%xmm15, %xmm4
 1279      E7
GAS LISTING /tmp/ccABNvJu.s 			page 86


 1280 19dc 66440F6F 		movdqa	%xmm2, %xmm15
 1280      FA
 1281 19e1 66450F38 		pshufb	%xmm13, %xmm15
 1281      00FD
 1282 19e7 66440FF8 		psubb	%xmm3, %xmm13
 1282      EB
 1283 19ec 66440FDB 		pand	%xmm1, %xmm13
 1283      E9
 1284 19f1 66450FEB 		por	%xmm12, %xmm15
 1284      FC
 1285 19f6 66440F7F 		movdqa	%xmm15, -24(%rsp)
 1285      7C24E8
 1286 19fd 66440F6F 		movdqa	.LC35(%rip), %xmm15
 1286      3D000000 
 1286      00
 1287 1a06 66440F38 		pshufb	-24(%rsp), %xmm15
 1287      007C24E8 
 1288 1a0e 66410FEB 		por	%xmm15, %xmm4
 1288      E7
 1289 1a13 66440F6F 		movdqa	%xmm2, %xmm15
 1289      FA
 1290 1a18 66450F38 		pshufb	%xmm13, %xmm15
 1290      00FD
 1291 1a1e 66440FF8 		psubb	%xmm3, %xmm13
 1291      EB
 1292 1a23 66440FDB 		pand	%xmm1, %xmm13
 1292      E9
 1293 1a28 66450FEB 		por	%xmm12, %xmm15
 1293      FC
 1294 1a2d 66440F7F 		movdqa	%xmm15, -24(%rsp)
 1294      7C24E8
 1295 1a34 66440F6F 		movdqa	.LC36(%rip), %xmm15
 1295      3D000000 
 1295      00
 1296 1a3d 66440F38 		pshufb	-24(%rsp), %xmm15
 1296      007C24E8 
 1297 1a45 66410FEB 		por	%xmm15, %xmm4
 1297      E7
 1298 1a4a 66440F6F 		movdqa	%xmm2, %xmm15
 1298      FA
 1299 1a4f 66450F38 		pshufb	%xmm13, %xmm15
 1299      00FD
 1300 1a55 66440FF8 		psubb	%xmm3, %xmm13
 1300      EB
 1301 1a5a 66440FDB 		pand	%xmm1, %xmm13
 1301      E9
 1302 1a5f 66450FEB 		por	%xmm12, %xmm15
 1302      FC
 1303 1a64 66440F7F 		movdqa	%xmm15, -24(%rsp)
 1303      7C24E8
 1304 1a6b 66440F6F 		movdqa	.LC37(%rip), %xmm15
 1304      3D000000 
 1304      00
 1305 1a74 66440F38 		pshufb	-24(%rsp), %xmm15
 1305      007C24E8 
 1306 1a7c 66410FEB 		por	%xmm15, %xmm4
 1306      E7
GAS LISTING /tmp/ccABNvJu.s 			page 87


 1307 1a81 66440F6F 		movdqa	%xmm2, %xmm15
 1307      FA
 1308 1a86 66450F38 		pshufb	%xmm13, %xmm15
 1308      00FD
 1309 1a8c 66440FF8 		psubb	%xmm3, %xmm13
 1309      EB
 1310 1a91 66440FDB 		pand	%xmm1, %xmm13
 1310      E9
 1311 1a96 66450FEB 		por	%xmm12, %xmm15
 1311      FC
 1312 1a9b 66440F7F 		movdqa	%xmm15, -24(%rsp)
 1312      7C24E8
 1313 1aa2 66440F6F 		movdqa	.LC38(%rip), %xmm15
 1313      3D000000 
 1313      00
 1314 1aab 66440F38 		pshufb	-24(%rsp), %xmm15
 1314      007C24E8 
 1315 1ab3 66410FEB 		por	%xmm15, %xmm4
 1315      E7
 1316 1ab8 66440F6F 		movdqa	%xmm2, %xmm15
 1316      FA
 1317 1abd 66450F38 		pshufb	%xmm13, %xmm15
 1317      00FD
 1318 1ac3 66440FF8 		psubb	%xmm3, %xmm13
 1318      EB
 1319 1ac8 66440FDB 		pand	%xmm1, %xmm13
 1319      E9
 1320 1acd 66450FEB 		por	%xmm12, %xmm15
 1320      FC
 1321 1ad2 66440F7F 		movdqa	%xmm15, -24(%rsp)
 1321      7C24E8
 1322 1ad9 66440F6F 		movdqa	.LC39(%rip), %xmm15
 1322      3D000000 
 1322      00
 1323 1ae2 66440F38 		pshufb	-24(%rsp), %xmm15
 1323      007C24E8 
 1324 1aea 66410FEB 		por	%xmm15, %xmm4
 1324      E7
 1325 1aef 66440F6F 		movdqa	%xmm2, %xmm15
 1325      FA
 1326 1af4 66450F38 		pshufb	%xmm13, %xmm15
 1326      00FD
 1327 1afa 66440FF8 		psubb	%xmm3, %xmm13
 1327      EB
 1328 1aff 66440FDB 		pand	%xmm1, %xmm13
 1328      E9
 1329 1b04 66450FEB 		por	%xmm12, %xmm15
 1329      FC
 1330 1b09 66440F7F 		movdqa	%xmm15, -24(%rsp)
 1330      7C24E8
 1331 1b10 66440F6F 		movdqa	.LC40(%rip), %xmm15
 1331      3D000000 
 1331      00
 1332 1b19 66440F38 		pshufb	-24(%rsp), %xmm15
 1332      007C24E8 
 1333 1b21 66410FEB 		por	%xmm15, %xmm4
 1333      E7
GAS LISTING /tmp/ccABNvJu.s 			page 88


 1334 1b26 66440F6F 		movdqa	%xmm2, %xmm15
 1334      FA
 1335 1b2b 66450F38 		pshufb	%xmm13, %xmm15
 1335      00FD
 1336 1b31 66440FF8 		psubb	%xmm3, %xmm13
 1336      EB
 1337 1b36 66440FDB 		pand	%xmm1, %xmm13
 1337      E9
 1338 1b3b 66450FEB 		por	%xmm12, %xmm15
 1338      FC
 1339 1b40 66440F7F 		movdqa	%xmm15, -24(%rsp)
 1339      7C24E8
 1340 1b47 66440F6F 		movdqa	.LC41(%rip), %xmm15
 1340      3D000000 
 1340      00
 1341 1b50 66440F38 		pshufb	-24(%rsp), %xmm15
 1341      007C24E8 
 1342 1b58 66410FEB 		por	%xmm15, %xmm4
 1342      E7
 1343 1b5d 66440F6F 		movdqa	%xmm2, %xmm15
 1343      FA
 1344 1b62 66450F38 		pshufb	%xmm13, %xmm15
 1344      00FD
 1345 1b68 66450F6F 		movdqa	%xmm15, %xmm13
 1345      EF
 1346 1b6d 66440F6F 		movdqa	%xmm0, %xmm15
 1346      F8
 1347 1b72 66450FEB 		por	%xmm12, %xmm13
 1347      EC
 1348 1b77 66440F6F 		movdqa	.LC42(%rip), %xmm12
 1348      25000000 
 1348      00
 1349 1b80 66450F38 		pshufb	%xmm13, %xmm12
 1349      00E5
 1350 1b86 66450F6F 		movdqa	%xmm12, %xmm13
 1350      EC
 1351 1b8b 66440FEB 		por	%xmm4, %xmm13
 1351      EC
 1352 1b90 660F6FE5 		movdqa	%xmm5, %xmm4
 1353 1b94 66410F38 		pshufb	%xmm9, %xmm4
 1353      00E1
 1354 1b9a 66440F38 		pshufb	.LC20(%rip), %xmm13
 1354      002D0000 
 1354      0000
 1355 1ba4 660FEFEC 		pxor	%xmm4, %xmm5
 1356 1ba8 66410F38 		pshufb	%xmm9, %xmm4
 1356      00E1
 1357 1bae 66450FEF 		pxor	%xmm14, %xmm13
 1357      EE
 1358 1bb3 66450F6F 		movdqa	%xmm10, %xmm14
 1358      F2
 1359 1bb8 66440F6F 		movdqa	%xmm4, %xmm12
 1359      E4
 1360 1bbd 660FEFEC 		pxor	%xmm4, %xmm5
 1361 1bc1 660F6FE2 		movdqa	%xmm2, %xmm4
 1362 1bc5 66450F38 		pshufb	%xmm9, %xmm12
 1362      00E1
GAS LISTING /tmp/ccABNvJu.s 			page 89


 1363 1bcb 66450F70 		pshufd	$255, %xmm13, %xmm13
 1363      EDFF
 1364 1bd1 66440F3A 		pinsrd	$3, %edx, %xmm14
 1364      22F203
 1365 1bd8 B240     		movb	$64, %dl
 1366 1bda 66410FEF 		pxor	%xmm12, %xmm5
 1366      EC
 1367 1bdf 66410FEF 		pxor	%xmm13, %xmm5
 1367      ED
 1368 1be4 66440F6F 		movdqa	%xmm5, %xmm13
 1368      ED
 1369 1be9 66440F6F 		movdqa	%xmm5, %xmm12
 1369      E5
 1370 1bee 66410F72 		psrld	$4, %xmm13
 1370      D504
 1371 1bf4 66440FDB 		pand	%xmm1, %xmm13
 1371      E9
 1372 1bf9 66440FDB 		pand	%xmm1, %xmm12
 1372      E1
 1373 1bfe 660F7F68 		movdqa	%xmm5, 80(%rax)
 1373      50
 1374 1c03 66410F38 		pshufb	%xmm13, %xmm4
 1374      00E5
 1375 1c09 66440FF8 		psubb	%xmm3, %xmm13
 1375      EB
 1376 1c0e 66440FDB 		pand	%xmm1, %xmm13
 1376      E9
 1377 1c13 66410FEB 		por	%xmm12, %xmm4
 1377      E4
 1378 1c18 66440F38 		pshufb	%xmm4, %xmm15
 1378      00FC
 1379 1c1e 66410F6F 		movdqa	%xmm15, %xmm4
 1379      E7
 1380 1c23 66450FEF 		pxor	%xmm15, %xmm15
 1380      FF
 1381 1c28 66410FEB 		por	%xmm15, %xmm4
 1381      E7
 1382 1c2d 66440F6F 		movdqa	%xmm2, %xmm15
 1382      FA
 1383 1c32 66450F38 		pshufb	%xmm13, %xmm15
 1383      00FD
 1384 1c38 66440FF8 		psubb	%xmm3, %xmm13
 1384      EB
 1385 1c3d 66440FDB 		pand	%xmm1, %xmm13
 1385      E9
 1386 1c42 66450FEB 		por	%xmm12, %xmm15
 1386      FC
 1387 1c47 66440F7F 		movdqa	%xmm15, -24(%rsp)
 1387      7C24E8
 1388 1c4e 66450F6F 		movdqa	%xmm11, %xmm15
 1388      FB
 1389 1c53 66440F38 		pshufb	-24(%rsp), %xmm15
 1389      007C24E8 
 1390 1c5b 66410FEB 		por	%xmm15, %xmm4
 1390      E7
 1391 1c60 66440F6F 		movdqa	%xmm2, %xmm15
 1391      FA
GAS LISTING /tmp/ccABNvJu.s 			page 90


 1392 1c65 66450F38 		pshufb	%xmm13, %xmm15
 1392      00FD
 1393 1c6b 66440FF8 		psubb	%xmm3, %xmm13
 1393      EB
 1394 1c70 66440FDB 		pand	%xmm1, %xmm13
 1394      E9
 1395 1c75 66450FEB 		por	%xmm12, %xmm15
 1395      FC
 1396 1c7a 66440F7F 		movdqa	%xmm15, -24(%rsp)
 1396      7C24E8
 1397 1c81 66440F6F 		movdqa	.LC29(%rip), %xmm15
 1397      3D000000 
 1397      00
 1398 1c8a 66440F38 		pshufb	-24(%rsp), %xmm15
 1398      007C24E8 
 1399 1c92 66410FEB 		por	%xmm15, %xmm4
 1399      E7
 1400 1c97 66440F6F 		movdqa	%xmm2, %xmm15
 1400      FA
 1401 1c9c 66450F38 		pshufb	%xmm13, %xmm15
 1401      00FD
 1402 1ca2 66440FF8 		psubb	%xmm3, %xmm13
 1402      EB
 1403 1ca7 66440FDB 		pand	%xmm1, %xmm13
 1403      E9
 1404 1cac 66450FEB 		por	%xmm12, %xmm15
 1404      FC
 1405 1cb1 66440F7F 		movdqa	%xmm15, -24(%rsp)
 1405      7C24E8
 1406 1cb8 66440F6F 		movdqa	.LC30(%rip), %xmm15
 1406      3D000000 
 1406      00
 1407 1cc1 66440F38 		pshufb	-24(%rsp), %xmm15
 1407      007C24E8 
 1408 1cc9 66410FEB 		por	%xmm15, %xmm4
 1408      E7
 1409 1cce 66440F6F 		movdqa	%xmm2, %xmm15
 1409      FA
 1410 1cd3 66450F38 		pshufb	%xmm13, %xmm15
 1410      00FD
 1411 1cd9 66440FF8 		psubb	%xmm3, %xmm13
 1411      EB
 1412 1cde 66440FDB 		pand	%xmm1, %xmm13
 1412      E9
 1413 1ce3 66450FEB 		por	%xmm12, %xmm15
 1413      FC
 1414 1ce8 66440F7F 		movdqa	%xmm15, -24(%rsp)
 1414      7C24E8
 1415 1cef 66450F6F 		movdqa	%xmm8, %xmm15
 1415      F8
 1416 1cf4 66440F38 		pshufb	-24(%rsp), %xmm15
 1416      007C24E8 
 1417 1cfc 66410FEB 		por	%xmm15, %xmm4
 1417      E7
 1418 1d01 66440F6F 		movdqa	%xmm2, %xmm15
 1418      FA
 1419 1d06 66450F38 		pshufb	%xmm13, %xmm15
GAS LISTING /tmp/ccABNvJu.s 			page 91


 1419      00FD
 1420 1d0c 66440FF8 		psubb	%xmm3, %xmm13
 1420      EB
 1421 1d11 66440FDB 		pand	%xmm1, %xmm13
 1421      E9
 1422 1d16 66450FEB 		por	%xmm12, %xmm15
 1422      FC
 1423 1d1b 66440F7F 		movdqa	%xmm15, -24(%rsp)
 1423      7C24E8
 1424 1d22 66440F6F 		movdqa	%xmm7, %xmm15
 1424      FF
 1425 1d27 66440F38 		pshufb	-24(%rsp), %xmm15
 1425      007C24E8 
 1426 1d2f 66410FEB 		por	%xmm15, %xmm4
 1426      E7
 1427 1d34 66440F6F 		movdqa	%xmm2, %xmm15
 1427      FA
 1428 1d39 66450F38 		pshufb	%xmm13, %xmm15
 1428      00FD
 1429 1d3f 66440FF8 		psubb	%xmm3, %xmm13
 1429      EB
 1430 1d44 66440FDB 		pand	%xmm1, %xmm13
 1430      E9
 1431 1d49 66450FEB 		por	%xmm12, %xmm15
 1431      FC
 1432 1d4e 66440F7F 		movdqa	%xmm15, -24(%rsp)
 1432      7C24E8
 1433 1d55 66440F6F 		movdqa	%xmm6, %xmm15
 1433      FE
 1434 1d5a 66440F38 		pshufb	-24(%rsp), %xmm15
 1434      007C24E8 
 1435 1d62 66410FEB 		por	%xmm15, %xmm4
 1435      E7
 1436 1d67 66440F6F 		movdqa	%xmm2, %xmm15
 1436      FA
 1437 1d6c 66450F38 		pshufb	%xmm13, %xmm15
 1437      00FD
 1438 1d72 66440FF8 		psubb	%xmm3, %xmm13
 1438      EB
 1439 1d77 66440FDB 		pand	%xmm1, %xmm13
 1439      E9
 1440 1d7c 66450FEB 		por	%xmm12, %xmm15
 1440      FC
 1441 1d81 66440F7F 		movdqa	%xmm15, -24(%rsp)
 1441      7C24E8
 1442 1d88 66440F6F 		movdqa	.LC34(%rip), %xmm15
 1442      3D000000 
 1442      00
 1443 1d91 66440F38 		pshufb	-24(%rsp), %xmm15
 1443      007C24E8 
 1444 1d99 66410FEB 		por	%xmm15, %xmm4
 1444      E7
 1445 1d9e 66440F6F 		movdqa	%xmm2, %xmm15
 1445      FA
 1446 1da3 66450F38 		pshufb	%xmm13, %xmm15
 1446      00FD
 1447 1da9 66440FF8 		psubb	%xmm3, %xmm13
GAS LISTING /tmp/ccABNvJu.s 			page 92


 1447      EB
 1448 1dae 66440FDB 		pand	%xmm1, %xmm13
 1448      E9
 1449 1db3 66450FEB 		por	%xmm12, %xmm15
 1449      FC
 1450 1db8 66440F7F 		movdqa	%xmm15, -24(%rsp)
 1450      7C24E8
 1451 1dbf 66440F6F 		movdqa	.LC35(%rip), %xmm15
 1451      3D000000 
 1451      00
 1452 1dc8 66440F38 		pshufb	-24(%rsp), %xmm15
 1452      007C24E8 
 1453 1dd0 66410FEB 		por	%xmm15, %xmm4
 1453      E7
 1454 1dd5 66440F6F 		movdqa	%xmm2, %xmm15
 1454      FA
 1455 1dda 66450F38 		pshufb	%xmm13, %xmm15
 1455      00FD
 1456 1de0 66440FF8 		psubb	%xmm3, %xmm13
 1456      EB
 1457 1de5 66440FDB 		pand	%xmm1, %xmm13
 1457      E9
 1458 1dea 66450FEB 		por	%xmm12, %xmm15
 1458      FC
 1459 1def 66440F7F 		movdqa	%xmm15, -24(%rsp)
 1459      7C24E8
 1460 1df6 66440F6F 		movdqa	.LC36(%rip), %xmm15
 1460      3D000000 
 1460      00
 1461 1dff 66440F38 		pshufb	-24(%rsp), %xmm15
 1461      007C24E8 
 1462 1e07 66410FEB 		por	%xmm15, %xmm4
 1462      E7
 1463 1e0c 66440F6F 		movdqa	%xmm2, %xmm15
 1463      FA
 1464 1e11 66450F38 		pshufb	%xmm13, %xmm15
 1464      00FD
 1465 1e17 66440FF8 		psubb	%xmm3, %xmm13
 1465      EB
 1466 1e1c 66440FDB 		pand	%xmm1, %xmm13
 1466      E9
 1467 1e21 66450FEB 		por	%xmm12, %xmm15
 1467      FC
 1468 1e26 66440F7F 		movdqa	%xmm15, -24(%rsp)
 1468      7C24E8
 1469 1e2d 66440F6F 		movdqa	.LC37(%rip), %xmm15
 1469      3D000000 
 1469      00
 1470 1e36 66440F38 		pshufb	-24(%rsp), %xmm15
 1470      007C24E8 
 1471 1e3e 66410FEB 		por	%xmm15, %xmm4
 1471      E7
 1472 1e43 66440F6F 		movdqa	%xmm2, %xmm15
 1472      FA
 1473 1e48 66450F38 		pshufb	%xmm13, %xmm15
 1473      00FD
 1474 1e4e 66440FF8 		psubb	%xmm3, %xmm13
GAS LISTING /tmp/ccABNvJu.s 			page 93


 1474      EB
 1475 1e53 66440FDB 		pand	%xmm1, %xmm13
 1475      E9
 1476 1e58 66450FEB 		por	%xmm12, %xmm15
 1476      FC
 1477 1e5d 66440F7F 		movdqa	%xmm15, -24(%rsp)
 1477      7C24E8
 1478 1e64 66440F6F 		movdqa	.LC38(%rip), %xmm15
 1478      3D000000 
 1478      00
 1479 1e6d 66440F38 		pshufb	-24(%rsp), %xmm15
 1479      007C24E8 
 1480 1e75 66410FEB 		por	%xmm15, %xmm4
 1480      E7
 1481 1e7a 66440F6F 		movdqa	%xmm2, %xmm15
 1481      FA
 1482 1e7f 66450F38 		pshufb	%xmm13, %xmm15
 1482      00FD
 1483 1e85 66440FF8 		psubb	%xmm3, %xmm13
 1483      EB
 1484 1e8a 66440FDB 		pand	%xmm1, %xmm13
 1484      E9
 1485 1e8f 66450FEB 		por	%xmm12, %xmm15
 1485      FC
 1486 1e94 66440F7F 		movdqa	%xmm15, -24(%rsp)
 1486      7C24E8
 1487 1e9b 66440F6F 		movdqa	.LC39(%rip), %xmm15
 1487      3D000000 
 1487      00
 1488 1ea4 66440F38 		pshufb	-24(%rsp), %xmm15
 1488      007C24E8 
 1489 1eac 66410FEB 		por	%xmm15, %xmm4
 1489      E7
 1490 1eb1 66440F6F 		movdqa	%xmm2, %xmm15
 1490      FA
 1491 1eb6 66450F38 		pshufb	%xmm13, %xmm15
 1491      00FD
 1492 1ebc 66440FF8 		psubb	%xmm3, %xmm13
 1492      EB
 1493 1ec1 66440FDB 		pand	%xmm1, %xmm13
 1493      E9
 1494 1ec6 66450FEB 		por	%xmm12, %xmm15
 1494      FC
 1495 1ecb 66440F7F 		movdqa	%xmm15, -24(%rsp)
 1495      7C24E8
 1496 1ed2 66440F6F 		movdqa	.LC40(%rip), %xmm15
 1496      3D000000 
 1496      00
 1497 1edb 66440F38 		pshufb	-24(%rsp), %xmm15
 1497      007C24E8 
 1498 1ee3 66410FEB 		por	%xmm15, %xmm4
 1498      E7
 1499 1ee8 66440F6F 		movdqa	%xmm2, %xmm15
 1499      FA
 1500 1eed 66450F38 		pshufb	%xmm13, %xmm15
 1500      00FD
 1501 1ef3 66440FF8 		psubb	%xmm3, %xmm13
GAS LISTING /tmp/ccABNvJu.s 			page 94


 1501      EB
 1502 1ef8 66440FDB 		pand	%xmm1, %xmm13
 1502      E9
 1503 1efd 66450FEB 		por	%xmm12, %xmm15
 1503      FC
 1504 1f02 66440F7F 		movdqa	%xmm15, -24(%rsp)
 1504      7C24E8
 1505 1f09 66440F6F 		movdqa	.LC41(%rip), %xmm15
 1505      3D000000 
 1505      00
 1506 1f12 66440F38 		pshufb	-24(%rsp), %xmm15
 1506      007C24E8 
 1507 1f1a 66410FEB 		por	%xmm15, %xmm4
 1507      E7
 1508 1f1f 66440F6F 		movdqa	%xmm2, %xmm15
 1508      FA
 1509 1f24 66450F38 		pshufb	%xmm13, %xmm15
 1509      00FD
 1510 1f2a 66450F6F 		movdqa	%xmm15, %xmm13
 1510      EF
 1511 1f2f 66440F6F 		movdqa	%xmm0, %xmm15
 1511      F8
 1512 1f34 66450FEB 		por	%xmm12, %xmm13
 1512      EC
 1513 1f39 66440F6F 		movdqa	.LC42(%rip), %xmm12
 1513      25000000 
 1513      00
 1514 1f42 66450F38 		pshufb	%xmm13, %xmm12
 1514      00E5
 1515 1f48 66450F6F 		movdqa	%xmm12, %xmm13
 1515      EC
 1516 1f4d 66440FEB 		por	%xmm4, %xmm13
 1516      EC
 1517 1f52 660F6FE5 		movdqa	%xmm5, %xmm4
 1518 1f56 66410F38 		pshufb	%xmm9, %xmm4
 1518      00E1
 1519 1f5c 66440F38 		pshufb	.LC20(%rip), %xmm13
 1519      002D0000 
 1519      0000
 1520 1f66 660FEFEC 		pxor	%xmm4, %xmm5
 1521 1f6a 66410F38 		pshufb	%xmm9, %xmm4
 1521      00E1
 1522 1f70 66450FEF 		pxor	%xmm14, %xmm13
 1522      EE
 1523 1f75 66450F6F 		movdqa	%xmm10, %xmm14
 1523      F2
 1524 1f7a 66440F6F 		movdqa	%xmm4, %xmm12
 1524      E4
 1525 1f7f 660FEFEC 		pxor	%xmm4, %xmm5
 1526 1f83 660F6FE2 		movdqa	%xmm2, %xmm4
 1527 1f87 66450F38 		pshufb	%xmm9, %xmm12
 1527      00E1
 1528 1f8d 66450F70 		pshufd	$255, %xmm13, %xmm13
 1528      EDFF
 1529 1f93 66440F3A 		pinsrd	$3, %edx, %xmm14
 1529      22F203
 1530 1f9a B280     		movb	$-128, %dl
GAS LISTING /tmp/ccABNvJu.s 			page 95


 1531 1f9c 66410FEF 		pxor	%xmm12, %xmm5
 1531      EC
 1532 1fa1 66410FEF 		pxor	%xmm13, %xmm5
 1532      ED
 1533 1fa6 66440F6F 		movdqa	%xmm5, %xmm13
 1533      ED
 1534 1fab 66440F6F 		movdqa	%xmm5, %xmm12
 1534      E5
 1535 1fb0 66410F72 		psrld	$4, %xmm13
 1535      D504
 1536 1fb6 66440FDB 		pand	%xmm1, %xmm13
 1536      E9
 1537 1fbb 66440FDB 		pand	%xmm1, %xmm12
 1537      E1
 1538 1fc0 660F7F68 		movdqa	%xmm5, 96(%rax)
 1538      60
 1539 1fc5 66410F38 		pshufb	%xmm13, %xmm4
 1539      00E5
 1540 1fcb 66440FF8 		psubb	%xmm3, %xmm13
 1540      EB
 1541 1fd0 66440FDB 		pand	%xmm1, %xmm13
 1541      E9
 1542 1fd5 66410FEB 		por	%xmm12, %xmm4
 1542      E4
 1543 1fda 66440F38 		pshufb	%xmm4, %xmm15
 1543      00FC
 1544 1fe0 66410F6F 		movdqa	%xmm15, %xmm4
 1544      E7
 1545 1fe5 66450FEF 		pxor	%xmm15, %xmm15
 1545      FF
 1546 1fea 66410FEB 		por	%xmm15, %xmm4
 1546      E7
 1547 1fef 66440F6F 		movdqa	%xmm2, %xmm15
 1547      FA
 1548 1ff4 66450F38 		pshufb	%xmm13, %xmm15
 1548      00FD
 1549 1ffa 66440FF8 		psubb	%xmm3, %xmm13
 1549      EB
 1550 1fff 66440FDB 		pand	%xmm1, %xmm13
 1550      E9
 1551 2004 66450FEB 		por	%xmm12, %xmm15
 1551      FC
 1552 2009 66440F7F 		movdqa	%xmm15, -24(%rsp)
 1552      7C24E8
 1553 2010 66450F6F 		movdqa	%xmm11, %xmm15
 1553      FB
 1554 2015 66440F38 		pshufb	-24(%rsp), %xmm15
 1554      007C24E8 
 1555 201d 66410FEB 		por	%xmm15, %xmm4
 1555      E7
 1556 2022 66440F6F 		movdqa	%xmm2, %xmm15
 1556      FA
 1557 2027 66450F38 		pshufb	%xmm13, %xmm15
 1557      00FD
 1558 202d 66440FF8 		psubb	%xmm3, %xmm13
 1558      EB
 1559 2032 66440FDB 		pand	%xmm1, %xmm13
GAS LISTING /tmp/ccABNvJu.s 			page 96


 1559      E9
 1560 2037 66450FEB 		por	%xmm12, %xmm15
 1560      FC
 1561 203c 66440F7F 		movdqa	%xmm15, -24(%rsp)
 1561      7C24E8
 1562 2043 66440F6F 		movdqa	.LC29(%rip), %xmm15
 1562      3D000000 
 1562      00
 1563 204c 66440F38 		pshufb	-24(%rsp), %xmm15
 1563      007C24E8 
 1564 2054 66410FEB 		por	%xmm15, %xmm4
 1564      E7
 1565 2059 66440F6F 		movdqa	%xmm2, %xmm15
 1565      FA
 1566 205e 66450F38 		pshufb	%xmm13, %xmm15
 1566      00FD
 1567 2064 66440FF8 		psubb	%xmm3, %xmm13
 1567      EB
 1568 2069 66440FDB 		pand	%xmm1, %xmm13
 1568      E9
 1569 206e 66450FEB 		por	%xmm12, %xmm15
 1569      FC
 1570 2073 66440F7F 		movdqa	%xmm15, -24(%rsp)
 1570      7C24E8
 1571 207a 66440F6F 		movdqa	.LC30(%rip), %xmm15
 1571      3D000000 
 1571      00
 1572 2083 66440F38 		pshufb	-24(%rsp), %xmm15
 1572      007C24E8 
 1573 208b 66410FEB 		por	%xmm15, %xmm4
 1573      E7
 1574 2090 66440F6F 		movdqa	%xmm2, %xmm15
 1574      FA
 1575 2095 66450F38 		pshufb	%xmm13, %xmm15
 1575      00FD
 1576 209b 66440FF8 		psubb	%xmm3, %xmm13
 1576      EB
 1577 20a0 66440FDB 		pand	%xmm1, %xmm13
 1577      E9
 1578 20a5 66450FEB 		por	%xmm12, %xmm15
 1578      FC
 1579 20aa 66440F7F 		movdqa	%xmm15, -24(%rsp)
 1579      7C24E8
 1580 20b1 66450F6F 		movdqa	%xmm8, %xmm15
 1580      F8
 1581 20b6 66440F38 		pshufb	-24(%rsp), %xmm15
 1581      007C24E8 
 1582 20be 66410FEB 		por	%xmm15, %xmm4
 1582      E7
 1583 20c3 66440F6F 		movdqa	%xmm2, %xmm15
 1583      FA
 1584 20c8 66450F38 		pshufb	%xmm13, %xmm15
 1584      00FD
 1585 20ce 66440FF8 		psubb	%xmm3, %xmm13
 1585      EB
 1586 20d3 66440FDB 		pand	%xmm1, %xmm13
 1586      E9
GAS LISTING /tmp/ccABNvJu.s 			page 97


 1587 20d8 66450FEB 		por	%xmm12, %xmm15
 1587      FC
 1588 20dd 66440F7F 		movdqa	%xmm15, -24(%rsp)
 1588      7C24E8
 1589 20e4 66440F6F 		movdqa	%xmm7, %xmm15
 1589      FF
 1590 20e9 66440F38 		pshufb	-24(%rsp), %xmm15
 1590      007C24E8 
 1591 20f1 66410FEB 		por	%xmm15, %xmm4
 1591      E7
 1592 20f6 66440F6F 		movdqa	%xmm2, %xmm15
 1592      FA
 1593 20fb 66450F38 		pshufb	%xmm13, %xmm15
 1593      00FD
 1594 2101 66440FF8 		psubb	%xmm3, %xmm13
 1594      EB
 1595 2106 66440FDB 		pand	%xmm1, %xmm13
 1595      E9
 1596 210b 66450FEB 		por	%xmm12, %xmm15
 1596      FC
 1597 2110 66440F7F 		movdqa	%xmm15, -24(%rsp)
 1597      7C24E8
 1598 2117 66440F6F 		movdqa	%xmm6, %xmm15
 1598      FE
 1599 211c 66440F38 		pshufb	-24(%rsp), %xmm15
 1599      007C24E8 
 1600 2124 66410FEB 		por	%xmm15, %xmm4
 1600      E7
 1601 2129 66440F6F 		movdqa	%xmm2, %xmm15
 1601      FA
 1602 212e 66450F38 		pshufb	%xmm13, %xmm15
 1602      00FD
 1603 2134 66440FF8 		psubb	%xmm3, %xmm13
 1603      EB
 1604 2139 66440FDB 		pand	%xmm1, %xmm13
 1604      E9
 1605 213e 66450FEB 		por	%xmm12, %xmm15
 1605      FC
 1606 2143 66440F7F 		movdqa	%xmm15, -24(%rsp)
 1606      7C24E8
 1607 214a 66440F6F 		movdqa	.LC34(%rip), %xmm15
 1607      3D000000 
 1607      00
 1608 2153 66440F38 		pshufb	-24(%rsp), %xmm15
 1608      007C24E8 
 1609 215b 66410FEB 		por	%xmm15, %xmm4
 1609      E7
 1610 2160 66440F6F 		movdqa	%xmm2, %xmm15
 1610      FA
 1611 2165 66450F38 		pshufb	%xmm13, %xmm15
 1611      00FD
 1612 216b 66440FF8 		psubb	%xmm3, %xmm13
 1612      EB
 1613 2170 66440FDB 		pand	%xmm1, %xmm13
 1613      E9
 1614 2175 66450FEB 		por	%xmm12, %xmm15
 1614      FC
GAS LISTING /tmp/ccABNvJu.s 			page 98


 1615 217a 66440F7F 		movdqa	%xmm15, -24(%rsp)
 1615      7C24E8
 1616 2181 66440F6F 		movdqa	.LC35(%rip), %xmm15
 1616      3D000000 
 1616      00
 1617 218a 66440F38 		pshufb	-24(%rsp), %xmm15
 1617      007C24E8 
 1618 2192 66410FEB 		por	%xmm15, %xmm4
 1618      E7
 1619 2197 66440F6F 		movdqa	%xmm2, %xmm15
 1619      FA
 1620 219c 66450F38 		pshufb	%xmm13, %xmm15
 1620      00FD
 1621 21a2 66440FF8 		psubb	%xmm3, %xmm13
 1621      EB
 1622 21a7 66440FDB 		pand	%xmm1, %xmm13
 1622      E9
 1623 21ac 66450FEB 		por	%xmm12, %xmm15
 1623      FC
 1624 21b1 66440F7F 		movdqa	%xmm15, -24(%rsp)
 1624      7C24E8
 1625 21b8 66440F6F 		movdqa	.LC36(%rip), %xmm15
 1625      3D000000 
 1625      00
 1626 21c1 66440F38 		pshufb	-24(%rsp), %xmm15
 1626      007C24E8 
 1627 21c9 66410FEB 		por	%xmm15, %xmm4
 1627      E7
 1628 21ce 66440F6F 		movdqa	%xmm2, %xmm15
 1628      FA
 1629 21d3 66450F38 		pshufb	%xmm13, %xmm15
 1629      00FD
 1630 21d9 66440FF8 		psubb	%xmm3, %xmm13
 1630      EB
 1631 21de 66440FDB 		pand	%xmm1, %xmm13
 1631      E9
 1632 21e3 66450FEB 		por	%xmm12, %xmm15
 1632      FC
 1633 21e8 66440F7F 		movdqa	%xmm15, -24(%rsp)
 1633      7C24E8
 1634 21ef 66440F6F 		movdqa	.LC37(%rip), %xmm15
 1634      3D000000 
 1634      00
 1635 21f8 66440F38 		pshufb	-24(%rsp), %xmm15
 1635      007C24E8 
 1636 2200 66410FEB 		por	%xmm15, %xmm4
 1636      E7
 1637 2205 66440F6F 		movdqa	%xmm2, %xmm15
 1637      FA
 1638 220a 66450F38 		pshufb	%xmm13, %xmm15
 1638      00FD
 1639 2210 66440FF8 		psubb	%xmm3, %xmm13
 1639      EB
 1640 2215 66440FDB 		pand	%xmm1, %xmm13
 1640      E9
 1641 221a 66450FEB 		por	%xmm12, %xmm15
 1641      FC
GAS LISTING /tmp/ccABNvJu.s 			page 99


 1642 221f 66440F7F 		movdqa	%xmm15, -24(%rsp)
 1642      7C24E8
 1643 2226 66440F6F 		movdqa	.LC38(%rip), %xmm15
 1643      3D000000 
 1643      00
 1644 222f 66440F38 		pshufb	-24(%rsp), %xmm15
 1644      007C24E8 
 1645 2237 66410FEB 		por	%xmm15, %xmm4
 1645      E7
 1646 223c 66440F6F 		movdqa	%xmm2, %xmm15
 1646      FA
 1647 2241 66450F38 		pshufb	%xmm13, %xmm15
 1647      00FD
 1648 2247 66440FF8 		psubb	%xmm3, %xmm13
 1648      EB
 1649 224c 66440FDB 		pand	%xmm1, %xmm13
 1649      E9
 1650 2251 66450FEB 		por	%xmm12, %xmm15
 1650      FC
 1651 2256 66440F7F 		movdqa	%xmm15, -24(%rsp)
 1651      7C24E8
 1652 225d 66440F6F 		movdqa	.LC39(%rip), %xmm15
 1652      3D000000 
 1652      00
 1653 2266 66440F38 		pshufb	-24(%rsp), %xmm15
 1653      007C24E8 
 1654 226e 66410FEB 		por	%xmm15, %xmm4
 1654      E7
 1655 2273 66440F6F 		movdqa	%xmm2, %xmm15
 1655      FA
 1656 2278 66450F38 		pshufb	%xmm13, %xmm15
 1656      00FD
 1657 227e 66440FF8 		psubb	%xmm3, %xmm13
 1657      EB
 1658 2283 66440FDB 		pand	%xmm1, %xmm13
 1658      E9
 1659 2288 66450FEB 		por	%xmm12, %xmm15
 1659      FC
 1660 228d 66440F7F 		movdqa	%xmm15, -24(%rsp)
 1660      7C24E8
 1661 2294 66440F6F 		movdqa	.LC40(%rip), %xmm15
 1661      3D000000 
 1661      00
 1662 229d 66440F38 		pshufb	-24(%rsp), %xmm15
 1662      007C24E8 
 1663 22a5 66410FEB 		por	%xmm15, %xmm4
 1663      E7
 1664 22aa 66440F6F 		movdqa	%xmm2, %xmm15
 1664      FA
 1665 22af 66450F38 		pshufb	%xmm13, %xmm15
 1665      00FD
 1666 22b5 66440FF8 		psubb	%xmm3, %xmm13
 1666      EB
 1667 22ba 66440FDB 		pand	%xmm1, %xmm13
 1667      E9
 1668 22bf 66450FEB 		por	%xmm12, %xmm15
 1668      FC
GAS LISTING /tmp/ccABNvJu.s 			page 100


 1669 22c4 66440F7F 		movdqa	%xmm15, -24(%rsp)
 1669      7C24E8
 1670 22cb 66440F6F 		movdqa	.LC41(%rip), %xmm15
 1670      3D000000 
 1670      00
 1671 22d4 66440F38 		pshufb	-24(%rsp), %xmm15
 1671      007C24E8 
 1672 22dc 66410FEB 		por	%xmm15, %xmm4
 1672      E7
 1673 22e1 66440F6F 		movdqa	%xmm2, %xmm15
 1673      FA
 1674 22e6 66450F38 		pshufb	%xmm13, %xmm15
 1674      00FD
 1675 22ec 66450F6F 		movdqa	%xmm15, %xmm13
 1675      EF
 1676 22f1 66440F6F 		movdqa	%xmm0, %xmm15
 1676      F8
 1677 22f6 66450FEB 		por	%xmm12, %xmm13
 1677      EC
 1678 22fb 66440F6F 		movdqa	.LC42(%rip), %xmm12
 1678      25000000 
 1678      00
 1679 2304 66450F38 		pshufb	%xmm13, %xmm12
 1679      00E5
 1680 230a 66450F6F 		movdqa	%xmm12, %xmm13
 1680      EC
 1681 230f 66440FEB 		por	%xmm4, %xmm13
 1681      EC
 1682 2314 660F6FE5 		movdqa	%xmm5, %xmm4
 1683 2318 66410F38 		pshufb	%xmm9, %xmm4
 1683      00E1
 1684 231e 66440F38 		pshufb	.LC20(%rip), %xmm13
 1684      002D0000 
 1684      0000
 1685 2328 660FEFEC 		pxor	%xmm4, %xmm5
 1686 232c 66410F38 		pshufb	%xmm9, %xmm4
 1686      00E1
 1687 2332 66450FEF 		pxor	%xmm14, %xmm13
 1687      EE
 1688 2337 66450F6F 		movdqa	%xmm10, %xmm14
 1688      F2
 1689 233c 66440F6F 		movdqa	%xmm4, %xmm12
 1689      E4
 1690 2341 660FEFEC 		pxor	%xmm4, %xmm5
 1691 2345 660F6FE2 		movdqa	%xmm2, %xmm4
 1692 2349 66450F38 		pshufb	%xmm9, %xmm12
 1692      00E1
 1693 234f 66450F70 		pshufd	$255, %xmm13, %xmm13
 1693      EDFF
 1694 2355 66440F3A 		pinsrd	$3, %edx, %xmm14
 1694      22F203
 1695 235c B21B     		movb	$27, %dl
 1696 235e 66410FEF 		pxor	%xmm12, %xmm5
 1696      EC
 1697 2363 66440F3A 		pinsrd	$3, %edx, %xmm10
 1697      22D203
 1698 236a B236     		movb	$54, %dl
GAS LISTING /tmp/ccABNvJu.s 			page 101


 1699 236c 66410FEF 		pxor	%xmm13, %xmm5
 1699      ED
 1700 2371 66440F6F 		movdqa	%xmm5, %xmm13
 1700      ED
 1701 2376 66440F6F 		movdqa	%xmm5, %xmm12
 1701      E5
 1702 237b 66410F72 		psrld	$4, %xmm13
 1702      D504
 1703 2381 66440FDB 		pand	%xmm1, %xmm13
 1703      E9
 1704 2386 66440FDB 		pand	%xmm1, %xmm12
 1704      E1
 1705 238b 660F7F68 		movdqa	%xmm5, 112(%rax)
 1705      70
 1706 2390 66410F38 		pshufb	%xmm13, %xmm4
 1706      00E5
 1707 2396 66440FF8 		psubb	%xmm3, %xmm13
 1707      EB
 1708 239b 66440FDB 		pand	%xmm1, %xmm13
 1708      E9
 1709 23a0 66410FEB 		por	%xmm12, %xmm4
 1709      E4
 1710 23a5 66440F38 		pshufb	%xmm4, %xmm15
 1710      00FC
 1711 23ab 66410F6F 		movdqa	%xmm15, %xmm4
 1711      E7
 1712 23b0 66450FEF 		pxor	%xmm15, %xmm15
 1712      FF
 1713 23b5 66410FEB 		por	%xmm15, %xmm4
 1713      E7
 1714 23ba 66440F6F 		movdqa	%xmm2, %xmm15
 1714      FA
 1715 23bf 66450F38 		pshufb	%xmm13, %xmm15
 1715      00FD
 1716 23c5 66440FF8 		psubb	%xmm3, %xmm13
 1716      EB
 1717 23ca 66440FDB 		pand	%xmm1, %xmm13
 1717      E9
 1718 23cf 66450FEB 		por	%xmm12, %xmm15
 1718      FC
 1719 23d4 66440F7F 		movdqa	%xmm15, -24(%rsp)
 1719      7C24E8
 1720 23db 66450F6F 		movdqa	%xmm11, %xmm15
 1720      FB
 1721 23e0 66440F38 		pshufb	-24(%rsp), %xmm15
 1721      007C24E8 
 1722 23e8 66410FEB 		por	%xmm15, %xmm4
 1722      E7
 1723 23ed 66440F6F 		movdqa	%xmm2, %xmm15
 1723      FA
 1724 23f2 66450F38 		pshufb	%xmm13, %xmm15
 1724      00FD
 1725 23f8 66440FF8 		psubb	%xmm3, %xmm13
 1725      EB
 1726 23fd 66440FDB 		pand	%xmm1, %xmm13
 1726      E9
 1727 2402 66450FEB 		por	%xmm12, %xmm15
GAS LISTING /tmp/ccABNvJu.s 			page 102


 1727      FC
 1728 2407 66440F7F 		movdqa	%xmm15, -24(%rsp)
 1728      7C24E8
 1729 240e 66440F6F 		movdqa	.LC29(%rip), %xmm15
 1729      3D000000 
 1729      00
 1730 2417 66440F38 		pshufb	-24(%rsp), %xmm15
 1730      007C24E8 
 1731 241f 66410FEB 		por	%xmm15, %xmm4
 1731      E7
 1732 2424 66440F6F 		movdqa	%xmm2, %xmm15
 1732      FA
 1733 2429 66450F38 		pshufb	%xmm13, %xmm15
 1733      00FD
 1734 242f 66440FF8 		psubb	%xmm3, %xmm13
 1734      EB
 1735 2434 66440FDB 		pand	%xmm1, %xmm13
 1735      E9
 1736 2439 66450FEB 		por	%xmm12, %xmm15
 1736      FC
 1737 243e 66440F7F 		movdqa	%xmm15, -24(%rsp)
 1737      7C24E8
 1738 2445 66440F6F 		movdqa	.LC30(%rip), %xmm15
 1738      3D000000 
 1738      00
 1739 244e 66440F38 		pshufb	-24(%rsp), %xmm15
 1739      007C24E8 
 1740 2456 66410FEB 		por	%xmm15, %xmm4
 1740      E7
 1741 245b 66440F6F 		movdqa	%xmm2, %xmm15
 1741      FA
 1742 2460 66450F38 		pshufb	%xmm13, %xmm15
 1742      00FD
 1743 2466 66440FF8 		psubb	%xmm3, %xmm13
 1743      EB
 1744 246b 66440FDB 		pand	%xmm1, %xmm13
 1744      E9
 1745 2470 66450FEB 		por	%xmm12, %xmm15
 1745      FC
 1746 2475 66440F7F 		movdqa	%xmm15, -24(%rsp)
 1746      7C24E8
 1747 247c 66450F6F 		movdqa	%xmm8, %xmm15
 1747      F8
 1748 2481 66440F38 		pshufb	-24(%rsp), %xmm15
 1748      007C24E8 
 1749 2489 66410FEB 		por	%xmm15, %xmm4
 1749      E7
 1750 248e 66440F6F 		movdqa	%xmm2, %xmm15
 1750      FA
 1751 2493 66450F38 		pshufb	%xmm13, %xmm15
 1751      00FD
 1752 2499 66440FF8 		psubb	%xmm3, %xmm13
 1752      EB
 1753 249e 66440FDB 		pand	%xmm1, %xmm13
 1753      E9
 1754 24a3 66450FEB 		por	%xmm12, %xmm15
 1754      FC
GAS LISTING /tmp/ccABNvJu.s 			page 103


 1755 24a8 66440F7F 		movdqa	%xmm15, -24(%rsp)
 1755      7C24E8
 1756 24af 66440F6F 		movdqa	%xmm7, %xmm15
 1756      FF
 1757 24b4 66440F38 		pshufb	-24(%rsp), %xmm15
 1757      007C24E8 
 1758 24bc 66410FEB 		por	%xmm15, %xmm4
 1758      E7
 1759 24c1 66440F6F 		movdqa	%xmm2, %xmm15
 1759      FA
 1760 24c6 66450F38 		pshufb	%xmm13, %xmm15
 1760      00FD
 1761 24cc 66440FF8 		psubb	%xmm3, %xmm13
 1761      EB
 1762 24d1 66440FDB 		pand	%xmm1, %xmm13
 1762      E9
 1763 24d6 66450FEB 		por	%xmm12, %xmm15
 1763      FC
 1764 24db 66440F7F 		movdqa	%xmm15, -24(%rsp)
 1764      7C24E8
 1765 24e2 66440F6F 		movdqa	%xmm6, %xmm15
 1765      FE
 1766 24e7 66440F38 		pshufb	-24(%rsp), %xmm15
 1766      007C24E8 
 1767 24ef 66410FEB 		por	%xmm15, %xmm4
 1767      E7
 1768 24f4 66440F6F 		movdqa	%xmm2, %xmm15
 1768      FA
 1769 24f9 66450F38 		pshufb	%xmm13, %xmm15
 1769      00FD
 1770 24ff 66440FF8 		psubb	%xmm3, %xmm13
 1770      EB
 1771 2504 66440FDB 		pand	%xmm1, %xmm13
 1771      E9
 1772 2509 66450FEB 		por	%xmm12, %xmm15
 1772      FC
 1773 250e 66440F7F 		movdqa	%xmm15, -24(%rsp)
 1773      7C24E8
 1774 2515 66440F6F 		movdqa	.LC34(%rip), %xmm15
 1774      3D000000 
 1774      00
 1775 251e 66440F38 		pshufb	-24(%rsp), %xmm15
 1775      007C24E8 
 1776 2526 66410FEB 		por	%xmm15, %xmm4
 1776      E7
 1777 252b 66440F6F 		movdqa	%xmm2, %xmm15
 1777      FA
 1778 2530 66450F38 		pshufb	%xmm13, %xmm15
 1778      00FD
 1779 2536 66440FF8 		psubb	%xmm3, %xmm13
 1779      EB
 1780 253b 66440FDB 		pand	%xmm1, %xmm13
 1780      E9
 1781 2540 66450FEB 		por	%xmm12, %xmm15
 1781      FC
 1782 2545 66440F7F 		movdqa	%xmm15, -24(%rsp)
 1782      7C24E8
GAS LISTING /tmp/ccABNvJu.s 			page 104


 1783 254c 66440F6F 		movdqa	.LC35(%rip), %xmm15
 1783      3D000000 
 1783      00
 1784 2555 66440F38 		pshufb	-24(%rsp), %xmm15
 1784      007C24E8 
 1785 255d 66410FEB 		por	%xmm15, %xmm4
 1785      E7
 1786 2562 66440F6F 		movdqa	%xmm2, %xmm15
 1786      FA
 1787 2567 66450F38 		pshufb	%xmm13, %xmm15
 1787      00FD
 1788 256d 66440FF8 		psubb	%xmm3, %xmm13
 1788      EB
 1789 2572 66440FDB 		pand	%xmm1, %xmm13
 1789      E9
 1790 2577 66450FEB 		por	%xmm12, %xmm15
 1790      FC
 1791 257c 66440F7F 		movdqa	%xmm15, -24(%rsp)
 1791      7C24E8
 1792 2583 66440F6F 		movdqa	.LC36(%rip), %xmm15
 1792      3D000000 
 1792      00
 1793 258c 66440F38 		pshufb	-24(%rsp), %xmm15
 1793      007C24E8 
 1794 2594 66410FEB 		por	%xmm15, %xmm4
 1794      E7
 1795 2599 66440F6F 		movdqa	%xmm2, %xmm15
 1795      FA
 1796 259e 66450F38 		pshufb	%xmm13, %xmm15
 1796      00FD
 1797 25a4 66440FF8 		psubb	%xmm3, %xmm13
 1797      EB
 1798 25a9 66440FDB 		pand	%xmm1, %xmm13
 1798      E9
 1799 25ae 66450FEB 		por	%xmm12, %xmm15
 1799      FC
 1800 25b3 66440F7F 		movdqa	%xmm15, -24(%rsp)
 1800      7C24E8
 1801 25ba 66440F6F 		movdqa	.LC37(%rip), %xmm15
 1801      3D000000 
 1801      00
 1802 25c3 66440F38 		pshufb	-24(%rsp), %xmm15
 1802      007C24E8 
 1803 25cb 66410FEB 		por	%xmm15, %xmm4
 1803      E7
 1804 25d0 66440F6F 		movdqa	%xmm2, %xmm15
 1804      FA
 1805 25d5 66450F38 		pshufb	%xmm13, %xmm15
 1805      00FD
 1806 25db 66440FF8 		psubb	%xmm3, %xmm13
 1806      EB
 1807 25e0 66440FDB 		pand	%xmm1, %xmm13
 1807      E9
 1808 25e5 66450FEB 		por	%xmm12, %xmm15
 1808      FC
 1809 25ea 66440F7F 		movdqa	%xmm15, -24(%rsp)
 1809      7C24E8
GAS LISTING /tmp/ccABNvJu.s 			page 105


 1810 25f1 66440F6F 		movdqa	.LC38(%rip), %xmm15
 1810      3D000000 
 1810      00
 1811 25fa 66440F38 		pshufb	-24(%rsp), %xmm15
 1811      007C24E8 
 1812 2602 66410FEB 		por	%xmm15, %xmm4
 1812      E7
 1813 2607 66440F6F 		movdqa	%xmm2, %xmm15
 1813      FA
 1814 260c 66450F38 		pshufb	%xmm13, %xmm15
 1814      00FD
 1815 2612 66440FF8 		psubb	%xmm3, %xmm13
 1815      EB
 1816 2617 66440FDB 		pand	%xmm1, %xmm13
 1816      E9
 1817 261c 66450FEB 		por	%xmm12, %xmm15
 1817      FC
 1818 2621 66440F7F 		movdqa	%xmm15, -24(%rsp)
 1818      7C24E8
 1819 2628 66440F6F 		movdqa	.LC39(%rip), %xmm15
 1819      3D000000 
 1819      00
 1820 2631 66440F38 		pshufb	-24(%rsp), %xmm15
 1820      007C24E8 
 1821 2639 66410FEB 		por	%xmm15, %xmm4
 1821      E7
 1822 263e 66440F6F 		movdqa	%xmm2, %xmm15
 1822      FA
 1823 2643 66450F38 		pshufb	%xmm13, %xmm15
 1823      00FD
 1824 2649 66440FF8 		psubb	%xmm3, %xmm13
 1824      EB
 1825 264e 66440FDB 		pand	%xmm1, %xmm13
 1825      E9
 1826 2653 66450FEB 		por	%xmm12, %xmm15
 1826      FC
 1827 2658 66440F7F 		movdqa	%xmm15, -24(%rsp)
 1827      7C24E8
 1828 265f 66440F6F 		movdqa	.LC40(%rip), %xmm15
 1828      3D000000 
 1828      00
 1829 2668 66440F38 		pshufb	-24(%rsp), %xmm15
 1829      007C24E8 
 1830 2670 66410FEB 		por	%xmm15, %xmm4
 1830      E7
 1831 2675 66440F6F 		movdqa	%xmm2, %xmm15
 1831      FA
 1832 267a 66450F38 		pshufb	%xmm13, %xmm15
 1832      00FD
 1833 2680 66440FF8 		psubb	%xmm3, %xmm13
 1833      EB
 1834 2685 66440FDB 		pand	%xmm1, %xmm13
 1834      E9
 1835 268a 66450FEB 		por	%xmm12, %xmm15
 1835      FC
 1836 268f 66440F7F 		movdqa	%xmm15, -24(%rsp)
 1836      7C24E8
GAS LISTING /tmp/ccABNvJu.s 			page 106


 1837 2696 66440F6F 		movdqa	.LC41(%rip), %xmm15
 1837      3D000000 
 1837      00
 1838 269f 66440F38 		pshufb	-24(%rsp), %xmm15
 1838      007C24E8 
 1839 26a7 66410FEB 		por	%xmm15, %xmm4
 1839      E7
 1840 26ac 66440F6F 		movdqa	%xmm2, %xmm15
 1840      FA
 1841 26b1 66450F38 		pshufb	%xmm13, %xmm15
 1841      00FD
 1842 26b7 66450F6F 		movdqa	%xmm15, %xmm13
 1842      EF
 1843 26bc 66450FEF 		pxor	%xmm15, %xmm15
 1843      FF
 1844 26c1 66450FEB 		por	%xmm12, %xmm13
 1844      EC
 1845 26c6 66440F6F 		movdqa	.LC42(%rip), %xmm12
 1845      25000000 
 1845      00
 1846 26cf 66450F38 		pshufb	%xmm13, %xmm12
 1846      00E5
 1847 26d5 66450F6F 		movdqa	%xmm12, %xmm13
 1847      EC
 1848 26da 66440F6F 		movdqa	%xmm2, %xmm12
 1848      E2
 1849 26df 66440FEB 		por	%xmm4, %xmm13
 1849      EC
 1850 26e4 660F6FE5 		movdqa	%xmm5, %xmm4
 1851 26e8 66410F38 		pshufb	%xmm9, %xmm4
 1851      00E1
 1852 26ee 66440F38 		pshufb	.LC20(%rip), %xmm13
 1852      002D0000 
 1852      0000
 1853 26f8 660FEFEC 		pxor	%xmm4, %xmm5
 1854 26fc 66410F38 		pshufb	%xmm9, %xmm4
 1854      00E1
 1855 2702 66450FEF 		pxor	%xmm14, %xmm13
 1855      EE
 1856 2707 66440F6F 		movdqa	%xmm4, %xmm14
 1856      F4
 1857 270c 660FEFEC 		pxor	%xmm4, %xmm5
 1858 2710 66450F38 		pshufb	%xmm9, %xmm14
 1858      00F1
 1859 2716 66450F70 		pshufd	$255, %xmm13, %xmm13
 1859      EDFF
 1860 271c 66410FEF 		pxor	%xmm14, %xmm5
 1860      EE
 1861 2721 66440F6F 		movdqa	.LC30(%rip), %xmm14
 1861      35000000 
 1861      00
 1862 272a 66410FEF 		pxor	%xmm13, %xmm5
 1862      ED
 1863 272f 66440F6F 		movdqa	.LC36(%rip), %xmm13
 1863      2D000000 
 1863      00
 1864 2738 660F6FE5 		movdqa	%xmm5, %xmm4
GAS LISTING /tmp/ccABNvJu.s 			page 107


 1865 273c 66440F6F 		movdqa	%xmm5, %xmm9
 1865      CD
 1866 2741 660F72D4 		psrld	$4, %xmm4
 1866      04
 1867 2746 660FDBE1 		pand	%xmm1, %xmm4
 1868 274a 66440FDB 		pand	%xmm1, %xmm9
 1868      C9
 1869 274f 660F7FA8 		movdqa	%xmm5, 128(%rax)
 1869      80000000 
 1870 2757 66440F38 		pshufb	%xmm4, %xmm12
 1870      00E4
 1871 275d 660FF8E3 		psubb	%xmm3, %xmm4
 1872 2761 660FDBE1 		pand	%xmm1, %xmm4
 1873 2765 66450FEB 		por	%xmm9, %xmm12
 1873      E1
 1874 276a 66410F38 		pshufb	%xmm12, %xmm0
 1874      00C4
 1875 2770 66440F6F 		movdqa	%xmm2, %xmm12
 1875      E2
 1876 2775 66440F38 		pshufb	%xmm4, %xmm12
 1876      00E4
 1877 277b 660FF8E3 		psubb	%xmm3, %xmm4
 1878 277f 66410FEB 		por	%xmm15, %xmm0
 1878      C7
 1879 2784 66450F6F 		movdqa	%xmm8, %xmm15
 1879      F8
 1880 2789 660FDBE1 		pand	%xmm1, %xmm4
 1881 278d 66450FEB 		por	%xmm9, %xmm12
 1881      E1
 1882 2792 66450F38 		pshufb	%xmm12, %xmm11
 1882      00DC
 1883 2798 66440F6F 		movdqa	.LC29(%rip), %xmm12
 1883      25000000 
 1883      00
 1884 27a1 66410FEB 		por	%xmm11, %xmm0
 1884      C3
 1885 27a6 66440F6F 		movdqa	%xmm2, %xmm11
 1885      DA
 1886 27ab 66440F38 		pshufb	%xmm4, %xmm11
 1886      00DC
 1887 27b1 660FF8E3 		psubb	%xmm3, %xmm4
 1888 27b5 660FDBE1 		pand	%xmm1, %xmm4
 1889 27b9 66450FEB 		por	%xmm9, %xmm11
 1889      D9
 1890 27be 66450F38 		pshufb	%xmm11, %xmm12
 1890      00E3
 1891 27c4 66440F6F 		movdqa	%xmm2, %xmm11
 1891      DA
 1892 27c9 66440F38 		pshufb	%xmm4, %xmm11
 1892      00DC
 1893 27cf 660FF8E3 		psubb	%xmm3, %xmm4
 1894 27d3 660FDBE1 		pand	%xmm1, %xmm4
 1895 27d7 66410FEB 		por	%xmm12, %xmm0
 1895      C4
 1896 27dc 66440F6F 		movdqa	%xmm7, %xmm12
 1896      E7
 1897 27e1 66450FEB 		por	%xmm9, %xmm11
GAS LISTING /tmp/ccABNvJu.s 			page 108


 1897      D9
 1898 27e6 66450F38 		pshufb	%xmm11, %xmm14
 1898      00F3
 1899 27ec 66440F6F 		movdqa	%xmm2, %xmm11
 1899      DA
 1900 27f1 66440F38 		pshufb	%xmm4, %xmm11
 1900      00DC
 1901 27f7 660FF8E3 		psubb	%xmm3, %xmm4
 1902 27fb 660FDBE1 		pand	%xmm1, %xmm4
 1903 27ff 66410FEB 		por	%xmm14, %xmm0
 1903      C6
 1904 2804 66440F6F 		movdqa	%xmm6, %xmm14
 1904      F6
 1905 2809 66450FEB 		por	%xmm9, %xmm11
 1905      D9
 1906 280e 66450F38 		pshufb	%xmm11, %xmm15
 1906      00FB
 1907 2814 66440F6F 		movdqa	%xmm2, %xmm11
 1907      DA
 1908 2819 66440F38 		pshufb	%xmm4, %xmm11
 1908      00DC
 1909 281f 660FF8E3 		psubb	%xmm3, %xmm4
 1910 2823 660FDBE1 		pand	%xmm1, %xmm4
 1911 2827 66410FEB 		por	%xmm15, %xmm0
 1911      C7
 1912 282c 66440F6F 		movdqa	.LC34(%rip), %xmm15
 1912      3D000000 
 1912      00
 1913 2835 66450FEB 		por	%xmm9, %xmm11
 1913      D9
 1914 283a 66450F38 		pshufb	%xmm11, %xmm12
 1914      00E3
 1915 2840 66440F6F 		movdqa	%xmm2, %xmm11
 1915      DA
 1916 2845 66440F38 		pshufb	%xmm4, %xmm11
 1916      00DC
 1917 284b 660FF8E3 		psubb	%xmm3, %xmm4
 1918 284f 660FDBE1 		pand	%xmm1, %xmm4
 1919 2853 66410FEB 		por	%xmm12, %xmm0
 1919      C4
 1920 2858 66440F6F 		movdqa	.LC35(%rip), %xmm12
 1920      25000000 
 1920      00
 1921 2861 66450FEB 		por	%xmm9, %xmm11
 1921      D9
 1922 2866 66450F38 		pshufb	%xmm11, %xmm14
 1922      00F3
 1923 286c 66440F6F 		movdqa	%xmm2, %xmm11
 1923      DA
 1924 2871 66440F38 		pshufb	%xmm4, %xmm11
 1924      00DC
 1925 2877 660FF8E3 		psubb	%xmm3, %xmm4
 1926 287b 660FDBE1 		pand	%xmm1, %xmm4
 1927 287f 66410FEB 		por	%xmm14, %xmm0
 1927      C6
 1928 2884 66450F6F 		movdqa	%xmm13, %xmm14
 1928      F5
GAS LISTING /tmp/ccABNvJu.s 			page 109


 1929 2889 66450FEB 		por	%xmm9, %xmm11
 1929      D9
 1930 288e 66450F38 		pshufb	%xmm11, %xmm15
 1930      00FB
 1931 2894 66440F6F 		movdqa	%xmm2, %xmm11
 1931      DA
 1932 2899 66440F38 		pshufb	%xmm4, %xmm11
 1932      00DC
 1933 289f 660FF8E3 		psubb	%xmm3, %xmm4
 1934 28a3 660FDBE1 		pand	%xmm1, %xmm4
 1935 28a7 66410FEB 		por	%xmm15, %xmm0
 1935      C7
 1936 28ac 66450FEB 		por	%xmm9, %xmm11
 1936      D9
 1937 28b1 66450F38 		pshufb	%xmm11, %xmm12
 1937      00E3
 1938 28b7 66440F6F 		movdqa	%xmm2, %xmm11
 1938      DA
 1939 28bc 66440F38 		pshufb	%xmm4, %xmm11
 1939      00DC
 1940 28c2 660FF8E3 		psubb	%xmm3, %xmm4
 1941 28c6 660FDBE1 		pand	%xmm1, %xmm4
 1942 28ca 66410FEB 		por	%xmm12, %xmm0
 1942      C4
 1943 28cf 66440F6F 		movdqa	.LC37(%rip), %xmm12
 1943      25000000 
 1943      00
 1944 28d8 66450FEB 		por	%xmm9, %xmm11
 1944      D9
 1945 28dd 66450F6F 		movdqa	%xmm12, %xmm15
 1945      FC
 1946 28e2 66450F38 		pshufb	%xmm11, %xmm14
 1946      00F3
 1947 28e8 66440F6F 		movdqa	%xmm2, %xmm11
 1947      DA
 1948 28ed 66440F38 		pshufb	%xmm4, %xmm11
 1948      00DC
 1949 28f3 660FF8E3 		psubb	%xmm3, %xmm4
 1950 28f7 660FDBE1 		pand	%xmm1, %xmm4
 1951 28fb 66410FEB 		por	%xmm14, %xmm0
 1951      C6
 1952 2900 66440F6F 		movdqa	.LC38(%rip), %xmm14
 1952      35000000 
 1952      00
 1953 2909 66450FEB 		por	%xmm9, %xmm11
 1953      D9
 1954 290e 66450F38 		pshufb	%xmm11, %xmm15
 1954      00FB
 1955 2914 66440F6F 		movdqa	%xmm2, %xmm11
 1955      DA
 1956 2919 66440F38 		pshufb	%xmm4, %xmm11
 1956      00DC
 1957 291f 660FF8E3 		psubb	%xmm3, %xmm4
 1958 2923 660FDBE1 		pand	%xmm1, %xmm4
 1959 2927 66410FEB 		por	%xmm15, %xmm0
 1959      C7
 1960 292c 66440F6F 		movdqa	.LC39(%rip), %xmm15
GAS LISTING /tmp/ccABNvJu.s 			page 110


 1960      3D000000 
 1960      00
 1961 2935 66450FEB 		por	%xmm9, %xmm11
 1961      D9
 1962 293a 66450F38 		pshufb	%xmm11, %xmm14
 1962      00F3
 1963 2940 66440F6F 		movdqa	%xmm2, %xmm11
 1963      DA
 1964 2945 66440F38 		pshufb	%xmm4, %xmm11
 1964      00DC
 1965 294b 660FF8E3 		psubb	%xmm3, %xmm4
 1966 294f 660FDBE1 		pand	%xmm1, %xmm4
 1967 2953 66410FEB 		por	%xmm14, %xmm0
 1967      C6
 1968 2958 66440F6F 		movdqa	.LC40(%rip), %xmm14
 1968      35000000 
 1968      00
 1969 2961 66450FEB 		por	%xmm9, %xmm11
 1969      D9
 1970 2966 66450F38 		pshufb	%xmm11, %xmm15
 1970      00FB
 1971 296c 66440F6F 		movdqa	%xmm2, %xmm11
 1971      DA
 1972 2971 66440F38 		pshufb	%xmm4, %xmm11
 1972      00DC
 1973 2977 660FF8E3 		psubb	%xmm3, %xmm4
 1974 297b 660FDBE1 		pand	%xmm1, %xmm4
 1975 297f 66410FEB 		por	%xmm15, %xmm0
 1975      C7
 1976 2984 66440F6F 		movdqa	.LC41(%rip), %xmm15
 1976      3D000000 
 1976      00
 1977 298d 66450FEB 		por	%xmm9, %xmm11
 1977      D9
 1978 2992 66450F38 		pshufb	%xmm11, %xmm14
 1978      00F3
 1979 2998 66440F6F 		movdqa	%xmm2, %xmm11
 1979      DA
 1980 299d 66440F38 		pshufb	%xmm4, %xmm11
 1980      00DC
 1981 29a3 660FF8E3 		psubb	%xmm3, %xmm4
 1982 29a7 660FDBE1 		pand	%xmm1, %xmm4
 1983 29ab 66410FEB 		por	%xmm14, %xmm0
 1983      C6
 1984 29b0 66440F6F 		movdqa	.LC42(%rip), %xmm14
 1984      35000000 
 1984      00
 1985 29b9 66450FEB 		por	%xmm9, %xmm11
 1985      D9
 1986 29be 66450F38 		pshufb	%xmm11, %xmm15
 1986      00FB
 1987 29c4 66440F6F 		movdqa	%xmm2, %xmm11
 1987      DA
 1988 29c9 66440F38 		pshufb	%xmm4, %xmm11
 1988      00DC
 1989 29cf 66410FEB 		por	%xmm15, %xmm0
 1989      C7
GAS LISTING /tmp/ccABNvJu.s 			page 111


 1990 29d4 66440F6F 		movdqa	%xmm2, %xmm15
 1990      FA
 1991 29d9 66410F6F 		movdqa	%xmm11, %xmm4
 1991      E3
 1992 29de 66450FEF 		pxor	%xmm11, %xmm11
 1992      DB
 1993 29e3 66410FEB 		por	%xmm9, %xmm4
 1993      E1
 1994 29e8 66440F6F 		movdqa	.LC43(%rip), %xmm9
 1994      0D000000 
 1994      00
 1995 29f1 66440F3A 		pinsrd	$3, %edx, %xmm11
 1995      22DA03
 1996 29f8 66440F38 		pshufb	%xmm4, %xmm14
 1996      00F4
 1997 29fe 66410F6F 		movdqa	%xmm14, %xmm4
 1997      E6
 1998 2a03 66440F6F 		movdqa	%xmm2, %xmm14
 1998      F2
 1999 2a08 660FEBE0 		por	%xmm0, %xmm4
 2000 2a0c 660F6FC5 		movdqa	%xmm5, %xmm0
 2001 2a10 66410F38 		pshufb	%xmm9, %xmm0
 2001      00C1
 2002 2a16 660F3800 		pshufb	.LC20(%rip), %xmm4
 2002      25000000 
 2002      00
 2003 2a1f 660FEFE8 		pxor	%xmm0, %xmm5
 2004 2a23 66410F38 		pshufb	%xmm9, %xmm0
 2004      00C1
 2005 2a29 66410FEF 		pxor	%xmm10, %xmm4
 2005      E2
 2006 2a2e 66440F6F 		movdqa	%xmm0, %xmm10
 2006      D0
 2007 2a33 660FEFE8 		pxor	%xmm0, %xmm5
 2008 2a37 66450F38 		pshufb	%xmm9, %xmm10
 2008      00D1
 2009 2a3d 660F70E4 		pshufd	$255, %xmm4, %xmm4
 2009      FF
 2010 2a42 66410FEF 		pxor	%xmm10, %xmm5
 2010      EA
 2011 2a47 660FEFEC 		pxor	%xmm4, %xmm5
 2012 2a4b 66440F6F 		movdqa	%xmm5, %xmm10
 2012      D5
 2013 2a50 660F6FE5 		movdqa	%xmm5, %xmm4
 2014 2a54 66410F72 		psrld	$4, %xmm10
 2014      D204
 2015 2a5a 66440FDB 		pand	%xmm1, %xmm10
 2015      D1
 2016 2a5f 660FDBE1 		pand	%xmm1, %xmm4
 2017 2a63 660F7FA8 		movdqa	%xmm5, 144(%rax)
 2017      90000000 
 2018 2a6b 66450F38 		pshufb	%xmm10, %xmm14
 2018      00F2
 2019 2a71 66440FF8 		psubb	%xmm3, %xmm10
 2019      D3
 2020 2a76 66440FDB 		pand	%xmm1, %xmm10
 2020      D1
GAS LISTING /tmp/ccABNvJu.s 			page 112


 2021 2a7b 66440FEB 		por	%xmm4, %xmm14
 2021      F4
 2022 2a80 660F6F05 		movdqa	.LC27(%rip), %xmm0
 2022      00000000 
 2023 2a88 66450F38 		pshufb	%xmm10, %xmm15
 2023      00FA
 2024 2a8e 66440FF8 		psubb	%xmm3, %xmm10
 2024      D3
 2025 2a93 66440FDB 		pand	%xmm1, %xmm10
 2025      D1
 2026 2a98 66410F38 		pshufb	%xmm14, %xmm0
 2026      00C6
 2027 2a9e 66450FEF 		pxor	%xmm14, %xmm14
 2027      F6
 2028 2aa3 66440FEB 		por	%xmm4, %xmm15
 2028      FC
 2029 2aa8 66410FEB 		por	%xmm14, %xmm0
 2029      C6
 2030 2aad 66440F6F 		movdqa	.LC28(%rip), %xmm14
 2030      35000000 
 2030      00
 2031 2ab6 66450F38 		pshufb	%xmm15, %xmm14
 2031      00F7
 2032 2abc 66440F6F 		movdqa	%xmm2, %xmm15
 2032      FA
 2033 2ac1 66450F38 		pshufb	%xmm10, %xmm15
 2033      00FA
 2034 2ac7 66440FF8 		psubb	%xmm3, %xmm10
 2034      D3
 2035 2acc 66410FEB 		por	%xmm14, %xmm0
 2035      C6
 2036 2ad1 66440F6F 		movdqa	.LC29(%rip), %xmm14
 2036      35000000 
 2036      00
 2037 2ada 66440FDB 		pand	%xmm1, %xmm10
 2037      D1
 2038 2adf 66440FEB 		por	%xmm4, %xmm15
 2038      FC
 2039 2ae4 66450F38 		pshufb	%xmm15, %xmm14
 2039      00F7
 2040 2aea 66440F6F 		movdqa	%xmm2, %xmm15
 2040      FA
 2041 2aef 66450F38 		pshufb	%xmm10, %xmm15
 2041      00FA
 2042 2af5 66440FF8 		psubb	%xmm3, %xmm10
 2042      D3
 2043 2afa 66410FEB 		por	%xmm14, %xmm0
 2043      C6
 2044 2aff 66440F6F 		movdqa	.LC30(%rip), %xmm14
 2044      35000000 
 2044      00
 2045 2b08 66440FDB 		pand	%xmm1, %xmm10
 2045      D1
 2046 2b0d 66440FEB 		por	%xmm4, %xmm15
 2046      FC
 2047 2b12 66450F38 		pshufb	%xmm15, %xmm14
 2047      00F7
GAS LISTING /tmp/ccABNvJu.s 			page 113


 2048 2b18 66440F6F 		movdqa	.LC34(%rip), %xmm15
 2048      3D000000 
 2048      00
 2049 2b21 66410FEB 		por	%xmm14, %xmm0
 2049      C6
 2050 2b26 66440F6F 		movdqa	%xmm2, %xmm14
 2050      F2
 2051 2b2b 66450F38 		pshufb	%xmm10, %xmm14
 2051      00F2
 2052 2b31 66440FF8 		psubb	%xmm3, %xmm10
 2052      D3
 2053 2b36 66440FDB 		pand	%xmm1, %xmm10
 2053      D1
 2054 2b3b 66440FEB 		por	%xmm4, %xmm14
 2054      F4
 2055 2b40 66450F38 		pshufb	%xmm14, %xmm8
 2055      00C6
 2056 2b46 66440F6F 		movdqa	.LC39(%rip), %xmm14
 2056      35000000 
 2056      00
 2057 2b4f 66410FEB 		por	%xmm8, %xmm0
 2057      C0
 2058 2b54 66440F6F 		movdqa	%xmm2, %xmm8
 2058      C2
 2059 2b59 66450F38 		pshufb	%xmm10, %xmm8
 2059      00C2
 2060 2b5f 66440FF8 		psubb	%xmm3, %xmm10
 2060      D3
 2061 2b64 66440FDB 		pand	%xmm1, %xmm10
 2061      D1
 2062 2b69 66440FEB 		por	%xmm4, %xmm8
 2062      C4
 2063 2b6e 66410F38 		pshufb	%xmm8, %xmm7
 2063      00F8
 2064 2b74 660FEBC7 		por	%xmm7, %xmm0
 2065 2b78 660F6FFA 		movdqa	%xmm2, %xmm7
 2066 2b7c 66410F38 		pshufb	%xmm10, %xmm7
 2066      00FA
 2067 2b82 66440FF8 		psubb	%xmm3, %xmm10
 2067      D3
 2068 2b87 66440FDB 		pand	%xmm1, %xmm10
 2068      D1
 2069 2b8c 660FEBFC 		por	%xmm4, %xmm7
 2070 2b90 660F3800 		pshufb	%xmm7, %xmm6
 2070      F7
 2071 2b95 660F6F3D 		movdqa	.LC35(%rip), %xmm7
 2071      00000000 
 2072 2b9d 660FEBC6 		por	%xmm6, %xmm0
 2073 2ba1 660F6FF2 		movdqa	%xmm2, %xmm6
 2074 2ba5 66410F38 		pshufb	%xmm10, %xmm6
 2074      00F2
 2075 2bab 66440FF8 		psubb	%xmm3, %xmm10
 2075      D3
 2076 2bb0 66440FDB 		pand	%xmm1, %xmm10
 2076      D1
 2077 2bb5 660FEBF4 		por	%xmm4, %xmm6
 2078 2bb9 66440F38 		pshufb	%xmm6, %xmm15
GAS LISTING /tmp/ccABNvJu.s 			page 114


 2078      00FE
 2079 2bbf 660F6FF2 		movdqa	%xmm2, %xmm6
 2080 2bc3 66410F38 		pshufb	%xmm10, %xmm6
 2080      00F2
 2081 2bc9 66440FF8 		psubb	%xmm3, %xmm10
 2081      D3
 2082 2bce 66440FDB 		pand	%xmm1, %xmm10
 2082      D1
 2083 2bd3 66410FEB 		por	%xmm15, %xmm0
 2083      C7
 2084 2bd8 66440F6F 		movdqa	.LC40(%rip), %xmm15
 2084      3D000000 
 2084      00
 2085 2be1 660FEBF4 		por	%xmm4, %xmm6
 2086 2be5 660F3800 		pshufb	%xmm6, %xmm7
 2086      FE
 2087 2bea 660F6FF2 		movdqa	%xmm2, %xmm6
 2088 2bee 66410F38 		pshufb	%xmm10, %xmm6
 2088      00F2
 2089 2bf4 66440FF8 		psubb	%xmm3, %xmm10
 2089      D3
 2090 2bf9 66440FDB 		pand	%xmm1, %xmm10
 2090      D1
 2091 2bfe 660FEBC7 		por	%xmm7, %xmm0
 2092 2c02 660F6F3D 		movdqa	.LC41(%rip), %xmm7
 2092      00000000 
 2093 2c0a 660FEBF4 		por	%xmm4, %xmm6
 2094 2c0e 66440F38 		pshufb	%xmm6, %xmm13
 2094      00EE
 2095 2c14 660F6FF2 		movdqa	%xmm2, %xmm6
 2096 2c18 66410F38 		pshufb	%xmm10, %xmm6
 2096      00F2
 2097 2c1e 66440FF8 		psubb	%xmm3, %xmm10
 2097      D3
 2098 2c23 66440FDB 		pand	%xmm1, %xmm10
 2098      D1
 2099 2c28 66410FEB 		por	%xmm13, %xmm0
 2099      C5
 2100 2c2d 660FEBF4 		por	%xmm4, %xmm6
 2101 2c31 66440F38 		pshufb	%xmm6, %xmm12
 2101      00E6
 2102 2c37 660F6FF2 		movdqa	%xmm2, %xmm6
 2103 2c3b 66410F38 		pshufb	%xmm10, %xmm6
 2103      00F2
 2104 2c41 66440FF8 		psubb	%xmm3, %xmm10
 2104      D3
 2105 2c46 66410FEB 		por	%xmm12, %xmm0
 2105      C4
 2106 2c4b 66440F6F 		movdqa	.LC38(%rip), %xmm12
 2106      25000000 
 2106      00
 2107 2c54 66440FDB 		pand	%xmm1, %xmm10
 2107      D1
 2108 2c59 660FEBF4 		por	%xmm4, %xmm6
 2109 2c5d 66440F38 		pshufb	%xmm6, %xmm12
 2109      00E6
 2110 2c63 660F6FF2 		movdqa	%xmm2, %xmm6
GAS LISTING /tmp/ccABNvJu.s 			page 115


 2111 2c67 66410F38 		pshufb	%xmm10, %xmm6
 2111      00F2
 2112 2c6d 66440FF8 		psubb	%xmm3, %xmm10
 2112      D3
 2113 2c72 66440FDB 		pand	%xmm1, %xmm10
 2113      D1
 2114 2c77 66410FEB 		por	%xmm12, %xmm0
 2114      C4
 2115 2c7c 66440F6F 		movdqa	.LC42(%rip), %xmm12
 2115      25000000 
 2115      00
 2116 2c85 660FEBF4 		por	%xmm4, %xmm6
 2117 2c89 66440F38 		pshufb	%xmm6, %xmm14
 2117      00F6
 2118 2c8f 660F6FF2 		movdqa	%xmm2, %xmm6
 2119 2c93 66410F38 		pshufb	%xmm10, %xmm6
 2119      00F2
 2120 2c99 66440FF8 		psubb	%xmm3, %xmm10
 2120      D3
 2121 2c9e 66440FDB 		pand	%xmm1, %xmm10
 2121      D1
 2122 2ca3 66410FEB 		por	%xmm14, %xmm0
 2122      C6
 2123 2ca8 660FEBF4 		por	%xmm4, %xmm6
 2124 2cac 66440F38 		pshufb	%xmm6, %xmm15
 2124      00FE
 2125 2cb2 660F6FF2 		movdqa	%xmm2, %xmm6
 2126 2cb6 66410F38 		pshufb	%xmm10, %xmm6
 2126      00F2
 2127 2cbc 66440FF8 		psubb	%xmm3, %xmm10
 2127      D3
 2128 2cc1 66440FDB 		pand	%xmm1, %xmm10
 2128      D1
 2129 2cc6 66410FEB 		por	%xmm15, %xmm0
 2129      C7
 2130 2ccb 660FEBF4 		por	%xmm4, %xmm6
 2131 2ccf 66410F38 		pshufb	%xmm10, %xmm2
 2131      00D2
 2132 2cd5 660F3800 		pshufb	%xmm6, %xmm7
 2132      FE
 2133 2cda 660FEBD4 		por	%xmm4, %xmm2
 2134 2cde 660FEBC7 		por	%xmm7, %xmm0
 2135 2ce2 66440F38 		pshufb	%xmm2, %xmm12
 2135      00E2
 2136 2ce8 66410F6F 		movdqa	%xmm12, %xmm2
 2136      D4
 2137 2ced 660FEBD0 		por	%xmm0, %xmm2
 2138 2cf1 660F6FC5 		movdqa	%xmm5, %xmm0
 2139 2cf5 66410F38 		pshufb	%xmm9, %xmm0
 2139      00C1
 2140 2cfb 660F3800 		pshufb	.LC20(%rip), %xmm2
 2140      15000000 
 2140      00
 2141 2d04 660FEFE8 		pxor	%xmm0, %xmm5
 2142 2d08 66410F38 		pshufb	%xmm9, %xmm0
 2142      00C1
 2143 2d0e 66410FEF 		pxor	%xmm11, %xmm2
GAS LISTING /tmp/ccABNvJu.s 			page 116


 2143      D3
 2144 2d13 66440F6F 		movdqa	%xmm0, %xmm14
 2144      F0
 2145 2d18 660FEFE8 		pxor	%xmm0, %xmm5
 2146 2d1c 66450F38 		pshufb	%xmm9, %xmm14
 2146      00F1
 2147 2d22 660F70D2 		pshufd	$255, %xmm2, %xmm2
 2147      FF
 2148 2d27 66410FEF 		pxor	%xmm14, %xmm5
 2148      EE
 2149 2d2c 660FEFEA 		pxor	%xmm2, %xmm5
 2150 2d30 660F7FA8 		movdqa	%xmm5, 160(%rax)
 2150      A0000000 
 2151 2d38 C3       		ret
 2152              		.cfi_endproc
 2153              	.LFE709:
 2154              		.size	KAESBlockCipherVecRegKeyExpansion128, .-KAESBlockCipherVecRegKeyExpansion128
 2155 2d39 0F1F8000 		.p2align 4,,15
 2155      000000
 2156              		.type	KAESBlockCipherVecRegKeyExpansion256, @function
 2157              	KAESBlockCipherVecRegKeyExpansion256:
 2158              	.LFB711:
 2159              		.cfi_startproc
 2160 2d40 660F6F05 		movdqa	.LC0(%rip), %xmm0
 2160      00000000 
 2161 2d48 4889F8   		movq	%rdi, %rax
 2162 2d4b 4889F7   		movq	%rsi, %rdi
 2163 2d4e 66450FEF 		pxor	%xmm8, %xmm8
 2163      C0
 2164              	#APP
 2165              	# 126 "/home/rodarmer/sra_sdk-2.2.2a/libs/krypto/aes-ncbi.c" 1
 2166              		movdqu (%rdi),%xmm7
 2167              	# 0 "" 2
 2168              	#NO_APP
 2169 2d57 488D7E10 		leaq	16(%rsi), %rdi
 2170 2d5b 660F6F0D 		movdqa	.LC1(%rip), %xmm1
 2170      00000000 
 2171              	#APP
 2172              	# 126 "/home/rodarmer/sra_sdk-2.2.2a/libs/krypto/aes-ncbi.c" 1
 2173              		movdqu (%rdi),%xmm6
 2174              	# 0 "" 2
 2175              	#NO_APP
 2176 2d67 660F6FEE 		movdqa	%xmm6, %xmm5
 2177 2d6b 53       		pushq	%rbx
 2178              		.cfi_def_cfa_offset 16
 2179 2d6c 660F6FE6 		movdqa	%xmm6, %xmm4
 2180 2d70 488D1500 		leaq	KAESBlockCipherVecRegRijndaelSBox(%rip), %rdx
 2180      000000
 2181 2d77 660F72D5 		psrld	$4, %xmm5
 2181      04
 2182 2d7c 660FDBE8 		pand	%xmm0, %xmm5
 2183 2d80 660F6FD9 		movdqa	%xmm1, %xmm3
 2184 2d84 660FDBE0 		pand	%xmm0, %xmm4
 2185 2d88 66440F6F 		movdqa	.LC27(%rip), %xmm12
 2185      25000000 
 2185      00
 2186 2d91 660F3800 		pshufb	%xmm5, %xmm3
GAS LISTING /tmp/ccABNvJu.s 			page 117


 2186      DD
 2187 2d96 66410F6F 		movdqa	%xmm12, %xmm2
 2187      D4
 2188 2d9b 66440F6F 		movdqa	.LC28(%rip), %xmm11
 2188      1D000000 
 2188      00
 2189 2da4 66450FEF 		pxor	%xmm13, %xmm13
 2189      ED
 2190 2da9 660FEBDC 		por	%xmm4, %xmm3
 2191 2dad 66450F6F 		movdqa	%xmm11, %xmm9
 2191      CB
 2192 2db2 66440F6F 		movdqa	.LC29(%rip), %xmm10
 2192      15000000 
 2192      00
 2193 2dbb 660F3800 		pshufb	%xmm3, %xmm2
 2193      D3
 2194 2dc0 66450F6F 		movdqa	%xmm10, %xmm14
 2194      F2
 2195 2dc5 660F7F38 		movdqa	%xmm7, (%rax)
 2196 2dc9 660F6FDA 		movdqa	%xmm2, %xmm3
 2197 2dcd 660F7F70 		movdqa	%xmm6, 16(%rax)
 2197      10
 2198 2dd2 66410FEB 		por	%xmm8, %xmm3
 2198      D8
 2199 2dd7 66440F6F 		movdqa	%xmm1, %xmm8
 2199      C1
 2200 2ddc 660F6F15 		movdqa	.LC3(%rip), %xmm2
 2200      00000000 
 2201 2de4 660FF8EA 		psubb	%xmm2, %xmm5
 2202 2de8 660FDBE8 		pand	%xmm0, %xmm5
 2203 2dec 66440F38 		pshufb	%xmm5, %xmm8
 2203      00C5
 2204 2df2 660FF8EA 		psubb	%xmm2, %xmm5
 2205 2df6 660FDBE8 		pand	%xmm0, %xmm5
 2206 2dfa 66440FEB 		por	%xmm4, %xmm8
 2206      C4
 2207 2dff 66450F38 		pshufb	%xmm8, %xmm9
 2207      00C8
 2208 2e05 66440F6F 		movdqa	%xmm1, %xmm8
 2208      C1
 2209 2e0a 66440F38 		pshufb	%xmm5, %xmm8
 2209      00C5
 2210 2e10 660FF8EA 		psubb	%xmm2, %xmm5
 2211 2e14 660FDBE8 		pand	%xmm0, %xmm5
 2212 2e18 66410FEB 		por	%xmm9, %xmm3
 2212      D9
 2213 2e1d 66440F6F 		movdqa	.LC30(%rip), %xmm9
 2213      0D000000 
 2213      00
 2214 2e26 66440FEB 		por	%xmm4, %xmm8
 2214      C4
 2215 2e2b 66450F6F 		movdqa	%xmm9, %xmm15
 2215      F9
 2216 2e30 66450F38 		pshufb	%xmm8, %xmm14
 2216      00F0
 2217 2e36 66440F6F 		movdqa	%xmm1, %xmm8
 2217      C1
GAS LISTING /tmp/ccABNvJu.s 			page 118


 2218 2e3b 66440F38 		pshufb	%xmm5, %xmm8
 2218      00C5
 2219 2e41 660FF8EA 		psubb	%xmm2, %xmm5
 2220 2e45 660FDBE8 		pand	%xmm0, %xmm5
 2221 2e49 66410FEB 		por	%xmm14, %xmm3
 2221      DE
 2222 2e4e 66440F6F 		movdqa	%xmm1, %xmm14
 2222      F1
 2223 2e53 66440FEB 		por	%xmm4, %xmm8
 2223      C4
 2224 2e58 66440F38 		pshufb	%xmm5, %xmm14
 2224      00F5
 2225 2e5e 660FF8EA 		psubb	%xmm2, %xmm5
 2226 2e62 660FDBE8 		pand	%xmm0, %xmm5
 2227 2e66 66450F38 		pshufb	%xmm8, %xmm15
 2227      00F8
 2228 2e6c 66440F6F 		movdqa	.LC31(%rip), %xmm8
 2228      05000000 
 2228      00
 2229 2e75 66440FEB 		por	%xmm4, %xmm14
 2229      F4
 2230 2e7a 66410FEB 		por	%xmm15, %xmm3
 2230      DF
 2231 2e7f 66450F6F 		movdqa	%xmm8, %xmm15
 2231      F8
 2232 2e84 66450F38 		pshufb	%xmm14, %xmm15
 2232      00FE
 2233 2e8a 66440F6F 		movdqa	.LC32(%rip), %xmm14
 2233      35000000 
 2233      00
 2234 2e93 66410FEB 		por	%xmm15, %xmm3
 2234      DF
 2235 2e98 66440F6F 		movdqa	%xmm1, %xmm15
 2235      F9
 2236 2e9d 66440F38 		pshufb	%xmm5, %xmm15
 2236      00FD
 2237 2ea3 660FF8EA 		psubb	%xmm2, %xmm5
 2238 2ea7 660FDBE8 		pand	%xmm0, %xmm5
 2239 2eab 66440FEB 		por	%xmm4, %xmm15
 2239      FC
 2240 2eb0 66450F38 		pshufb	%xmm15, %xmm14
 2240      00F7
 2241 2eb6 66440F6F 		movdqa	%xmm1, %xmm15
 2241      F9
 2242 2ebb 66440F38 		pshufb	%xmm5, %xmm15
 2242      00FD
 2243 2ec1 660FF8EA 		psubb	%xmm2, %xmm5
 2244 2ec5 66410FEB 		por	%xmm14, %xmm3
 2244      DE
 2245 2eca 66440F6F 		movdqa	.LC33(%rip), %xmm14
 2245      35000000 
 2245      00
 2246 2ed3 660FDBE8 		pand	%xmm0, %xmm5
 2247 2ed7 66440FEB 		por	%xmm4, %xmm15
 2247      FC
 2248 2edc 66450F38 		pshufb	%xmm15, %xmm14
 2248      00F7
GAS LISTING /tmp/ccABNvJu.s 			page 119


 2249 2ee2 66440F6F 		movdqa	%xmm1, %xmm15
 2249      F9
 2250 2ee7 66440F38 		pshufb	%xmm5, %xmm15
 2250      00FD
 2251 2eed 660FF8EA 		psubb	%xmm2, %xmm5
 2252 2ef1 66410FEB 		por	%xmm14, %xmm3
 2252      DE
 2253 2ef6 66440F6F 		movdqa	.LC34(%rip), %xmm14
 2253      35000000 
 2253      00
 2254 2eff 660FDBE8 		pand	%xmm0, %xmm5
 2255 2f03 66440FEB 		por	%xmm4, %xmm15
 2255      FC
 2256 2f08 66450F38 		pshufb	%xmm15, %xmm14
 2256      00F7
 2257 2f0e 66440F6F 		movdqa	%xmm1, %xmm15
 2257      F9
 2258 2f13 66440F38 		pshufb	%xmm5, %xmm15
 2258      00FD
 2259 2f19 660FF8EA 		psubb	%xmm2, %xmm5
 2260 2f1d 66410FEB 		por	%xmm14, %xmm3
 2260      DE
 2261 2f22 66440F6F 		movdqa	.LC35(%rip), %xmm14
 2261      35000000 
 2261      00
 2262 2f2b 660FDBE8 		pand	%xmm0, %xmm5
 2263 2f2f 66440FEB 		por	%xmm4, %xmm15
 2263      FC
 2264 2f34 66450F38 		pshufb	%xmm15, %xmm14
 2264      00F7
 2265 2f3a 66440F6F 		movdqa	%xmm1, %xmm15
 2265      F9
 2266 2f3f 66440F38 		pshufb	%xmm5, %xmm15
 2266      00FD
 2267 2f45 660FF8EA 		psubb	%xmm2, %xmm5
 2268 2f49 66410FEB 		por	%xmm14, %xmm3
 2268      DE
 2269 2f4e 66440F6F 		movdqa	.LC36(%rip), %xmm14
 2269      35000000 
 2269      00
 2270 2f57 660FDBE8 		pand	%xmm0, %xmm5
 2271 2f5b 66440FEB 		por	%xmm4, %xmm15
 2271      FC
 2272 2f60 66450F38 		pshufb	%xmm15, %xmm14
 2272      00F7
 2273 2f66 66440F6F 		movdqa	%xmm1, %xmm15
 2273      F9
 2274 2f6b 66440F38 		pshufb	%xmm5, %xmm15
 2274      00FD
 2275 2f71 660FF8EA 		psubb	%xmm2, %xmm5
 2276 2f75 66410FEB 		por	%xmm14, %xmm3
 2276      DE
 2277 2f7a 66440F6F 		movdqa	.LC37(%rip), %xmm14
 2277      35000000 
 2277      00
 2278 2f83 660FDBE8 		pand	%xmm0, %xmm5
 2279 2f87 66440FEB 		por	%xmm4, %xmm15
GAS LISTING /tmp/ccABNvJu.s 			page 120


 2279      FC
 2280 2f8c 66450F38 		pshufb	%xmm15, %xmm14
 2280      00F7
 2281 2f92 66440F6F 		movdqa	%xmm1, %xmm15
 2281      F9
 2282 2f97 66440F38 		pshufb	%xmm5, %xmm15
 2282      00FD
 2283 2f9d 660FF8EA 		psubb	%xmm2, %xmm5
 2284 2fa1 66410FEB 		por	%xmm14, %xmm3
 2284      DE
 2285 2fa6 66440F6F 		movdqa	.LC38(%rip), %xmm14
 2285      35000000 
 2285      00
 2286 2faf 660FDBE8 		pand	%xmm0, %xmm5
 2287 2fb3 66440FEB 		por	%xmm4, %xmm15
 2287      FC
 2288 2fb8 66450F38 		pshufb	%xmm15, %xmm14
 2288      00F7
 2289 2fbe 66440F6F 		movdqa	%xmm1, %xmm15
 2289      F9
 2290 2fc3 66440F38 		pshufb	%xmm5, %xmm15
 2290      00FD
 2291 2fc9 660FF8EA 		psubb	%xmm2, %xmm5
 2292 2fcd 66410FEB 		por	%xmm14, %xmm3
 2292      DE
 2293 2fd2 66440F6F 		movdqa	.LC39(%rip), %xmm14
 2293      35000000 
 2293      00
 2294 2fdb 660FDBE8 		pand	%xmm0, %xmm5
 2295 2fdf 66440FEB 		por	%xmm4, %xmm15
 2295      FC
 2296 2fe4 66450F38 		pshufb	%xmm15, %xmm14
 2296      00F7
 2297 2fea 66440F6F 		movdqa	%xmm1, %xmm15
 2297      F9
 2298 2fef 66440F38 		pshufb	%xmm5, %xmm15
 2298      00FD
 2299 2ff5 660FF8EA 		psubb	%xmm2, %xmm5
 2300 2ff9 66410FEB 		por	%xmm14, %xmm3
 2300      DE
 2301 2ffe 66440F6F 		movdqa	.LC40(%rip), %xmm14
 2301      35000000 
 2301      00
 2302 3007 660FDBE8 		pand	%xmm0, %xmm5
 2303 300b 66440FEB 		por	%xmm4, %xmm15
 2303      FC
 2304 3010 66450F38 		pshufb	%xmm15, %xmm14
 2304      00F7
 2305 3016 66440F6F 		movdqa	%xmm1, %xmm15
 2305      F9
 2306 301b 66440F38 		pshufb	%xmm5, %xmm15
 2306      00FD
 2307 3021 660FF8EA 		psubb	%xmm2, %xmm5
 2308 3025 66410FEB 		por	%xmm14, %xmm3
 2308      DE
 2309 302a 66440F6F 		movdqa	.LC41(%rip), %xmm14
 2309      35000000 
GAS LISTING /tmp/ccABNvJu.s 			page 121


 2309      00
 2310 3033 660FDBE8 		pand	%xmm0, %xmm5
 2311 3037 66440FEB 		por	%xmm4, %xmm15
 2311      FC
 2312 303c 66450F38 		pshufb	%xmm15, %xmm14
 2312      00F7
 2313 3042 66440F6F 		movdqa	%xmm1, %xmm15
 2313      F9
 2314 3047 66440F38 		pshufb	%xmm5, %xmm15
 2314      00FD
 2315 304d 66410FEB 		por	%xmm14, %xmm3
 2315      DE
 2316 3052 66410F6F 		movdqa	%xmm15, %xmm5
 2316      EF
 2317 3057 66450F6F 		movdqa	%xmm12, %xmm15
 2317      FC
 2318 305c 660FEBEC 		por	%xmm4, %xmm5
 2319 3060 660F6F25 		movdqa	.LC42(%rip), %xmm4
 2319      00000000 
 2320 3068 660F3800 		pshufb	%xmm5, %xmm4
 2320      E5
 2321 306d 660F6FEC 		movdqa	%xmm4, %xmm5
 2322 3071 660F6F25 		movdqa	.LC43(%rip), %xmm4
 2322      00000000 
 2323 3079 660FEBEB 		por	%xmm3, %xmm5
 2324 307d 660F6FDF 		movdqa	%xmm7, %xmm3
 2325 3081 660F3800 		pshufb	%xmm4, %xmm3
 2325      DC
 2326 3086 660F3800 		pshufb	.LC20(%rip), %xmm5
 2326      2D000000 
 2326      00
 2327 308f 660FEFFB 		pxor	%xmm3, %xmm7
 2328 3093 660F3800 		pshufb	%xmm4, %xmm3
 2328      DC
 2329 3098 660FEF2D 		pxor	.LC44(%rip), %xmm5
 2329      00000000 
 2330 30a0 66440F6F 		movdqa	%xmm3, %xmm14
 2330      F3
 2331 30a5 660FEFFB 		pxor	%xmm3, %xmm7
 2332 30a9 660F6FDE 		movdqa	%xmm6, %xmm3
 2333 30ad 66440F38 		pshufb	%xmm4, %xmm14
 2333      00F4
 2334 30b3 660F70ED 		pshufd	$255, %xmm5, %xmm5
 2334      FF
 2335 30b8 660F3800 		pshufb	%xmm4, %xmm3
 2335      DC
 2336 30bd 66410FEF 		pxor	%xmm14, %xmm7
 2336      FE
 2337 30c2 660FEFF3 		pxor	%xmm3, %xmm6
 2338 30c6 660FEFFD 		pxor	%xmm5, %xmm7
 2339 30ca 660F3800 		pshufb	%xmm4, %xmm3
 2339      DC
 2340 30cf 660F7F78 		movdqa	%xmm7, 32(%rax)
 2340      20
 2341 30d4 660F6FEB 		movdqa	%xmm3, %xmm5
 2342 30d8 F30F7F7C 		movdqu	%xmm7, -16(%rsp)
 2342      24F0
GAS LISTING /tmp/ccABNvJu.s 			page 122


 2343 30de 660F3800 		pshufb	%xmm4, %xmm5
 2343      EC
 2344 30e3 660FEFF3 		pxor	%xmm3, %xmm6
 2345 30e7 660F6FD9 		movdqa	%xmm1, %xmm3
 2346 30eb 8B4C24FC 		movl	-4(%rsp), %ecx
 2347 30ef 660FEFF5 		pxor	%xmm5, %xmm6
 2348 30f3 0FB6D9   		movzbl	%cl, %ebx
 2349              		.cfi_offset 3, -16
 2350 30f6 8A0C1A   		movb	(%rdx,%rbx), %cl
 2351 30f9 0FB6DD   		movzbl	%ch, %ebx
 2352 30fc 0FB61C1A 		movzbl	(%rdx,%rbx), %ebx
 2353 3100 88DD     		movb	%bl, %ch
 2354 3102 89CB     		movl	%ecx, %ebx
 2355 3104 81E1FFFF 		andl	$-16711681, %ecx
 2355      00FF
 2356 310a C1EB10   		shrl	$16, %ebx
 2357 310d 0FB6DB   		movzbl	%bl, %ebx
 2358 3110 0FB6341A 		movzbl	(%rdx,%rbx), %esi
 2359 3114 C1E610   		sall	$16, %esi
 2360 3117 09F1     		orl	%esi, %ecx
 2361 3119 89CB     		movl	%ecx, %ebx
 2362 311b 81E1FFFF 		andl	$16777215, %ecx
 2362      FF00
 2363 3121 C1EB18   		shrl	$24, %ebx
 2364 3124 0FB6DB   		movzbl	%bl, %ebx
 2365 3127 0FB6341A 		movzbl	(%rdx,%rbx), %esi
 2366 312b C1E618   		sall	$24, %esi
 2367 312e 09F1     		orl	%esi, %ecx
 2368 3130 894C24FC 		movl	%ecx, -4(%rsp)
 2369 3134 894C24F8 		movl	%ecx, -8(%rsp)
 2370 3138 894C24F4 		movl	%ecx, -12(%rsp)
 2371 313c 894C24F0 		movl	%ecx, -16(%rsp)
 2372 3140 660FEF74 		pxor	-16(%rsp), %xmm6
 2372      24F0
 2373 3146 66440F6F 		movdqa	%xmm6, %xmm14
 2373      F6
 2374 314b 660F6FEE 		movdqa	%xmm6, %xmm5
 2375 314f 66410F72 		psrld	$4, %xmm14
 2375      D604
 2376 3155 66440FDB 		pand	%xmm0, %xmm14
 2376      F0
 2377 315a 660FDBE8 		pand	%xmm0, %xmm5
 2378 315e 660F7F70 		movdqa	%xmm6, 48(%rax)
 2378      30
 2379 3163 66410F38 		pshufb	%xmm14, %xmm3
 2379      00DE
 2380 3169 66440FF8 		psubb	%xmm2, %xmm14
 2380      F2
 2381 316e 66440FDB 		pand	%xmm0, %xmm14
 2381      F0
 2382 3173 660FEBDD 		por	%xmm5, %xmm3
 2383 3177 66440F38 		pshufb	%xmm3, %xmm15
 2383      00FB
 2384 317d 66410F6F 		movdqa	%xmm15, %xmm3
 2384      DF
 2385 3182 66450FEF 		pxor	%xmm15, %xmm15
 2385      FF
GAS LISTING /tmp/ccABNvJu.s 			page 123


 2386 3187 66410FEB 		por	%xmm15, %xmm3
 2386      DF
 2387 318c 66440F6F 		movdqa	%xmm1, %xmm15
 2387      F9
 2388 3191 66450F38 		pshufb	%xmm14, %xmm15
 2388      00FE
 2389 3197 66440FF8 		psubb	%xmm2, %xmm14
 2389      F2
 2390 319c 66440FDB 		pand	%xmm0, %xmm14
 2390      F0
 2391 31a1 66440FEB 		por	%xmm5, %xmm15
 2391      FD
 2392 31a6 66440F7F 		movdqa	%xmm15, -112(%rsp)
 2392      7C2490
 2393 31ad 66450F6F 		movdqa	%xmm11, %xmm15
 2393      FB
 2394 31b2 66440F38 		pshufb	-112(%rsp), %xmm15
 2394      007C2490 
 2395 31ba 66410FEB 		por	%xmm15, %xmm3
 2395      DF
 2396 31bf 66440F6F 		movdqa	%xmm1, %xmm15
 2396      F9
 2397 31c4 66450F38 		pshufb	%xmm14, %xmm15
 2397      00FE
 2398 31ca 66440FF8 		psubb	%xmm2, %xmm14
 2398      F2
 2399 31cf 66440FDB 		pand	%xmm0, %xmm14
 2399      F0
 2400 31d4 66440FEB 		por	%xmm5, %xmm15
 2400      FD
 2401 31d9 66440F7F 		movdqa	%xmm15, -112(%rsp)
 2401      7C2490
 2402 31e0 66450F6F 		movdqa	%xmm10, %xmm15
 2402      FA
 2403 31e5 66440F38 		pshufb	-112(%rsp), %xmm15
 2403      007C2490 
 2404 31ed 66410FEB 		por	%xmm15, %xmm3
 2404      DF
 2405 31f2 66440F6F 		movdqa	%xmm1, %xmm15
 2405      F9
 2406 31f7 66450F38 		pshufb	%xmm14, %xmm15
 2406      00FE
 2407 31fd 66440FF8 		psubb	%xmm2, %xmm14
 2407      F2
 2408 3202 66440FDB 		pand	%xmm0, %xmm14
 2408      F0
 2409 3207 66440FEB 		por	%xmm5, %xmm15
 2409      FD
 2410 320c 66440F7F 		movdqa	%xmm15, -112(%rsp)
 2410      7C2490
 2411 3213 66450F6F 		movdqa	%xmm9, %xmm15
 2411      F9
 2412 3218 66440F38 		pshufb	-112(%rsp), %xmm15
 2412      007C2490 
 2413 3220 66410FEB 		por	%xmm15, %xmm3
 2413      DF
 2414 3225 66440F6F 		movdqa	%xmm1, %xmm15
GAS LISTING /tmp/ccABNvJu.s 			page 124


 2414      F9
 2415 322a 66450F38 		pshufb	%xmm14, %xmm15
 2415      00FE
 2416 3230 66440FF8 		psubb	%xmm2, %xmm14
 2416      F2
 2417 3235 66440FDB 		pand	%xmm0, %xmm14
 2417      F0
 2418 323a 66440FEB 		por	%xmm5, %xmm15
 2418      FD
 2419 323f 66440F7F 		movdqa	%xmm15, -112(%rsp)
 2419      7C2490
 2420 3246 66450F6F 		movdqa	%xmm8, %xmm15
 2420      F8
 2421 324b 66440F38 		pshufb	-112(%rsp), %xmm15
 2421      007C2490 
 2422 3253 66410FEB 		por	%xmm15, %xmm3
 2422      DF
 2423 3258 66440F6F 		movdqa	%xmm1, %xmm15
 2423      F9
 2424 325d 66450F38 		pshufb	%xmm14, %xmm15
 2424      00FE
 2425 3263 66440FF8 		psubb	%xmm2, %xmm14
 2425      F2
 2426 3268 66440FDB 		pand	%xmm0, %xmm14
 2426      F0
 2427 326d 66440FEB 		por	%xmm5, %xmm15
 2427      FD
 2428 3272 66440F7F 		movdqa	%xmm15, -112(%rsp)
 2428      7C2490
 2429 3279 66440F6F 		movdqa	.LC32(%rip), %xmm15
 2429      3D000000 
 2429      00
 2430 3282 66440F38 		pshufb	-112(%rsp), %xmm15
 2430      007C2490 
 2431 328a 66410FEB 		por	%xmm15, %xmm3
 2431      DF
 2432 328f 66440F6F 		movdqa	%xmm1, %xmm15
 2432      F9
 2433 3294 66450F38 		pshufb	%xmm14, %xmm15
 2433      00FE
 2434 329a 66440FF8 		psubb	%xmm2, %xmm14
 2434      F2
 2435 329f 66440FDB 		pand	%xmm0, %xmm14
 2435      F0
 2436 32a4 66440FEB 		por	%xmm5, %xmm15
 2436      FD
 2437 32a9 66440F7F 		movdqa	%xmm15, -112(%rsp)
 2437      7C2490
 2438 32b0 66440F6F 		movdqa	.LC33(%rip), %xmm15
 2438      3D000000 
 2438      00
 2439 32b9 66440F38 		pshufb	-112(%rsp), %xmm15
 2439      007C2490 
 2440 32c1 66410FEB 		por	%xmm15, %xmm3
 2440      DF
 2441 32c6 66440F6F 		movdqa	%xmm1, %xmm15
 2441      F9
GAS LISTING /tmp/ccABNvJu.s 			page 125


 2442 32cb 66450F38 		pshufb	%xmm14, %xmm15
 2442      00FE
 2443 32d1 66440FF8 		psubb	%xmm2, %xmm14
 2443      F2
 2444 32d6 66440FDB 		pand	%xmm0, %xmm14
 2444      F0
 2445 32db 66440FEB 		por	%xmm5, %xmm15
 2445      FD
 2446 32e0 66440F7F 		movdqa	%xmm15, -112(%rsp)
 2446      7C2490
 2447 32e7 66440F6F 		movdqa	.LC34(%rip), %xmm15
 2447      3D000000 
 2447      00
 2448 32f0 66440F38 		pshufb	-112(%rsp), %xmm15
 2448      007C2490 
 2449 32f8 66410FEB 		por	%xmm15, %xmm3
 2449      DF
 2450 32fd 66440F6F 		movdqa	%xmm1, %xmm15
 2450      F9
 2451 3302 66450F38 		pshufb	%xmm14, %xmm15
 2451      00FE
 2452 3308 66440FF8 		psubb	%xmm2, %xmm14
 2452      F2
 2453 330d 66440FDB 		pand	%xmm0, %xmm14
 2453      F0
 2454 3312 66440FEB 		por	%xmm5, %xmm15
 2454      FD
 2455 3317 66440F7F 		movdqa	%xmm15, -112(%rsp)
 2455      7C2490
 2456 331e 66440F6F 		movdqa	.LC35(%rip), %xmm15
 2456      3D000000 
 2456      00
 2457 3327 66440F38 		pshufb	-112(%rsp), %xmm15
 2457      007C2490 
 2458 332f 66410FEB 		por	%xmm15, %xmm3
 2458      DF
 2459 3334 66440F6F 		movdqa	%xmm1, %xmm15
 2459      F9
 2460 3339 66450F38 		pshufb	%xmm14, %xmm15
 2460      00FE
 2461 333f 66440FF8 		psubb	%xmm2, %xmm14
 2461      F2
 2462 3344 66440FDB 		pand	%xmm0, %xmm14
 2462      F0
 2463 3349 66440FEB 		por	%xmm5, %xmm15
 2463      FD
 2464 334e 66440F7F 		movdqa	%xmm15, -112(%rsp)
 2464      7C2490
 2465 3355 66440F6F 		movdqa	.LC36(%rip), %xmm15
 2465      3D000000 
 2465      00
 2466 335e 66440F38 		pshufb	-112(%rsp), %xmm15
 2466      007C2490 
 2467 3366 66410FEB 		por	%xmm15, %xmm3
 2467      DF
 2468 336b 66440F6F 		movdqa	%xmm1, %xmm15
 2468      F9
GAS LISTING /tmp/ccABNvJu.s 			page 126


 2469 3370 66450F38 		pshufb	%xmm14, %xmm15
 2469      00FE
 2470 3376 66440FF8 		psubb	%xmm2, %xmm14
 2470      F2
 2471 337b 66440FDB 		pand	%xmm0, %xmm14
 2471      F0
 2472 3380 66440FEB 		por	%xmm5, %xmm15
 2472      FD
 2473 3385 66440F7F 		movdqa	%xmm15, -112(%rsp)
 2473      7C2490
 2474 338c 66440F6F 		movdqa	.LC37(%rip), %xmm15
 2474      3D000000 
 2474      00
 2475 3395 66440F38 		pshufb	-112(%rsp), %xmm15
 2475      007C2490 
 2476 339d 66410FEB 		por	%xmm15, %xmm3
 2476      DF
 2477 33a2 66440F6F 		movdqa	%xmm1, %xmm15
 2477      F9
 2478 33a7 66450F38 		pshufb	%xmm14, %xmm15
 2478      00FE
 2479 33ad 66440FF8 		psubb	%xmm2, %xmm14
 2479      F2
 2480 33b2 66440FDB 		pand	%xmm0, %xmm14
 2480      F0
 2481 33b7 66440FEB 		por	%xmm5, %xmm15
 2481      FD
 2482 33bc 66440F7F 		movdqa	%xmm15, -112(%rsp)
 2482      7C2490
 2483 33c3 66440F6F 		movdqa	.LC38(%rip), %xmm15
 2483      3D000000 
 2483      00
 2484 33cc 66440F38 		pshufb	-112(%rsp), %xmm15
 2484      007C2490 
 2485 33d4 66410FEB 		por	%xmm15, %xmm3
 2485      DF
 2486 33d9 66440F6F 		movdqa	%xmm1, %xmm15
 2486      F9
 2487 33de 66450F38 		pshufb	%xmm14, %xmm15
 2487      00FE
 2488 33e4 66440FF8 		psubb	%xmm2, %xmm14
 2488      F2
 2489 33e9 66440FDB 		pand	%xmm0, %xmm14
 2489      F0
 2490 33ee 66440FEB 		por	%xmm5, %xmm15
 2490      FD
 2491 33f3 66440F7F 		movdqa	%xmm15, -112(%rsp)
 2491      7C2490
 2492 33fa 66440F6F 		movdqa	.LC39(%rip), %xmm15
 2492      3D000000 
 2492      00
 2493 3403 66440F38 		pshufb	-112(%rsp), %xmm15
 2493      007C2490 
 2494 340b 66410FEB 		por	%xmm15, %xmm3
 2494      DF
 2495 3410 66440F6F 		movdqa	%xmm1, %xmm15
 2495      F9
GAS LISTING /tmp/ccABNvJu.s 			page 127


 2496 3415 66450F38 		pshufb	%xmm14, %xmm15
 2496      00FE
 2497 341b 66440FF8 		psubb	%xmm2, %xmm14
 2497      F2
 2498 3420 66440FDB 		pand	%xmm0, %xmm14
 2498      F0
 2499 3425 66440FEB 		por	%xmm5, %xmm15
 2499      FD
 2500 342a 66440F7F 		movdqa	%xmm15, -112(%rsp)
 2500      7C2490
 2501 3431 66440F6F 		movdqa	.LC40(%rip), %xmm15
 2501      3D000000 
 2501      00
 2502 343a 66440F38 		pshufb	-112(%rsp), %xmm15
 2502      007C2490 
 2503 3442 66410FEB 		por	%xmm15, %xmm3
 2503      DF
 2504 3447 66440F6F 		movdqa	%xmm1, %xmm15
 2504      F9
 2505 344c 66450F38 		pshufb	%xmm14, %xmm15
 2505      00FE
 2506 3452 66440FF8 		psubb	%xmm2, %xmm14
 2506      F2
 2507 3457 66440FDB 		pand	%xmm0, %xmm14
 2507      F0
 2508 345c 66440FEB 		por	%xmm5, %xmm15
 2508      FD
 2509 3461 66440F7F 		movdqa	%xmm15, -112(%rsp)
 2509      7C2490
 2510 3468 66440F6F 		movdqa	.LC41(%rip), %xmm15
 2510      3D000000 
 2510      00
 2511 3471 66440F38 		pshufb	-112(%rsp), %xmm15
 2511      007C2490 
 2512 3479 66410FEB 		por	%xmm15, %xmm3
 2512      DF
 2513 347e 66440F6F 		movdqa	%xmm1, %xmm15
 2513      F9
 2514 3483 66450F38 		pshufb	%xmm14, %xmm15
 2514      00FE
 2515 3489 66450F6F 		movdqa	%xmm15, %xmm14
 2515      F7
 2516 348e 66450F6F 		movdqa	%xmm12, %xmm15
 2516      FC
 2517 3493 66440FEB 		por	%xmm5, %xmm14
 2517      F5
 2518 3498 660F6F2D 		movdqa	.LC42(%rip), %xmm5
 2518      00000000 
 2519 34a0 66410F38 		pshufb	%xmm14, %xmm5
 2519      00EE
 2520 34a6 66440F6F 		movdqa	%xmm5, %xmm14
 2520      F5
 2521 34ab 66440FEB 		por	%xmm3, %xmm14
 2521      F3
 2522 34b0 660F6FDF 		movdqa	%xmm7, %xmm3
 2523 34b4 660F3800 		pshufb	%xmm4, %xmm3
 2523      DC
GAS LISTING /tmp/ccABNvJu.s 			page 128


 2524 34b9 66440F38 		pshufb	.LC20(%rip), %xmm14
 2524      00350000 
 2524      0000
 2525 34c3 660FEFFB 		pxor	%xmm3, %xmm7
 2526 34c7 660F3800 		pshufb	%xmm4, %xmm3
 2526      DC
 2527 34cc 66440FEF 		pxor	.LC45(%rip), %xmm14
 2527      35000000 
 2527      00
 2528 34d5 660F6FEB 		movdqa	%xmm3, %xmm5
 2529 34d9 660FEFFB 		pxor	%xmm3, %xmm7
 2530 34dd 660F6FDE 		movdqa	%xmm6, %xmm3
 2531 34e1 660F3800 		pshufb	%xmm4, %xmm5
 2531      EC
 2532 34e6 66450F70 		pshufd	$255, %xmm14, %xmm14
 2532      F6FF
 2533 34ec 660F3800 		pshufb	%xmm4, %xmm3
 2533      DC
 2534 34f1 660FEFFD 		pxor	%xmm5, %xmm7
 2535 34f5 660FEFF3 		pxor	%xmm3, %xmm6
 2536 34f9 66410FEF 		pxor	%xmm14, %xmm7
 2536      FE
 2537 34fe 660F3800 		pshufb	%xmm4, %xmm3
 2537      DC
 2538 3503 660F7F78 		movdqa	%xmm7, 64(%rax)
 2538      40
 2539 3508 660F6FEB 		movdqa	%xmm3, %xmm5
 2540 350c F30F7F7C 		movdqu	%xmm7, -32(%rsp)
 2540      24E0
 2541 3512 660F3800 		pshufb	%xmm4, %xmm5
 2541      EC
 2542 3517 660FEFF3 		pxor	%xmm3, %xmm6
 2543 351b 660F6FD9 		movdqa	%xmm1, %xmm3
 2544 351f 8B4C24EC 		movl	-20(%rsp), %ecx
 2545 3523 660FEFF5 		pxor	%xmm5, %xmm6
 2546 3527 0FB6D9   		movzbl	%cl, %ebx
 2547 352a 8A0C1A   		movb	(%rdx,%rbx), %cl
 2548 352d 0FB6DD   		movzbl	%ch, %ebx
 2549 3530 0FB61C1A 		movzbl	(%rdx,%rbx), %ebx
 2550 3534 88DD     		movb	%bl, %ch
 2551 3536 89CB     		movl	%ecx, %ebx
 2552 3538 81E1FFFF 		andl	$-16711681, %ecx
 2552      00FF
 2553 353e C1EB10   		shrl	$16, %ebx
 2554 3541 0FB6DB   		movzbl	%bl, %ebx
 2555 3544 0FB6341A 		movzbl	(%rdx,%rbx), %esi
 2556 3548 C1E610   		sall	$16, %esi
 2557 354b 09F1     		orl	%esi, %ecx
 2558 354d 89CB     		movl	%ecx, %ebx
 2559 354f 81E1FFFF 		andl	$16777215, %ecx
 2559      FF00
 2560 3555 C1EB18   		shrl	$24, %ebx
 2561 3558 0FB6DB   		movzbl	%bl, %ebx
 2562 355b 0FB6341A 		movzbl	(%rdx,%rbx), %esi
 2563 355f C1E618   		sall	$24, %esi
 2564 3562 09F1     		orl	%esi, %ecx
 2565 3564 894C24EC 		movl	%ecx, -20(%rsp)
GAS LISTING /tmp/ccABNvJu.s 			page 129


 2566 3568 894C24E8 		movl	%ecx, -24(%rsp)
 2567 356c 894C24E4 		movl	%ecx, -28(%rsp)
 2568 3570 894C24E0 		movl	%ecx, -32(%rsp)
 2569 3574 660FEF74 		pxor	-32(%rsp), %xmm6
 2569      24E0
 2570 357a 66440F6F 		movdqa	%xmm6, %xmm14
 2570      F6
 2571 357f 660F6FEE 		movdqa	%xmm6, %xmm5
 2572 3583 66410F72 		psrld	$4, %xmm14
 2572      D604
 2573 3589 66440FDB 		pand	%xmm0, %xmm14
 2573      F0
 2574 358e 660FDBE8 		pand	%xmm0, %xmm5
 2575 3592 660F7F70 		movdqa	%xmm6, 80(%rax)
 2575      50
 2576 3597 66410F38 		pshufb	%xmm14, %xmm3
 2576      00DE
 2577 359d 66440FF8 		psubb	%xmm2, %xmm14
 2577      F2
 2578 35a2 66440FDB 		pand	%xmm0, %xmm14
 2578      F0
 2579 35a7 660FEBDD 		por	%xmm5, %xmm3
 2580 35ab 66440F38 		pshufb	%xmm3, %xmm15
 2580      00FB
 2581 35b1 66410F6F 		movdqa	%xmm15, %xmm3
 2581      DF
 2582 35b6 66450FEF 		pxor	%xmm15, %xmm15
 2582      FF
 2583 35bb 66410FEB 		por	%xmm15, %xmm3
 2583      DF
 2584 35c0 66440F6F 		movdqa	%xmm1, %xmm15
 2584      F9
 2585 35c5 66450F38 		pshufb	%xmm14, %xmm15
 2585      00FE
 2586 35cb 66440FF8 		psubb	%xmm2, %xmm14
 2586      F2
 2587 35d0 66440FDB 		pand	%xmm0, %xmm14
 2587      F0
 2588 35d5 66440FEB 		por	%xmm5, %xmm15
 2588      FD
 2589 35da 66440F7F 		movdqa	%xmm15, -112(%rsp)
 2589      7C2490
 2590 35e1 66450F6F 		movdqa	%xmm11, %xmm15
 2590      FB
 2591 35e6 66440F38 		pshufb	-112(%rsp), %xmm15
 2591      007C2490 
 2592 35ee 66410FEB 		por	%xmm15, %xmm3
 2592      DF
 2593 35f3 66440F6F 		movdqa	%xmm1, %xmm15
 2593      F9
 2594 35f8 66450F38 		pshufb	%xmm14, %xmm15
 2594      00FE
 2595 35fe 66440FF8 		psubb	%xmm2, %xmm14
 2595      F2
 2596 3603 66440FDB 		pand	%xmm0, %xmm14
 2596      F0
 2597 3608 66440FEB 		por	%xmm5, %xmm15
GAS LISTING /tmp/ccABNvJu.s 			page 130


 2597      FD
 2598 360d 66440F7F 		movdqa	%xmm15, -112(%rsp)
 2598      7C2490
 2599 3614 66450F6F 		movdqa	%xmm10, %xmm15
 2599      FA
 2600 3619 66440F38 		pshufb	-112(%rsp), %xmm15
 2600      007C2490 
 2601 3621 66410FEB 		por	%xmm15, %xmm3
 2601      DF
 2602 3626 66440F6F 		movdqa	%xmm1, %xmm15
 2602      F9
 2603 362b 66450F38 		pshufb	%xmm14, %xmm15
 2603      00FE
 2604 3631 66440FF8 		psubb	%xmm2, %xmm14
 2604      F2
 2605 3636 66440FDB 		pand	%xmm0, %xmm14
 2605      F0
 2606 363b 66440FEB 		por	%xmm5, %xmm15
 2606      FD
 2607 3640 66440F7F 		movdqa	%xmm15, -112(%rsp)
 2607      7C2490
 2608 3647 66450F6F 		movdqa	%xmm9, %xmm15
 2608      F9
 2609 364c 66440F38 		pshufb	-112(%rsp), %xmm15
 2609      007C2490 
 2610 3654 66410FEB 		por	%xmm15, %xmm3
 2610      DF
 2611 3659 66440F6F 		movdqa	%xmm1, %xmm15
 2611      F9
 2612 365e 66450F38 		pshufb	%xmm14, %xmm15
 2612      00FE
 2613 3664 66440FF8 		psubb	%xmm2, %xmm14
 2613      F2
 2614 3669 66440FDB 		pand	%xmm0, %xmm14
 2614      F0
 2615 366e 66440FEB 		por	%xmm5, %xmm15
 2615      FD
 2616 3673 66440F7F 		movdqa	%xmm15, -112(%rsp)
 2616      7C2490
 2617 367a 66450F6F 		movdqa	%xmm8, %xmm15
 2617      F8
 2618 367f 66440F38 		pshufb	-112(%rsp), %xmm15
 2618      007C2490 
 2619 3687 66410FEB 		por	%xmm15, %xmm3
 2619      DF
 2620 368c 66440F6F 		movdqa	%xmm1, %xmm15
 2620      F9
 2621 3691 66450F38 		pshufb	%xmm14, %xmm15
 2621      00FE
 2622 3697 66440FF8 		psubb	%xmm2, %xmm14
 2622      F2
 2623 369c 66440FDB 		pand	%xmm0, %xmm14
 2623      F0
 2624 36a1 66440FEB 		por	%xmm5, %xmm15
 2624      FD
 2625 36a6 66440F7F 		movdqa	%xmm15, -112(%rsp)
 2625      7C2490
GAS LISTING /tmp/ccABNvJu.s 			page 131


 2626 36ad 66440F6F 		movdqa	.LC32(%rip), %xmm15
 2626      3D000000 
 2626      00
 2627 36b6 66440F38 		pshufb	-112(%rsp), %xmm15
 2627      007C2490 
 2628 36be 66410FEB 		por	%xmm15, %xmm3
 2628      DF
 2629 36c3 66440F6F 		movdqa	%xmm1, %xmm15
 2629      F9
 2630 36c8 66450F38 		pshufb	%xmm14, %xmm15
 2630      00FE
 2631 36ce 66440FF8 		psubb	%xmm2, %xmm14
 2631      F2
 2632 36d3 66440FDB 		pand	%xmm0, %xmm14
 2632      F0
 2633 36d8 66440FEB 		por	%xmm5, %xmm15
 2633      FD
 2634 36dd 66440F7F 		movdqa	%xmm15, -112(%rsp)
 2634      7C2490
 2635 36e4 66440F6F 		movdqa	.LC33(%rip), %xmm15
 2635      3D000000 
 2635      00
 2636 36ed 66440F38 		pshufb	-112(%rsp), %xmm15
 2636      007C2490 
 2637 36f5 66410FEB 		por	%xmm15, %xmm3
 2637      DF
 2638 36fa 66440F6F 		movdqa	%xmm1, %xmm15
 2638      F9
 2639 36ff 66450F38 		pshufb	%xmm14, %xmm15
 2639      00FE
 2640 3705 66440FF8 		psubb	%xmm2, %xmm14
 2640      F2
 2641 370a 66440FDB 		pand	%xmm0, %xmm14
 2641      F0
 2642 370f 66440FEB 		por	%xmm5, %xmm15
 2642      FD
 2643 3714 66440F7F 		movdqa	%xmm15, -112(%rsp)
 2643      7C2490
 2644 371b 66440F6F 		movdqa	.LC34(%rip), %xmm15
 2644      3D000000 
 2644      00
 2645 3724 66440F38 		pshufb	-112(%rsp), %xmm15
 2645      007C2490 
 2646 372c 66410FEB 		por	%xmm15, %xmm3
 2646      DF
 2647 3731 66440F6F 		movdqa	%xmm1, %xmm15
 2647      F9
 2648 3736 66450F38 		pshufb	%xmm14, %xmm15
 2648      00FE
 2649 373c 66440FF8 		psubb	%xmm2, %xmm14
 2649      F2
 2650 3741 66440FDB 		pand	%xmm0, %xmm14
 2650      F0
 2651 3746 66440FEB 		por	%xmm5, %xmm15
 2651      FD
 2652 374b 66440F7F 		movdqa	%xmm15, -112(%rsp)
 2652      7C2490
GAS LISTING /tmp/ccABNvJu.s 			page 132


 2653 3752 66440F6F 		movdqa	.LC35(%rip), %xmm15
 2653      3D000000 
 2653      00
 2654 375b 66440F38 		pshufb	-112(%rsp), %xmm15
 2654      007C2490 
 2655 3763 66410FEB 		por	%xmm15, %xmm3
 2655      DF
 2656 3768 66440F6F 		movdqa	%xmm1, %xmm15
 2656      F9
 2657 376d 66450F38 		pshufb	%xmm14, %xmm15
 2657      00FE
 2658 3773 66440FF8 		psubb	%xmm2, %xmm14
 2658      F2
 2659 3778 66440FDB 		pand	%xmm0, %xmm14
 2659      F0
 2660 377d 66440FEB 		por	%xmm5, %xmm15
 2660      FD
 2661 3782 66440F7F 		movdqa	%xmm15, -112(%rsp)
 2661      7C2490
 2662 3789 66440F6F 		movdqa	.LC36(%rip), %xmm15
 2662      3D000000 
 2662      00
 2663 3792 66440F38 		pshufb	-112(%rsp), %xmm15
 2663      007C2490 
 2664 379a 66410FEB 		por	%xmm15, %xmm3
 2664      DF
 2665 379f 66440F6F 		movdqa	%xmm1, %xmm15
 2665      F9
 2666 37a4 66450F38 		pshufb	%xmm14, %xmm15
 2666      00FE
 2667 37aa 66440FF8 		psubb	%xmm2, %xmm14
 2667      F2
 2668 37af 66440FDB 		pand	%xmm0, %xmm14
 2668      F0
 2669 37b4 66440FEB 		por	%xmm5, %xmm15
 2669      FD
 2670 37b9 66440F7F 		movdqa	%xmm15, -112(%rsp)
 2670      7C2490
 2671 37c0 66440F6F 		movdqa	.LC37(%rip), %xmm15
 2671      3D000000 
 2671      00
 2672 37c9 66440F38 		pshufb	-112(%rsp), %xmm15
 2672      007C2490 
 2673 37d1 66410FEB 		por	%xmm15, %xmm3
 2673      DF
 2674 37d6 66440F6F 		movdqa	%xmm1, %xmm15
 2674      F9
 2675 37db 66450F38 		pshufb	%xmm14, %xmm15
 2675      00FE
 2676 37e1 66440FF8 		psubb	%xmm2, %xmm14
 2676      F2
 2677 37e6 66440FDB 		pand	%xmm0, %xmm14
 2677      F0
 2678 37eb 66440FEB 		por	%xmm5, %xmm15
 2678      FD
 2679 37f0 66440F7F 		movdqa	%xmm15, -112(%rsp)
 2679      7C2490
GAS LISTING /tmp/ccABNvJu.s 			page 133


 2680 37f7 66440F6F 		movdqa	.LC38(%rip), %xmm15
 2680      3D000000 
 2680      00
 2681 3800 66440F38 		pshufb	-112(%rsp), %xmm15
 2681      007C2490 
 2682 3808 66410FEB 		por	%xmm15, %xmm3
 2682      DF
 2683 380d 66440F6F 		movdqa	%xmm1, %xmm15
 2683      F9
 2684 3812 66450F38 		pshufb	%xmm14, %xmm15
 2684      00FE
 2685 3818 66440FF8 		psubb	%xmm2, %xmm14
 2685      F2
 2686 381d 66440FDB 		pand	%xmm0, %xmm14
 2686      F0
 2687 3822 66440FEB 		por	%xmm5, %xmm15
 2687      FD
 2688 3827 66440F7F 		movdqa	%xmm15, -112(%rsp)
 2688      7C2490
 2689 382e 66440F6F 		movdqa	.LC39(%rip), %xmm15
 2689      3D000000 
 2689      00
 2690 3837 66440F38 		pshufb	-112(%rsp), %xmm15
 2690      007C2490 
 2691 383f 66410FEB 		por	%xmm15, %xmm3
 2691      DF
 2692 3844 66440F6F 		movdqa	%xmm1, %xmm15
 2692      F9
 2693 3849 66450F38 		pshufb	%xmm14, %xmm15
 2693      00FE
 2694 384f 66440FF8 		psubb	%xmm2, %xmm14
 2694      F2
 2695 3854 66440FDB 		pand	%xmm0, %xmm14
 2695      F0
 2696 3859 66440FEB 		por	%xmm5, %xmm15
 2696      FD
 2697 385e 66440F7F 		movdqa	%xmm15, -112(%rsp)
 2697      7C2490
 2698 3865 66440F6F 		movdqa	.LC40(%rip), %xmm15
 2698      3D000000 
 2698      00
 2699 386e 66440F38 		pshufb	-112(%rsp), %xmm15
 2699      007C2490 
 2700 3876 66410FEB 		por	%xmm15, %xmm3
 2700      DF
 2701 387b 66440F6F 		movdqa	%xmm1, %xmm15
 2701      F9
 2702 3880 66450F38 		pshufb	%xmm14, %xmm15
 2702      00FE
 2703 3886 66440FF8 		psubb	%xmm2, %xmm14
 2703      F2
 2704 388b 66440FDB 		pand	%xmm0, %xmm14
 2704      F0
 2705 3890 66440FEB 		por	%xmm5, %xmm15
 2705      FD
 2706 3895 66440F7F 		movdqa	%xmm15, -112(%rsp)
 2706      7C2490
GAS LISTING /tmp/ccABNvJu.s 			page 134


 2707 389c 66440F6F 		movdqa	.LC41(%rip), %xmm15
 2707      3D000000 
 2707      00
 2708 38a5 66440F38 		pshufb	-112(%rsp), %xmm15
 2708      007C2490 
 2709 38ad 66410FEB 		por	%xmm15, %xmm3
 2709      DF
 2710 38b2 66440F6F 		movdqa	%xmm1, %xmm15
 2710      F9
 2711 38b7 66450F38 		pshufb	%xmm14, %xmm15
 2711      00FE
 2712 38bd 66450F6F 		movdqa	%xmm15, %xmm14
 2712      F7
 2713 38c2 66450F6F 		movdqa	%xmm12, %xmm15
 2713      FC
 2714 38c7 66440FEB 		por	%xmm5, %xmm14
 2714      F5
 2715 38cc 660F6F2D 		movdqa	.LC42(%rip), %xmm5
 2715      00000000 
 2716 38d4 66410F38 		pshufb	%xmm14, %xmm5
 2716      00EE
 2717 38da 66440F6F 		movdqa	%xmm5, %xmm14
 2717      F5
 2718 38df 66440FEB 		por	%xmm3, %xmm14
 2718      F3
 2719 38e4 660F6FDF 		movdqa	%xmm7, %xmm3
 2720 38e8 660F3800 		pshufb	%xmm4, %xmm3
 2720      DC
 2721 38ed 66440F38 		pshufb	.LC20(%rip), %xmm14
 2721      00350000 
 2721      0000
 2722 38f7 660FEFFB 		pxor	%xmm3, %xmm7
 2723 38fb 660F3800 		pshufb	%xmm4, %xmm3
 2723      DC
 2724 3900 66440FEF 		pxor	.LC46(%rip), %xmm14
 2724      35000000 
 2724      00
 2725 3909 660F6FEB 		movdqa	%xmm3, %xmm5
 2726 390d 660FEFFB 		pxor	%xmm3, %xmm7
 2727 3911 660F6FDE 		movdqa	%xmm6, %xmm3
 2728 3915 660F3800 		pshufb	%xmm4, %xmm5
 2728      EC
 2729 391a 66450F70 		pshufd	$255, %xmm14, %xmm14
 2729      F6FF
 2730 3920 660F3800 		pshufb	%xmm4, %xmm3
 2730      DC
 2731 3925 660FEFFD 		pxor	%xmm5, %xmm7
 2732 3929 660FEFF3 		pxor	%xmm3, %xmm6
 2733 392d 66410FEF 		pxor	%xmm14, %xmm7
 2733      FE
 2734 3932 660F3800 		pshufb	%xmm4, %xmm3
 2734      DC
 2735 3937 660F7F78 		movdqa	%xmm7, 96(%rax)
 2735      60
 2736 393c 660F6FEB 		movdqa	%xmm3, %xmm5
 2737 3940 F30F7F7C 		movdqu	%xmm7, -48(%rsp)
 2737      24D0
GAS LISTING /tmp/ccABNvJu.s 			page 135


 2738 3946 660F3800 		pshufb	%xmm4, %xmm5
 2738      EC
 2739 394b 660FEFF3 		pxor	%xmm3, %xmm6
 2740 394f 660F6FD9 		movdqa	%xmm1, %xmm3
 2741 3953 8B4C24DC 		movl	-36(%rsp), %ecx
 2742 3957 660FEFF5 		pxor	%xmm5, %xmm6
 2743 395b 0FB6D9   		movzbl	%cl, %ebx
 2744 395e 8A0C1A   		movb	(%rdx,%rbx), %cl
 2745 3961 0FB6DD   		movzbl	%ch, %ebx
 2746 3964 0FB61C1A 		movzbl	(%rdx,%rbx), %ebx
 2747 3968 88DD     		movb	%bl, %ch
 2748 396a 89CB     		movl	%ecx, %ebx
 2749 396c 81E1FFFF 		andl	$-16711681, %ecx
 2749      00FF
 2750 3972 C1EB10   		shrl	$16, %ebx
 2751 3975 0FB6DB   		movzbl	%bl, %ebx
 2752 3978 0FB6341A 		movzbl	(%rdx,%rbx), %esi
 2753 397c C1E610   		sall	$16, %esi
 2754 397f 09F1     		orl	%esi, %ecx
 2755 3981 89CB     		movl	%ecx, %ebx
 2756 3983 81E1FFFF 		andl	$16777215, %ecx
 2756      FF00
 2757 3989 C1EB18   		shrl	$24, %ebx
 2758 398c 0FB6DB   		movzbl	%bl, %ebx
 2759 398f 0FB6341A 		movzbl	(%rdx,%rbx), %esi
 2760 3993 C1E618   		sall	$24, %esi
 2761 3996 09F1     		orl	%esi, %ecx
 2762 3998 894C24DC 		movl	%ecx, -36(%rsp)
 2763 399c 894C24D8 		movl	%ecx, -40(%rsp)
 2764 39a0 894C24D4 		movl	%ecx, -44(%rsp)
 2765 39a4 894C24D0 		movl	%ecx, -48(%rsp)
 2766 39a8 660FEF74 		pxor	-48(%rsp), %xmm6
 2766      24D0
 2767 39ae 66440F6F 		movdqa	%xmm6, %xmm14
 2767      F6
 2768 39b3 660F6FEE 		movdqa	%xmm6, %xmm5
 2769 39b7 66410F72 		psrld	$4, %xmm14
 2769      D604
 2770 39bd 66440FDB 		pand	%xmm0, %xmm14
 2770      F0
 2771 39c2 660FDBE8 		pand	%xmm0, %xmm5
 2772 39c6 660F7F70 		movdqa	%xmm6, 112(%rax)
 2772      70
 2773 39cb 66410F38 		pshufb	%xmm14, %xmm3
 2773      00DE
 2774 39d1 66440FF8 		psubb	%xmm2, %xmm14
 2774      F2
 2775 39d6 66440FDB 		pand	%xmm0, %xmm14
 2775      F0
 2776 39db 660FEBDD 		por	%xmm5, %xmm3
 2777 39df 66440F38 		pshufb	%xmm3, %xmm15
 2777      00FB
 2778 39e5 66410F6F 		movdqa	%xmm15, %xmm3
 2778      DF
 2779 39ea 66450FEF 		pxor	%xmm15, %xmm15
 2779      FF
 2780 39ef 66410FEB 		por	%xmm15, %xmm3
GAS LISTING /tmp/ccABNvJu.s 			page 136


 2780      DF
 2781 39f4 66440F6F 		movdqa	%xmm1, %xmm15
 2781      F9
 2782 39f9 66450F38 		pshufb	%xmm14, %xmm15
 2782      00FE
 2783 39ff 66440FF8 		psubb	%xmm2, %xmm14
 2783      F2
 2784 3a04 66440FDB 		pand	%xmm0, %xmm14
 2784      F0
 2785 3a09 66440FEB 		por	%xmm5, %xmm15
 2785      FD
 2786 3a0e 66440F7F 		movdqa	%xmm15, -112(%rsp)
 2786      7C2490
 2787 3a15 66450F6F 		movdqa	%xmm11, %xmm15
 2787      FB
 2788 3a1a 66440F38 		pshufb	-112(%rsp), %xmm15
 2788      007C2490 
 2789 3a22 66410FEB 		por	%xmm15, %xmm3
 2789      DF
 2790 3a27 66440F6F 		movdqa	%xmm1, %xmm15
 2790      F9
 2791 3a2c 66450F38 		pshufb	%xmm14, %xmm15
 2791      00FE
 2792 3a32 66440FF8 		psubb	%xmm2, %xmm14
 2792      F2
 2793 3a37 66440FDB 		pand	%xmm0, %xmm14
 2793      F0
 2794 3a3c 66440FEB 		por	%xmm5, %xmm15
 2794      FD
 2795 3a41 66440F7F 		movdqa	%xmm15, -112(%rsp)
 2795      7C2490
 2796 3a48 66450F6F 		movdqa	%xmm10, %xmm15
 2796      FA
 2797 3a4d 66440F38 		pshufb	-112(%rsp), %xmm15
 2797      007C2490 
 2798 3a55 66410FEB 		por	%xmm15, %xmm3
 2798      DF
 2799 3a5a 66440F6F 		movdqa	%xmm1, %xmm15
 2799      F9
 2800 3a5f 66450F38 		pshufb	%xmm14, %xmm15
 2800      00FE
 2801 3a65 66440FF8 		psubb	%xmm2, %xmm14
 2801      F2
 2802 3a6a 66440FDB 		pand	%xmm0, %xmm14
 2802      F0
 2803 3a6f 66440FEB 		por	%xmm5, %xmm15
 2803      FD
 2804 3a74 66440F7F 		movdqa	%xmm15, -112(%rsp)
 2804      7C2490
 2805 3a7b 66450F6F 		movdqa	%xmm9, %xmm15
 2805      F9
 2806 3a80 66440F38 		pshufb	-112(%rsp), %xmm15
 2806      007C2490 
 2807 3a88 66410FEB 		por	%xmm15, %xmm3
 2807      DF
 2808 3a8d 66440F6F 		movdqa	%xmm1, %xmm15
 2808      F9
GAS LISTING /tmp/ccABNvJu.s 			page 137


 2809 3a92 66450F38 		pshufb	%xmm14, %xmm15
 2809      00FE
 2810 3a98 66440FF8 		psubb	%xmm2, %xmm14
 2810      F2
 2811 3a9d 66440FDB 		pand	%xmm0, %xmm14
 2811      F0
 2812 3aa2 66440FEB 		por	%xmm5, %xmm15
 2812      FD
 2813 3aa7 66440F7F 		movdqa	%xmm15, -112(%rsp)
 2813      7C2490
 2814 3aae 66450F6F 		movdqa	%xmm8, %xmm15
 2814      F8
 2815 3ab3 66440F38 		pshufb	-112(%rsp), %xmm15
 2815      007C2490 
 2816 3abb 66410FEB 		por	%xmm15, %xmm3
 2816      DF
 2817 3ac0 66440F6F 		movdqa	%xmm1, %xmm15
 2817      F9
 2818 3ac5 66450F38 		pshufb	%xmm14, %xmm15
 2818      00FE
 2819 3acb 66440FF8 		psubb	%xmm2, %xmm14
 2819      F2
 2820 3ad0 66440FDB 		pand	%xmm0, %xmm14
 2820      F0
 2821 3ad5 66440FEB 		por	%xmm5, %xmm15
 2821      FD
 2822 3ada 66440F7F 		movdqa	%xmm15, -112(%rsp)
 2822      7C2490
 2823 3ae1 66440F6F 		movdqa	.LC32(%rip), %xmm15
 2823      3D000000 
 2823      00
 2824 3aea 66440F38 		pshufb	-112(%rsp), %xmm15
 2824      007C2490 
 2825 3af2 66410FEB 		por	%xmm15, %xmm3
 2825      DF
 2826 3af7 66440F6F 		movdqa	%xmm1, %xmm15
 2826      F9
 2827 3afc 66450F38 		pshufb	%xmm14, %xmm15
 2827      00FE
 2828 3b02 66440FF8 		psubb	%xmm2, %xmm14
 2828      F2
 2829 3b07 66440FDB 		pand	%xmm0, %xmm14
 2829      F0
 2830 3b0c 66440FEB 		por	%xmm5, %xmm15
 2830      FD
 2831 3b11 66440F7F 		movdqa	%xmm15, -112(%rsp)
 2831      7C2490
 2832 3b18 66440F6F 		movdqa	.LC33(%rip), %xmm15
 2832      3D000000 
 2832      00
 2833 3b21 66440F38 		pshufb	-112(%rsp), %xmm15
 2833      007C2490 
 2834 3b29 66410FEB 		por	%xmm15, %xmm3
 2834      DF
 2835 3b2e 66440F6F 		movdqa	%xmm1, %xmm15
 2835      F9
 2836 3b33 66450F38 		pshufb	%xmm14, %xmm15
GAS LISTING /tmp/ccABNvJu.s 			page 138


 2836      00FE
 2837 3b39 66440FF8 		psubb	%xmm2, %xmm14
 2837      F2
 2838 3b3e 66440FDB 		pand	%xmm0, %xmm14
 2838      F0
 2839 3b43 66440FEB 		por	%xmm5, %xmm15
 2839      FD
 2840 3b48 66440F7F 		movdqa	%xmm15, -112(%rsp)
 2840      7C2490
 2841 3b4f 66440F6F 		movdqa	.LC34(%rip), %xmm15
 2841      3D000000 
 2841      00
 2842 3b58 66440F38 		pshufb	-112(%rsp), %xmm15
 2842      007C2490 
 2843 3b60 66410FEB 		por	%xmm15, %xmm3
 2843      DF
 2844 3b65 66440F6F 		movdqa	%xmm1, %xmm15
 2844      F9
 2845 3b6a 66450F38 		pshufb	%xmm14, %xmm15
 2845      00FE
 2846 3b70 66440FF8 		psubb	%xmm2, %xmm14
 2846      F2
 2847 3b75 66440FDB 		pand	%xmm0, %xmm14
 2847      F0
 2848 3b7a 66440FEB 		por	%xmm5, %xmm15
 2848      FD
 2849 3b7f 66440F7F 		movdqa	%xmm15, -112(%rsp)
 2849      7C2490
 2850 3b86 66440F6F 		movdqa	.LC35(%rip), %xmm15
 2850      3D000000 
 2850      00
 2851 3b8f 66440F38 		pshufb	-112(%rsp), %xmm15
 2851      007C2490 
 2852 3b97 66410FEB 		por	%xmm15, %xmm3
 2852      DF
 2853 3b9c 66440F6F 		movdqa	%xmm1, %xmm15
 2853      F9
 2854 3ba1 66450F38 		pshufb	%xmm14, %xmm15
 2854      00FE
 2855 3ba7 66440FF8 		psubb	%xmm2, %xmm14
 2855      F2
 2856 3bac 66440FDB 		pand	%xmm0, %xmm14
 2856      F0
 2857 3bb1 66440FEB 		por	%xmm5, %xmm15
 2857      FD
 2858 3bb6 66440F7F 		movdqa	%xmm15, -112(%rsp)
 2858      7C2490
 2859 3bbd 66440F6F 		movdqa	.LC36(%rip), %xmm15
 2859      3D000000 
 2859      00
 2860 3bc6 66440F38 		pshufb	-112(%rsp), %xmm15
 2860      007C2490 
 2861 3bce 66410FEB 		por	%xmm15, %xmm3
 2861      DF
 2862 3bd3 66440F6F 		movdqa	%xmm1, %xmm15
 2862      F9
 2863 3bd8 66450F38 		pshufb	%xmm14, %xmm15
GAS LISTING /tmp/ccABNvJu.s 			page 139


 2863      00FE
 2864 3bde 66440FF8 		psubb	%xmm2, %xmm14
 2864      F2
 2865 3be3 66440FDB 		pand	%xmm0, %xmm14
 2865      F0
 2866 3be8 66440FEB 		por	%xmm5, %xmm15
 2866      FD
 2867 3bed 66440F7F 		movdqa	%xmm15, -112(%rsp)
 2867      7C2490
 2868 3bf4 66440F6F 		movdqa	.LC37(%rip), %xmm15
 2868      3D000000 
 2868      00
 2869 3bfd 66440F38 		pshufb	-112(%rsp), %xmm15
 2869      007C2490 
 2870 3c05 66410FEB 		por	%xmm15, %xmm3
 2870      DF
 2871 3c0a 66440F6F 		movdqa	%xmm1, %xmm15
 2871      F9
 2872 3c0f 66450F38 		pshufb	%xmm14, %xmm15
 2872      00FE
 2873 3c15 66440FF8 		psubb	%xmm2, %xmm14
 2873      F2
 2874 3c1a 66440FDB 		pand	%xmm0, %xmm14
 2874      F0
 2875 3c1f 66440FEB 		por	%xmm5, %xmm15
 2875      FD
 2876 3c24 66440F7F 		movdqa	%xmm15, -112(%rsp)
 2876      7C2490
 2877 3c2b 66440F6F 		movdqa	.LC38(%rip), %xmm15
 2877      3D000000 
 2877      00
 2878 3c34 66440F38 		pshufb	-112(%rsp), %xmm15
 2878      007C2490 
 2879 3c3c 66410FEB 		por	%xmm15, %xmm3
 2879      DF
 2880 3c41 66440F6F 		movdqa	%xmm1, %xmm15
 2880      F9
 2881 3c46 66450F38 		pshufb	%xmm14, %xmm15
 2881      00FE
 2882 3c4c 66440FF8 		psubb	%xmm2, %xmm14
 2882      F2
 2883 3c51 66440FDB 		pand	%xmm0, %xmm14
 2883      F0
 2884 3c56 66440FEB 		por	%xmm5, %xmm15
 2884      FD
 2885 3c5b 66440F7F 		movdqa	%xmm15, -112(%rsp)
 2885      7C2490
 2886 3c62 66440F6F 		movdqa	.LC39(%rip), %xmm15
 2886      3D000000 
 2886      00
 2887 3c6b 66440F38 		pshufb	-112(%rsp), %xmm15
 2887      007C2490 
 2888 3c73 66410FEB 		por	%xmm15, %xmm3
 2888      DF
 2889 3c78 66440F6F 		movdqa	%xmm1, %xmm15
 2889      F9
 2890 3c7d 66450F38 		pshufb	%xmm14, %xmm15
GAS LISTING /tmp/ccABNvJu.s 			page 140


 2890      00FE
 2891 3c83 66440FF8 		psubb	%xmm2, %xmm14
 2891      F2
 2892 3c88 66440FDB 		pand	%xmm0, %xmm14
 2892      F0
 2893 3c8d 66440FEB 		por	%xmm5, %xmm15
 2893      FD
 2894 3c92 66440F7F 		movdqa	%xmm15, -112(%rsp)
 2894      7C2490
 2895 3c99 66440F6F 		movdqa	.LC40(%rip), %xmm15
 2895      3D000000 
 2895      00
 2896 3ca2 66440F38 		pshufb	-112(%rsp), %xmm15
 2896      007C2490 
 2897 3caa 66410FEB 		por	%xmm15, %xmm3
 2897      DF
 2898 3caf 66440F6F 		movdqa	%xmm1, %xmm15
 2898      F9
 2899 3cb4 66450F38 		pshufb	%xmm14, %xmm15
 2899      00FE
 2900 3cba 66440FF8 		psubb	%xmm2, %xmm14
 2900      F2
 2901 3cbf 66440FDB 		pand	%xmm0, %xmm14
 2901      F0
 2902 3cc4 66440FEB 		por	%xmm5, %xmm15
 2902      FD
 2903 3cc9 66440F7F 		movdqa	%xmm15, -112(%rsp)
 2903      7C2490
 2904 3cd0 66440F6F 		movdqa	.LC41(%rip), %xmm15
 2904      3D000000 
 2904      00
 2905 3cd9 66440F38 		pshufb	-112(%rsp), %xmm15
 2905      007C2490 
 2906 3ce1 66410FEB 		por	%xmm15, %xmm3
 2906      DF
 2907 3ce6 66440F6F 		movdqa	%xmm1, %xmm15
 2907      F9
 2908 3ceb 66450F38 		pshufb	%xmm14, %xmm15
 2908      00FE
 2909 3cf1 66450F6F 		movdqa	%xmm15, %xmm14
 2909      F7
 2910 3cf6 66450F6F 		movdqa	%xmm12, %xmm15
 2910      FC
 2911 3cfb 66440FEB 		por	%xmm5, %xmm14
 2911      F5
 2912 3d00 660F6F2D 		movdqa	.LC42(%rip), %xmm5
 2912      00000000 
 2913 3d08 66410F38 		pshufb	%xmm14, %xmm5
 2913      00EE
 2914 3d0e 66440F6F 		movdqa	%xmm5, %xmm14
 2914      F5
 2915 3d13 66440FEB 		por	%xmm3, %xmm14
 2915      F3
 2916 3d18 660F6FDF 		movdqa	%xmm7, %xmm3
 2917 3d1c 660F3800 		pshufb	%xmm4, %xmm3
 2917      DC
 2918 3d21 66440F38 		pshufb	.LC20(%rip), %xmm14
GAS LISTING /tmp/ccABNvJu.s 			page 141


 2918      00350000 
 2918      0000
 2919 3d2b 660FEFFB 		pxor	%xmm3, %xmm7
 2920 3d2f 660F3800 		pshufb	%xmm4, %xmm3
 2920      DC
 2921 3d34 66440FEF 		pxor	.LC47(%rip), %xmm14
 2921      35000000 
 2921      00
 2922 3d3d 660F6FEB 		movdqa	%xmm3, %xmm5
 2923 3d41 660FEFFB 		pxor	%xmm3, %xmm7
 2924 3d45 660F6FDE 		movdqa	%xmm6, %xmm3
 2925 3d49 660F3800 		pshufb	%xmm4, %xmm5
 2925      EC
 2926 3d4e 66450F70 		pshufd	$255, %xmm14, %xmm14
 2926      F6FF
 2927 3d54 660F3800 		pshufb	%xmm4, %xmm3
 2927      DC
 2928 3d59 660FEFFD 		pxor	%xmm5, %xmm7
 2929 3d5d 660FEFF3 		pxor	%xmm3, %xmm6
 2930 3d61 66410FEF 		pxor	%xmm14, %xmm7
 2930      FE
 2931 3d66 660F3800 		pshufb	%xmm4, %xmm3
 2931      DC
 2932 3d6b 660F7FB8 		movdqa	%xmm7, 128(%rax)
 2932      80000000 
 2933 3d73 660F6FEB 		movdqa	%xmm3, %xmm5
 2934 3d77 F30F7F7C 		movdqu	%xmm7, -64(%rsp)
 2934      24C0
 2935 3d7d 660F3800 		pshufb	%xmm4, %xmm5
 2935      EC
 2936 3d82 660FEFF3 		pxor	%xmm3, %xmm6
 2937 3d86 660F6FD9 		movdqa	%xmm1, %xmm3
 2938 3d8a 8B4C24CC 		movl	-52(%rsp), %ecx
 2939 3d8e 660FEFF5 		pxor	%xmm5, %xmm6
 2940 3d92 0FB6D9   		movzbl	%cl, %ebx
 2941 3d95 8A0C1A   		movb	(%rdx,%rbx), %cl
 2942 3d98 0FB6DD   		movzbl	%ch, %ebx
 2943 3d9b 0FB61C1A 		movzbl	(%rdx,%rbx), %ebx
 2944 3d9f 88DD     		movb	%bl, %ch
 2945 3da1 89CB     		movl	%ecx, %ebx
 2946 3da3 81E1FFFF 		andl	$-16711681, %ecx
 2946      00FF
 2947 3da9 C1EB10   		shrl	$16, %ebx
 2948 3dac 0FB6DB   		movzbl	%bl, %ebx
 2949 3daf 0FB6341A 		movzbl	(%rdx,%rbx), %esi
 2950 3db3 C1E610   		sall	$16, %esi
 2951 3db6 09F1     		orl	%esi, %ecx
 2952 3db8 89CB     		movl	%ecx, %ebx
 2953 3dba 81E1FFFF 		andl	$16777215, %ecx
 2953      FF00
 2954 3dc0 C1EB18   		shrl	$24, %ebx
 2955 3dc3 0FB6DB   		movzbl	%bl, %ebx
 2956 3dc6 0FB6341A 		movzbl	(%rdx,%rbx), %esi
 2957 3dca C1E618   		sall	$24, %esi
 2958 3dcd 09F1     		orl	%esi, %ecx
 2959 3dcf 894C24CC 		movl	%ecx, -52(%rsp)
 2960 3dd3 894C24C8 		movl	%ecx, -56(%rsp)
GAS LISTING /tmp/ccABNvJu.s 			page 142


 2961 3dd7 894C24C4 		movl	%ecx, -60(%rsp)
 2962 3ddb 894C24C0 		movl	%ecx, -64(%rsp)
 2963 3ddf 660FEF74 		pxor	-64(%rsp), %xmm6
 2963      24C0
 2964 3de5 66440F6F 		movdqa	%xmm6, %xmm14
 2964      F6
 2965 3dea 660F6FEE 		movdqa	%xmm6, %xmm5
 2966 3dee 66410F72 		psrld	$4, %xmm14
 2966      D604
 2967 3df4 66440FDB 		pand	%xmm0, %xmm14
 2967      F0
 2968 3df9 660FDBE8 		pand	%xmm0, %xmm5
 2969 3dfd 660F7FB0 		movdqa	%xmm6, 144(%rax)
 2969      90000000 
 2970 3e05 66410F38 		pshufb	%xmm14, %xmm3
 2970      00DE
 2971 3e0b 66440FF8 		psubb	%xmm2, %xmm14
 2971      F2
 2972 3e10 66440FDB 		pand	%xmm0, %xmm14
 2972      F0
 2973 3e15 660FEBDD 		por	%xmm5, %xmm3
 2974 3e19 66440F38 		pshufb	%xmm3, %xmm15
 2974      00FB
 2975 3e1f 66410F6F 		movdqa	%xmm15, %xmm3
 2975      DF
 2976 3e24 66450FEF 		pxor	%xmm15, %xmm15
 2976      FF
 2977 3e29 66410FEB 		por	%xmm15, %xmm3
 2977      DF
 2978 3e2e 66440F6F 		movdqa	%xmm1, %xmm15
 2978      F9
 2979 3e33 66450F38 		pshufb	%xmm14, %xmm15
 2979      00FE
 2980 3e39 66440FF8 		psubb	%xmm2, %xmm14
 2980      F2
 2981 3e3e 66440FDB 		pand	%xmm0, %xmm14
 2981      F0
 2982 3e43 66440FEB 		por	%xmm5, %xmm15
 2982      FD
 2983 3e48 66440F7F 		movdqa	%xmm15, -112(%rsp)
 2983      7C2490
 2984 3e4f 66450F6F 		movdqa	%xmm11, %xmm15
 2984      FB
 2985 3e54 66440F38 		pshufb	-112(%rsp), %xmm15
 2985      007C2490 
 2986 3e5c 66410FEB 		por	%xmm15, %xmm3
 2986      DF
 2987 3e61 66440F6F 		movdqa	%xmm1, %xmm15
 2987      F9
 2988 3e66 66450F38 		pshufb	%xmm14, %xmm15
 2988      00FE
 2989 3e6c 66440FF8 		psubb	%xmm2, %xmm14
 2989      F2
 2990 3e71 66440FDB 		pand	%xmm0, %xmm14
 2990      F0
 2991 3e76 66440FEB 		por	%xmm5, %xmm15
 2991      FD
GAS LISTING /tmp/ccABNvJu.s 			page 143


 2992 3e7b 66440F7F 		movdqa	%xmm15, -112(%rsp)
 2992      7C2490
 2993 3e82 66450F6F 		movdqa	%xmm10, %xmm15
 2993      FA
 2994 3e87 66440F38 		pshufb	-112(%rsp), %xmm15
 2994      007C2490 
 2995 3e8f 66410FEB 		por	%xmm15, %xmm3
 2995      DF
 2996 3e94 66440F6F 		movdqa	%xmm1, %xmm15
 2996      F9
 2997 3e99 66450F38 		pshufb	%xmm14, %xmm15
 2997      00FE
 2998 3e9f 66440FF8 		psubb	%xmm2, %xmm14
 2998      F2
 2999 3ea4 66440FDB 		pand	%xmm0, %xmm14
 2999      F0
 3000 3ea9 66440FEB 		por	%xmm5, %xmm15
 3000      FD
 3001 3eae 66440F7F 		movdqa	%xmm15, -112(%rsp)
 3001      7C2490
 3002 3eb5 66450F6F 		movdqa	%xmm9, %xmm15
 3002      F9
 3003 3eba 66440F38 		pshufb	-112(%rsp), %xmm15
 3003      007C2490 
 3004 3ec2 66410FEB 		por	%xmm15, %xmm3
 3004      DF
 3005 3ec7 66440F6F 		movdqa	%xmm1, %xmm15
 3005      F9
 3006 3ecc 66450F38 		pshufb	%xmm14, %xmm15
 3006      00FE
 3007 3ed2 66440FF8 		psubb	%xmm2, %xmm14
 3007      F2
 3008 3ed7 66440FDB 		pand	%xmm0, %xmm14
 3008      F0
 3009 3edc 66440FEB 		por	%xmm5, %xmm15
 3009      FD
 3010 3ee1 66440F7F 		movdqa	%xmm15, -112(%rsp)
 3010      7C2490
 3011 3ee8 66450F6F 		movdqa	%xmm8, %xmm15
 3011      F8
 3012 3eed 66440F38 		pshufb	-112(%rsp), %xmm15
 3012      007C2490 
 3013 3ef5 66410FEB 		por	%xmm15, %xmm3
 3013      DF
 3014 3efa 66440F6F 		movdqa	%xmm1, %xmm15
 3014      F9
 3015 3eff 66450F38 		pshufb	%xmm14, %xmm15
 3015      00FE
 3016 3f05 66440FF8 		psubb	%xmm2, %xmm14
 3016      F2
 3017 3f0a 66440FDB 		pand	%xmm0, %xmm14
 3017      F0
 3018 3f0f 66440FEB 		por	%xmm5, %xmm15
 3018      FD
 3019 3f14 66440F7F 		movdqa	%xmm15, -112(%rsp)
 3019      7C2490
 3020 3f1b 66440F6F 		movdqa	.LC32(%rip), %xmm15
GAS LISTING /tmp/ccABNvJu.s 			page 144


 3020      3D000000 
 3020      00
 3021 3f24 66440F38 		pshufb	-112(%rsp), %xmm15
 3021      007C2490 
 3022 3f2c 66410FEB 		por	%xmm15, %xmm3
 3022      DF
 3023 3f31 66440F6F 		movdqa	%xmm1, %xmm15
 3023      F9
 3024 3f36 66450F38 		pshufb	%xmm14, %xmm15
 3024      00FE
 3025 3f3c 66440FF8 		psubb	%xmm2, %xmm14
 3025      F2
 3026 3f41 66440FDB 		pand	%xmm0, %xmm14
 3026      F0
 3027 3f46 66440FEB 		por	%xmm5, %xmm15
 3027      FD
 3028 3f4b 66440F7F 		movdqa	%xmm15, -112(%rsp)
 3028      7C2490
 3029 3f52 66440F6F 		movdqa	.LC33(%rip), %xmm15
 3029      3D000000 
 3029      00
 3030 3f5b 66440F38 		pshufb	-112(%rsp), %xmm15
 3030      007C2490 
 3031 3f63 66410FEB 		por	%xmm15, %xmm3
 3031      DF
 3032 3f68 66440F6F 		movdqa	%xmm1, %xmm15
 3032      F9
 3033 3f6d 66450F38 		pshufb	%xmm14, %xmm15
 3033      00FE
 3034 3f73 66440FF8 		psubb	%xmm2, %xmm14
 3034      F2
 3035 3f78 66440FDB 		pand	%xmm0, %xmm14
 3035      F0
 3036 3f7d 66440FEB 		por	%xmm5, %xmm15
 3036      FD
 3037 3f82 66440F7F 		movdqa	%xmm15, -112(%rsp)
 3037      7C2490
 3038 3f89 66440F6F 		movdqa	.LC34(%rip), %xmm15
 3038      3D000000 
 3038      00
 3039 3f92 66440F38 		pshufb	-112(%rsp), %xmm15
 3039      007C2490 
 3040 3f9a 66410FEB 		por	%xmm15, %xmm3
 3040      DF
 3041 3f9f 66440F6F 		movdqa	%xmm1, %xmm15
 3041      F9
 3042 3fa4 66450F38 		pshufb	%xmm14, %xmm15
 3042      00FE
 3043 3faa 66440FF8 		psubb	%xmm2, %xmm14
 3043      F2
 3044 3faf 66440FDB 		pand	%xmm0, %xmm14
 3044      F0
 3045 3fb4 66440FEB 		por	%xmm5, %xmm15
 3045      FD
 3046 3fb9 66440F7F 		movdqa	%xmm15, -112(%rsp)
 3046      7C2490
 3047 3fc0 66440F6F 		movdqa	.LC35(%rip), %xmm15
GAS LISTING /tmp/ccABNvJu.s 			page 145


 3047      3D000000 
 3047      00
 3048 3fc9 66440F38 		pshufb	-112(%rsp), %xmm15
 3048      007C2490 
 3049 3fd1 66410FEB 		por	%xmm15, %xmm3
 3049      DF
 3050 3fd6 66440F6F 		movdqa	%xmm1, %xmm15
 3050      F9
 3051 3fdb 66450F38 		pshufb	%xmm14, %xmm15
 3051      00FE
 3052 3fe1 66440FF8 		psubb	%xmm2, %xmm14
 3052      F2
 3053 3fe6 66440FDB 		pand	%xmm0, %xmm14
 3053      F0
 3054 3feb 66440FEB 		por	%xmm5, %xmm15
 3054      FD
 3055 3ff0 66440F7F 		movdqa	%xmm15, -112(%rsp)
 3055      7C2490
 3056 3ff7 66440F6F 		movdqa	.LC36(%rip), %xmm15
 3056      3D000000 
 3056      00
 3057 4000 66440F38 		pshufb	-112(%rsp), %xmm15
 3057      007C2490 
 3058 4008 66410FEB 		por	%xmm15, %xmm3
 3058      DF
 3059 400d 66440F6F 		movdqa	%xmm1, %xmm15
 3059      F9
 3060 4012 66450F38 		pshufb	%xmm14, %xmm15
 3060      00FE
 3061 4018 66440FF8 		psubb	%xmm2, %xmm14
 3061      F2
 3062 401d 66440FDB 		pand	%xmm0, %xmm14
 3062      F0
 3063 4022 66440FEB 		por	%xmm5, %xmm15
 3063      FD
 3064 4027 66440F7F 		movdqa	%xmm15, -112(%rsp)
 3064      7C2490
 3065 402e 66440F6F 		movdqa	.LC37(%rip), %xmm15
 3065      3D000000 
 3065      00
 3066 4037 66440F38 		pshufb	-112(%rsp), %xmm15
 3066      007C2490 
 3067 403f 66410FEB 		por	%xmm15, %xmm3
 3067      DF
 3068 4044 66440F6F 		movdqa	%xmm1, %xmm15
 3068      F9
 3069 4049 66450F38 		pshufb	%xmm14, %xmm15
 3069      00FE
 3070 404f 66440FF8 		psubb	%xmm2, %xmm14
 3070      F2
 3071 4054 66440FDB 		pand	%xmm0, %xmm14
 3071      F0
 3072 4059 66440FEB 		por	%xmm5, %xmm15
 3072      FD
 3073 405e 66440F7F 		movdqa	%xmm15, -112(%rsp)
 3073      7C2490
 3074 4065 66440F6F 		movdqa	.LC38(%rip), %xmm15
GAS LISTING /tmp/ccABNvJu.s 			page 146


 3074      3D000000 
 3074      00
 3075 406e 66440F38 		pshufb	-112(%rsp), %xmm15
 3075      007C2490 
 3076 4076 66410FEB 		por	%xmm15, %xmm3
 3076      DF
 3077 407b 66440F6F 		movdqa	%xmm1, %xmm15
 3077      F9
 3078 4080 66450F38 		pshufb	%xmm14, %xmm15
 3078      00FE
 3079 4086 66440FF8 		psubb	%xmm2, %xmm14
 3079      F2
 3080 408b 66440FDB 		pand	%xmm0, %xmm14
 3080      F0
 3081 4090 66440FEB 		por	%xmm5, %xmm15
 3081      FD
 3082 4095 66440F7F 		movdqa	%xmm15, -112(%rsp)
 3082      7C2490
 3083 409c 66440F6F 		movdqa	.LC39(%rip), %xmm15
 3083      3D000000 
 3083      00
 3084 40a5 66440F38 		pshufb	-112(%rsp), %xmm15
 3084      007C2490 
 3085 40ad 66410FEB 		por	%xmm15, %xmm3
 3085      DF
 3086 40b2 66440F6F 		movdqa	%xmm1, %xmm15
 3086      F9
 3087 40b7 66450F38 		pshufb	%xmm14, %xmm15
 3087      00FE
 3088 40bd 66440FF8 		psubb	%xmm2, %xmm14
 3088      F2
 3089 40c2 66440FDB 		pand	%xmm0, %xmm14
 3089      F0
 3090 40c7 66440FEB 		por	%xmm5, %xmm15
 3090      FD
 3091 40cc 66440F7F 		movdqa	%xmm15, -112(%rsp)
 3091      7C2490
 3092 40d3 66440F6F 		movdqa	.LC40(%rip), %xmm15
 3092      3D000000 
 3092      00
 3093 40dc 66440F38 		pshufb	-112(%rsp), %xmm15
 3093      007C2490 
 3094 40e4 66410FEB 		por	%xmm15, %xmm3
 3094      DF
 3095 40e9 66440F6F 		movdqa	%xmm1, %xmm15
 3095      F9
 3096 40ee 66450F38 		pshufb	%xmm14, %xmm15
 3096      00FE
 3097 40f4 66440FF8 		psubb	%xmm2, %xmm14
 3097      F2
 3098 40f9 66440FDB 		pand	%xmm0, %xmm14
 3098      F0
 3099 40fe 66440FEB 		por	%xmm5, %xmm15
 3099      FD
 3100 4103 66440F7F 		movdqa	%xmm15, -112(%rsp)
 3100      7C2490
 3101 410a 66440F6F 		movdqa	.LC41(%rip), %xmm15
GAS LISTING /tmp/ccABNvJu.s 			page 147


 3101      3D000000 
 3101      00
 3102 4113 66440F38 		pshufb	-112(%rsp), %xmm15
 3102      007C2490 
 3103 411b 66410FEB 		por	%xmm15, %xmm3
 3103      DF
 3104 4120 66440F6F 		movdqa	%xmm1, %xmm15
 3104      F9
 3105 4125 66450F38 		pshufb	%xmm14, %xmm15
 3105      00FE
 3106 412b 66450F6F 		movdqa	%xmm15, %xmm14
 3106      F7
 3107 4130 66450F6F 		movdqa	%xmm12, %xmm15
 3107      FC
 3108 4135 66440FEB 		por	%xmm5, %xmm14
 3108      F5
 3109 413a 660F6F2D 		movdqa	.LC42(%rip), %xmm5
 3109      00000000 
 3110 4142 66410F38 		pshufb	%xmm14, %xmm5
 3110      00EE
 3111 4148 66440F6F 		movdqa	%xmm5, %xmm14
 3111      F5
 3112 414d 66440FEB 		por	%xmm3, %xmm14
 3112      F3
 3113 4152 660F6FDF 		movdqa	%xmm7, %xmm3
 3114 4156 660F3800 		pshufb	%xmm4, %xmm3
 3114      DC
 3115 415b 66440F38 		pshufb	.LC20(%rip), %xmm14
 3115      00350000 
 3115      0000
 3116 4165 660FEFFB 		pxor	%xmm3, %xmm7
 3117 4169 660F3800 		pshufb	%xmm4, %xmm3
 3117      DC
 3118 416e 66440FEF 		pxor	.LC48(%rip), %xmm14
 3118      35000000 
 3118      00
 3119 4177 660F6FEB 		movdqa	%xmm3, %xmm5
 3120 417b 660FEFFB 		pxor	%xmm3, %xmm7
 3121 417f 660F6FDE 		movdqa	%xmm6, %xmm3
 3122 4183 660F3800 		pshufb	%xmm4, %xmm5
 3122      EC
 3123 4188 66450F70 		pshufd	$255, %xmm14, %xmm14
 3123      F6FF
 3124 418e 660F3800 		pshufb	%xmm4, %xmm3
 3124      DC
 3125 4193 660FEFFD 		pxor	%xmm5, %xmm7
 3126 4197 660FEFF3 		pxor	%xmm3, %xmm6
 3127 419b 66410FEF 		pxor	%xmm14, %xmm7
 3127      FE
 3128 41a0 660F3800 		pshufb	%xmm4, %xmm3
 3128      DC
 3129 41a5 660F7FB8 		movdqa	%xmm7, 160(%rax)
 3129      A0000000 
 3130 41ad 660F6FEB 		movdqa	%xmm3, %xmm5
 3131 41b1 F30F7F7C 		movdqu	%xmm7, -80(%rsp)
 3131      24B0
 3132 41b7 660F3800 		pshufb	%xmm4, %xmm5
GAS LISTING /tmp/ccABNvJu.s 			page 148


 3132      EC
 3133 41bc 660FEFF3 		pxor	%xmm3, %xmm6
 3134 41c0 660F6FD9 		movdqa	%xmm1, %xmm3
 3135 41c4 8B4C24BC 		movl	-68(%rsp), %ecx
 3136 41c8 660FEFF5 		pxor	%xmm5, %xmm6
 3137 41cc 0FB6D9   		movzbl	%cl, %ebx
 3138 41cf 8A0C1A   		movb	(%rdx,%rbx), %cl
 3139 41d2 0FB6DD   		movzbl	%ch, %ebx
 3140 41d5 0FB61C1A 		movzbl	(%rdx,%rbx), %ebx
 3141 41d9 88DD     		movb	%bl, %ch
 3142 41db 89CB     		movl	%ecx, %ebx
 3143 41dd 81E1FFFF 		andl	$-16711681, %ecx
 3143      00FF
 3144 41e3 C1EB10   		shrl	$16, %ebx
 3145 41e6 0FB6DB   		movzbl	%bl, %ebx
 3146 41e9 0FB6341A 		movzbl	(%rdx,%rbx), %esi
 3147 41ed C1E610   		sall	$16, %esi
 3148 41f0 09F1     		orl	%esi, %ecx
 3149 41f2 89CB     		movl	%ecx, %ebx
 3150 41f4 81E1FFFF 		andl	$16777215, %ecx
 3150      FF00
 3151 41fa C1EB18   		shrl	$24, %ebx
 3152 41fd 0FB6DB   		movzbl	%bl, %ebx
 3153 4200 0FB6341A 		movzbl	(%rdx,%rbx), %esi
 3154 4204 C1E618   		sall	$24, %esi
 3155 4207 09F1     		orl	%esi, %ecx
 3156 4209 894C24BC 		movl	%ecx, -68(%rsp)
 3157 420d 894C24B8 		movl	%ecx, -72(%rsp)
 3158 4211 894C24B4 		movl	%ecx, -76(%rsp)
 3159 4215 894C24B0 		movl	%ecx, -80(%rsp)
 3160 4219 660FEF74 		pxor	-80(%rsp), %xmm6
 3160      24B0
 3161 421f 66440F6F 		movdqa	%xmm6, %xmm14
 3161      F6
 3162 4224 660F6FEE 		movdqa	%xmm6, %xmm5
 3163 4228 66410F72 		psrld	$4, %xmm14
 3163      D604
 3164 422e 66440FDB 		pand	%xmm0, %xmm14
 3164      F0
 3165 4233 660FDBE8 		pand	%xmm0, %xmm5
 3166 4237 660F7FB0 		movdqa	%xmm6, 176(%rax)
 3166      B0000000 
 3167 423f 66410F38 		pshufb	%xmm14, %xmm3
 3167      00DE
 3168 4245 66440FF8 		psubb	%xmm2, %xmm14
 3168      F2
 3169 424a 66440FDB 		pand	%xmm0, %xmm14
 3169      F0
 3170 424f 660FEBDD 		por	%xmm5, %xmm3
 3171 4253 66440F38 		pshufb	%xmm3, %xmm15
 3171      00FB
 3172 4259 66410F6F 		movdqa	%xmm15, %xmm3
 3172      DF
 3173 425e 66450FEF 		pxor	%xmm15, %xmm15
 3173      FF
 3174 4263 66410FEB 		por	%xmm15, %xmm3
 3174      DF
GAS LISTING /tmp/ccABNvJu.s 			page 149


 3175 4268 66440F6F 		movdqa	%xmm1, %xmm15
 3175      F9
 3176 426d 66450F38 		pshufb	%xmm14, %xmm15
 3176      00FE
 3177 4273 66440FF8 		psubb	%xmm2, %xmm14
 3177      F2
 3178 4278 66440FDB 		pand	%xmm0, %xmm14
 3178      F0
 3179 427d 66440FEB 		por	%xmm5, %xmm15
 3179      FD
 3180 4282 66440F7F 		movdqa	%xmm15, -112(%rsp)
 3180      7C2490
 3181 4289 66450F6F 		movdqa	%xmm11, %xmm15
 3181      FB
 3182 428e 66440F38 		pshufb	-112(%rsp), %xmm15
 3182      007C2490 
 3183 4296 66410FEB 		por	%xmm15, %xmm3
 3183      DF
 3184 429b 66440F6F 		movdqa	%xmm1, %xmm15
 3184      F9
 3185 42a0 66450F38 		pshufb	%xmm14, %xmm15
 3185      00FE
 3186 42a6 66440FF8 		psubb	%xmm2, %xmm14
 3186      F2
 3187 42ab 66440FDB 		pand	%xmm0, %xmm14
 3187      F0
 3188 42b0 66440FEB 		por	%xmm5, %xmm15
 3188      FD
 3189 42b5 66440F7F 		movdqa	%xmm15, -112(%rsp)
 3189      7C2490
 3190 42bc 66450F6F 		movdqa	%xmm10, %xmm15
 3190      FA
 3191 42c1 66440F38 		pshufb	-112(%rsp), %xmm15
 3191      007C2490 
 3192 42c9 66410FEB 		por	%xmm15, %xmm3
 3192      DF
 3193 42ce 66440F6F 		movdqa	%xmm1, %xmm15
 3193      F9
 3194 42d3 66450F38 		pshufb	%xmm14, %xmm15
 3194      00FE
 3195 42d9 66440FF8 		psubb	%xmm2, %xmm14
 3195      F2
 3196 42de 66440FDB 		pand	%xmm0, %xmm14
 3196      F0
 3197 42e3 66440FEB 		por	%xmm5, %xmm15
 3197      FD
 3198 42e8 66440F7F 		movdqa	%xmm15, -112(%rsp)
 3198      7C2490
 3199 42ef 66450F6F 		movdqa	%xmm9, %xmm15
 3199      F9
 3200 42f4 66440F38 		pshufb	-112(%rsp), %xmm15
 3200      007C2490 
 3201 42fc 66410FEB 		por	%xmm15, %xmm3
 3201      DF
 3202 4301 66440F6F 		movdqa	%xmm1, %xmm15
 3202      F9
 3203 4306 66450F38 		pshufb	%xmm14, %xmm15
GAS LISTING /tmp/ccABNvJu.s 			page 150


 3203      00FE
 3204 430c 66440FF8 		psubb	%xmm2, %xmm14
 3204      F2
 3205 4311 66440FDB 		pand	%xmm0, %xmm14
 3205      F0
 3206 4316 66440FEB 		por	%xmm5, %xmm15
 3206      FD
 3207 431b 66440F7F 		movdqa	%xmm15, -112(%rsp)
 3207      7C2490
 3208 4322 66450F6F 		movdqa	%xmm8, %xmm15
 3208      F8
 3209 4327 66440F38 		pshufb	-112(%rsp), %xmm15
 3209      007C2490 
 3210 432f 66410FEB 		por	%xmm15, %xmm3
 3210      DF
 3211 4334 66440F6F 		movdqa	%xmm1, %xmm15
 3211      F9
 3212 4339 66450F38 		pshufb	%xmm14, %xmm15
 3212      00FE
 3213 433f 66440FF8 		psubb	%xmm2, %xmm14
 3213      F2
 3214 4344 66440FDB 		pand	%xmm0, %xmm14
 3214      F0
 3215 4349 66440FEB 		por	%xmm5, %xmm15
 3215      FD
 3216 434e 66440F7F 		movdqa	%xmm15, -112(%rsp)
 3216      7C2490
 3217 4355 66440F6F 		movdqa	.LC32(%rip), %xmm15
 3217      3D000000 
 3217      00
 3218 435e 66440F38 		pshufb	-112(%rsp), %xmm15
 3218      007C2490 
 3219 4366 66410FEB 		por	%xmm15, %xmm3
 3219      DF
 3220 436b 66440F6F 		movdqa	%xmm1, %xmm15
 3220      F9
 3221 4370 66450F38 		pshufb	%xmm14, %xmm15
 3221      00FE
 3222 4376 66440FF8 		psubb	%xmm2, %xmm14
 3222      F2
 3223 437b 66440FDB 		pand	%xmm0, %xmm14
 3223      F0
 3224 4380 66440FEB 		por	%xmm5, %xmm15
 3224      FD
 3225 4385 66440F7F 		movdqa	%xmm15, -112(%rsp)
 3225      7C2490
 3226 438c 66440F6F 		movdqa	.LC33(%rip), %xmm15
 3226      3D000000 
 3226      00
 3227 4395 66440F38 		pshufb	-112(%rsp), %xmm15
 3227      007C2490 
 3228 439d 66410FEB 		por	%xmm15, %xmm3
 3228      DF
 3229 43a2 66440F6F 		movdqa	%xmm1, %xmm15
 3229      F9
 3230 43a7 66450F38 		pshufb	%xmm14, %xmm15
 3230      00FE
GAS LISTING /tmp/ccABNvJu.s 			page 151


 3231 43ad 66440FF8 		psubb	%xmm2, %xmm14
 3231      F2
 3232 43b2 66440FDB 		pand	%xmm0, %xmm14
 3232      F0
 3233 43b7 66440FEB 		por	%xmm5, %xmm15
 3233      FD
 3234 43bc 66440F7F 		movdqa	%xmm15, -112(%rsp)
 3234      7C2490
 3235 43c3 66440F6F 		movdqa	.LC34(%rip), %xmm15
 3235      3D000000 
 3235      00
 3236 43cc 66440F38 		pshufb	-112(%rsp), %xmm15
 3236      007C2490 
 3237 43d4 66410FEB 		por	%xmm15, %xmm3
 3237      DF
 3238 43d9 66440F6F 		movdqa	%xmm1, %xmm15
 3238      F9
 3239 43de 66450F38 		pshufb	%xmm14, %xmm15
 3239      00FE
 3240 43e4 66440FF8 		psubb	%xmm2, %xmm14
 3240      F2
 3241 43e9 66440FDB 		pand	%xmm0, %xmm14
 3241      F0
 3242 43ee 66440FEB 		por	%xmm5, %xmm15
 3242      FD
 3243 43f3 66440F7F 		movdqa	%xmm15, -112(%rsp)
 3243      7C2490
 3244 43fa 66440F6F 		movdqa	.LC35(%rip), %xmm15
 3244      3D000000 
 3244      00
 3245 4403 66440F38 		pshufb	-112(%rsp), %xmm15
 3245      007C2490 
 3246 440b 66410FEB 		por	%xmm15, %xmm3
 3246      DF
 3247 4410 66440F6F 		movdqa	%xmm1, %xmm15
 3247      F9
 3248 4415 66450F38 		pshufb	%xmm14, %xmm15
 3248      00FE
 3249 441b 66440FF8 		psubb	%xmm2, %xmm14
 3249      F2
 3250 4420 66440FDB 		pand	%xmm0, %xmm14
 3250      F0
 3251 4425 66440FEB 		por	%xmm5, %xmm15
 3251      FD
 3252 442a 66440F7F 		movdqa	%xmm15, -112(%rsp)
 3252      7C2490
 3253 4431 66440F6F 		movdqa	.LC36(%rip), %xmm15
 3253      3D000000 
 3253      00
 3254 443a 66440F38 		pshufb	-112(%rsp), %xmm15
 3254      007C2490 
 3255 4442 66410FEB 		por	%xmm15, %xmm3
 3255      DF
 3256 4447 66440F6F 		movdqa	%xmm1, %xmm15
 3256      F9
 3257 444c 66450F38 		pshufb	%xmm14, %xmm15
 3257      00FE
GAS LISTING /tmp/ccABNvJu.s 			page 152


 3258 4452 66440FF8 		psubb	%xmm2, %xmm14
 3258      F2
 3259 4457 66440FDB 		pand	%xmm0, %xmm14
 3259      F0
 3260 445c 66440FEB 		por	%xmm5, %xmm15
 3260      FD
 3261 4461 66440F7F 		movdqa	%xmm15, -112(%rsp)
 3261      7C2490
 3262 4468 66440F6F 		movdqa	.LC37(%rip), %xmm15
 3262      3D000000 
 3262      00
 3263 4471 66440F38 		pshufb	-112(%rsp), %xmm15
 3263      007C2490 
 3264 4479 66410FEB 		por	%xmm15, %xmm3
 3264      DF
 3265 447e 66440F6F 		movdqa	%xmm1, %xmm15
 3265      F9
 3266 4483 66450F38 		pshufb	%xmm14, %xmm15
 3266      00FE
 3267 4489 66440FF8 		psubb	%xmm2, %xmm14
 3267      F2
 3268 448e 66440FDB 		pand	%xmm0, %xmm14
 3268      F0
 3269 4493 66440FEB 		por	%xmm5, %xmm15
 3269      FD
 3270 4498 66440F7F 		movdqa	%xmm15, -112(%rsp)
 3270      7C2490
 3271 449f 66440F6F 		movdqa	.LC38(%rip), %xmm15
 3271      3D000000 
 3271      00
 3272 44a8 66440F38 		pshufb	-112(%rsp), %xmm15
 3272      007C2490 
 3273 44b0 66410FEB 		por	%xmm15, %xmm3
 3273      DF
 3274 44b5 66440F6F 		movdqa	%xmm1, %xmm15
 3274      F9
 3275 44ba 66450F38 		pshufb	%xmm14, %xmm15
 3275      00FE
 3276 44c0 66440FF8 		psubb	%xmm2, %xmm14
 3276      F2
 3277 44c5 66440FDB 		pand	%xmm0, %xmm14
 3277      F0
 3278 44ca 66440FEB 		por	%xmm5, %xmm15
 3278      FD
 3279 44cf 66440F7F 		movdqa	%xmm15, -112(%rsp)
 3279      7C2490
 3280 44d6 66440F6F 		movdqa	.LC39(%rip), %xmm15
 3280      3D000000 
 3280      00
 3281 44df 66440F38 		pshufb	-112(%rsp), %xmm15
 3281      007C2490 
 3282 44e7 66410FEB 		por	%xmm15, %xmm3
 3282      DF
 3283 44ec 66440F6F 		movdqa	%xmm1, %xmm15
 3283      F9
 3284 44f1 66450F38 		pshufb	%xmm14, %xmm15
 3284      00FE
GAS LISTING /tmp/ccABNvJu.s 			page 153


 3285 44f7 66440FF8 		psubb	%xmm2, %xmm14
 3285      F2
 3286 44fc 66440FDB 		pand	%xmm0, %xmm14
 3286      F0
 3287 4501 66440FEB 		por	%xmm5, %xmm15
 3287      FD
 3288 4506 66440F7F 		movdqa	%xmm15, -112(%rsp)
 3288      7C2490
 3289 450d 66440F6F 		movdqa	.LC40(%rip), %xmm15
 3289      3D000000 
 3289      00
 3290 4516 66440F38 		pshufb	-112(%rsp), %xmm15
 3290      007C2490 
 3291 451e 66410FEB 		por	%xmm15, %xmm3
 3291      DF
 3292 4523 66440F6F 		movdqa	%xmm1, %xmm15
 3292      F9
 3293 4528 66450F38 		pshufb	%xmm14, %xmm15
 3293      00FE
 3294 452e 66440FF8 		psubb	%xmm2, %xmm14
 3294      F2
 3295 4533 66440FDB 		pand	%xmm0, %xmm14
 3295      F0
 3296 4538 66440FEB 		por	%xmm5, %xmm15
 3296      FD
 3297 453d 66440F7F 		movdqa	%xmm15, -112(%rsp)
 3297      7C2490
 3298 4544 66440F6F 		movdqa	.LC41(%rip), %xmm15
 3298      3D000000 
 3298      00
 3299 454d 66440F38 		pshufb	-112(%rsp), %xmm15
 3299      007C2490 
 3300 4555 66410FEB 		por	%xmm15, %xmm3
 3300      DF
 3301 455a 66440F6F 		movdqa	%xmm1, %xmm15
 3301      F9
 3302 455f 66450F38 		pshufb	%xmm14, %xmm15
 3302      00FE
 3303 4565 66450F6F 		movdqa	%xmm15, %xmm14
 3303      F7
 3304 456a 66440F6F 		movdqa	.LC32(%rip), %xmm15
 3304      3D000000 
 3304      00
 3305 4573 66440FEB 		por	%xmm5, %xmm14
 3305      F5
 3306 4578 660F6F2D 		movdqa	.LC42(%rip), %xmm5
 3306      00000000 
 3307 4580 66410F38 		pshufb	%xmm14, %xmm5
 3307      00EE
 3308 4586 66440F6F 		movdqa	%xmm5, %xmm14
 3308      F5
 3309 458b 66440FEB 		por	%xmm3, %xmm14
 3309      F3
 3310 4590 660F6FDF 		movdqa	%xmm7, %xmm3
 3311 4594 660F3800 		pshufb	%xmm4, %xmm3
 3311      DC
 3312 4599 66440F38 		pshufb	.LC20(%rip), %xmm14
GAS LISTING /tmp/ccABNvJu.s 			page 154


 3312      00350000 
 3312      0000
 3313 45a3 660FEFFB 		pxor	%xmm3, %xmm7
 3314 45a7 660F3800 		pshufb	%xmm4, %xmm3
 3314      DC
 3315 45ac 66440FEF 		pxor	.LC49(%rip), %xmm14
 3315      35000000 
 3315      00
 3316 45b5 660F6FEB 		movdqa	%xmm3, %xmm5
 3317 45b9 660FEFFB 		pxor	%xmm3, %xmm7
 3318 45bd 660F6FDE 		movdqa	%xmm6, %xmm3
 3319 45c1 660F3800 		pshufb	%xmm4, %xmm5
 3319      EC
 3320 45c6 66450F70 		pshufd	$255, %xmm14, %xmm14
 3320      F6FF
 3321 45cc 660F3800 		pshufb	%xmm4, %xmm3
 3321      DC
 3322 45d1 660FEFFD 		pxor	%xmm5, %xmm7
 3323 45d5 660FEFF3 		pxor	%xmm3, %xmm6
 3324 45d9 66410FEF 		pxor	%xmm14, %xmm7
 3324      FE
 3325 45de 660F3800 		pshufb	%xmm4, %xmm3
 3325      DC
 3326 45e3 66450FEF 		pxor	%xmm14, %xmm14
 3326      F6
 3327 45e8 660F7FB8 		movdqa	%xmm7, 192(%rax)
 3327      C0000000 
 3328 45f0 660F6FEB 		movdqa	%xmm3, %xmm5
 3329 45f4 F30F7F7C 		movdqu	%xmm7, -96(%rsp)
 3329      24A0
 3330 45fa 660F3800 		pshufb	%xmm4, %xmm5
 3330      EC
 3331 45ff 660FEFF3 		pxor	%xmm3, %xmm6
 3332 4603 8B4C24AC 		movl	-84(%rsp), %ecx
 3333 4607 660FEFF5 		pxor	%xmm5, %xmm6
 3334 460b 660F6FE9 		movdqa	%xmm1, %xmm5
 3335 460f 0FB6D9   		movzbl	%cl, %ebx
 3336 4612 8A0C1A   		movb	(%rdx,%rbx), %cl
 3337 4615 0FB6DD   		movzbl	%ch, %ebx
 3338 4618 0FB61C1A 		movzbl	(%rdx,%rbx), %ebx
 3339 461c 88DD     		movb	%bl, %ch
 3340 461e 89CE     		movl	%ecx, %esi
 3341 4620 81E1FFFF 		andl	$-16711681, %ecx
 3341      00FF
 3342 4626 C1EE10   		shrl	$16, %esi
 3343 4629 400FB6F6 		movzbl	%sil, %esi
 3344 462d 0FB63432 		movzbl	(%rdx,%rsi), %esi
 3345 4631 C1E610   		sall	$16, %esi
 3346 4634 09F1     		orl	%esi, %ecx
 3347 4636 89CE     		movl	%ecx, %esi
 3348 4638 C1EE18   		shrl	$24, %esi
 3349 463b 400FB6F6 		movzbl	%sil, %esi
 3350 463f 0FB63432 		movzbl	(%rdx,%rsi), %esi
 3351 4643 89CA     		movl	%ecx, %edx
 3352 4645 81E2FFFF 		andl	$16777215, %edx
 3352      FF00
 3353 464b C1E618   		sall	$24, %esi
GAS LISTING /tmp/ccABNvJu.s 			page 155


 3354 464e 09F2     		orl	%esi, %edx
 3355 4650 895424AC 		movl	%edx, -84(%rsp)
 3356 4654 895424A8 		movl	%edx, -88(%rsp)
 3357 4658 895424A4 		movl	%edx, -92(%rsp)
 3358 465c 895424A0 		movl	%edx, -96(%rsp)
 3359 4660 BA400000 		movl	$64, %edx
 3359      00
 3360 4665 660FEF74 		pxor	-96(%rsp), %xmm6
 3360      24A0
 3361 466b 66440F3A 		pinsrd	$3, %edx, %xmm13
 3361      22EA03
 3362 4672 660F7FB0 		movdqa	%xmm6, 208(%rax)
 3362      D0000000 
 3363 467a 660F6FDE 		movdqa	%xmm6, %xmm3
 3364 467e 660F72D6 		psrld	$4, %xmm6
 3364      04
 3365 4683 660FDBF0 		pand	%xmm0, %xmm6
 3366 4687 660FDBD8 		pand	%xmm0, %xmm3
 3367 468b 660F3800 		pshufb	%xmm6, %xmm5
 3367      EE
 3368 4690 660FF8F2 		psubb	%xmm2, %xmm6
 3369 4694 660FDBF0 		pand	%xmm0, %xmm6
 3370 4698 660FEBEB 		por	%xmm3, %xmm5
 3371 469c 66440F38 		pshufb	%xmm5, %xmm12
 3371      00E5
 3372 46a2 660F6FE9 		movdqa	%xmm1, %xmm5
 3373 46a6 660F3800 		pshufb	%xmm6, %xmm5
 3373      EE
 3374 46ab 660FF8F2 		psubb	%xmm2, %xmm6
 3375 46af 660FDBF0 		pand	%xmm0, %xmm6
 3376 46b3 66450FEB 		por	%xmm14, %xmm12
 3376      E6
 3377 46b8 66440F6F 		movdqa	.LC35(%rip), %xmm14
 3377      35000000 
 3377      00
 3378 46c1 660FEBEB 		por	%xmm3, %xmm5
 3379 46c5 66440F38 		pshufb	%xmm5, %xmm11
 3379      00DD
 3380 46cb 660F6FE9 		movdqa	%xmm1, %xmm5
 3381 46cf 660F3800 		pshufb	%xmm6, %xmm5
 3381      EE
 3382 46d4 660FF8F2 		psubb	%xmm2, %xmm6
 3383 46d8 660FDBF0 		pand	%xmm0, %xmm6
 3384 46dc 66450FEB 		por	%xmm11, %xmm12
 3384      E3
 3385 46e1 660FEBEB 		por	%xmm3, %xmm5
 3386 46e5 66440F38 		pshufb	%xmm5, %xmm10
 3386      00D5
 3387 46eb 660F6FE9 		movdqa	%xmm1, %xmm5
 3388 46ef 660F3800 		pshufb	%xmm6, %xmm5
 3388      EE
 3389 46f4 660FF8F2 		psubb	%xmm2, %xmm6
 3390 46f8 660FDBF0 		pand	%xmm0, %xmm6
 3391 46fc 66450FEB 		por	%xmm10, %xmm12
 3391      E2
 3392 4701 660FEBEB 		por	%xmm3, %xmm5
 3393 4705 66440F38 		pshufb	%xmm5, %xmm9
GAS LISTING /tmp/ccABNvJu.s 			page 156


 3393      00CD
 3394 470b 660F6FE9 		movdqa	%xmm1, %xmm5
 3395 470f 660F3800 		pshufb	%xmm6, %xmm5
 3395      EE
 3396 4714 660FF8F2 		psubb	%xmm2, %xmm6
 3397 4718 660FDBF0 		pand	%xmm0, %xmm6
 3398 471c 66450FEB 		por	%xmm9, %xmm12
 3398      E1
 3399 4721 66440F6F 		movdqa	.LC34(%rip), %xmm9
 3399      0D000000 
 3399      00
 3400 472a 660FEBEB 		por	%xmm3, %xmm5
 3401 472e 66440F38 		pshufb	%xmm5, %xmm8
 3401      00C5
 3402 4734 660F6FE9 		movdqa	%xmm1, %xmm5
 3403 4738 660F3800 		pshufb	%xmm6, %xmm5
 3403      EE
 3404 473d 660FF8F2 		psubb	%xmm2, %xmm6
 3405 4741 660FDBF0 		pand	%xmm0, %xmm6
 3406 4745 66450FEB 		por	%xmm8, %xmm12
 3406      E0
 3407 474a 66440F6F 		movdqa	.LC33(%rip), %xmm8
 3407      05000000 
 3407      00
 3408 4753 660FEBEB 		por	%xmm3, %xmm5
 3409 4757 66440F38 		pshufb	%xmm5, %xmm15
 3409      00FD
 3410 475d 660F6FE9 		movdqa	%xmm1, %xmm5
 3411 4761 660F3800 		pshufb	%xmm6, %xmm5
 3411      EE
 3412 4766 660FF8F2 		psubb	%xmm2, %xmm6
 3413 476a 660FDBF0 		pand	%xmm0, %xmm6
 3414 476e 66450FEB 		por	%xmm15, %xmm12
 3414      E7
 3415 4773 66440F6F 		movdqa	.LC36(%rip), %xmm15
 3415      3D000000 
 3415      00
 3416 477c 660FEBEB 		por	%xmm3, %xmm5
 3417 4780 66440F38 		pshufb	%xmm5, %xmm8
 3417      00C5
 3418 4786 660F6FE9 		movdqa	%xmm1, %xmm5
 3419 478a 660F3800 		pshufb	%xmm6, %xmm5
 3419      EE
 3420 478f 660FF8F2 		psubb	%xmm2, %xmm6
 3421 4793 660FDBF0 		pand	%xmm0, %xmm6
 3422 4797 66450FEB 		por	%xmm8, %xmm12
 3422      E0
 3423 479c 66440F6F 		movdqa	.LC37(%rip), %xmm8
 3423      05000000 
 3423      00
 3424 47a5 660FEBEB 		por	%xmm3, %xmm5
 3425 47a9 66440F38 		pshufb	%xmm5, %xmm9
 3425      00CD
 3426 47af 660F6FE9 		movdqa	%xmm1, %xmm5
 3427 47b3 660F3800 		pshufb	%xmm6, %xmm5
 3427      EE
 3428 47b8 660FF8F2 		psubb	%xmm2, %xmm6
GAS LISTING /tmp/ccABNvJu.s 			page 157


 3429 47bc 660FDBF0 		pand	%xmm0, %xmm6
 3430 47c0 66450FEB 		por	%xmm9, %xmm12
 3430      E1
 3431 47c5 66440F6F 		movdqa	.LC38(%rip), %xmm9
 3431      0D000000 
 3431      00
 3432 47ce 660FEBEB 		por	%xmm3, %xmm5
 3433 47d2 66440F38 		pshufb	%xmm5, %xmm14
 3433      00F5
 3434 47d8 660F6FE9 		movdqa	%xmm1, %xmm5
 3435 47dc 660F3800 		pshufb	%xmm6, %xmm5
 3435      EE
 3436 47e1 660FF8F2 		psubb	%xmm2, %xmm6
 3437 47e5 660FDBF0 		pand	%xmm0, %xmm6
 3438 47e9 66450FEB 		por	%xmm14, %xmm12
 3438      E6
 3439 47ee 66440F6F 		movdqa	.LC39(%rip), %xmm14
 3439      35000000 
 3439      00
 3440 47f7 660FEBEB 		por	%xmm3, %xmm5
 3441 47fb 66440F38 		pshufb	%xmm5, %xmm15
 3441      00FD
 3442 4801 660F6FE9 		movdqa	%xmm1, %xmm5
 3443 4805 660F3800 		pshufb	%xmm6, %xmm5
 3443      EE
 3444 480a 660FF8F2 		psubb	%xmm2, %xmm6
 3445 480e 660FDBF0 		pand	%xmm0, %xmm6
 3446 4812 66450FEB 		por	%xmm15, %xmm12
 3446      E7
 3447 4817 66440F6F 		movdqa	.LC40(%rip), %xmm15
 3447      3D000000 
 3447      00
 3448 4820 660FEBEB 		por	%xmm3, %xmm5
 3449 4824 66440F38 		pshufb	%xmm5, %xmm8
 3449      00C5
 3450 482a 660F6FE9 		movdqa	%xmm1, %xmm5
 3451 482e 660F3800 		pshufb	%xmm6, %xmm5
 3451      EE
 3452 4833 660FF8F2 		psubb	%xmm2, %xmm6
 3453 4837 660FDBF0 		pand	%xmm0, %xmm6
 3454 483b 66450FEB 		por	%xmm8, %xmm12
 3454      E0
 3455 4840 66440F6F 		movdqa	.LC41(%rip), %xmm8
 3455      05000000 
 3455      00
 3456 4849 660FEBEB 		por	%xmm3, %xmm5
 3457 484d 66440F38 		pshufb	%xmm5, %xmm9
 3457      00CD
 3458 4853 660F6FE9 		movdqa	%xmm1, %xmm5
 3459 4857 660F3800 		pshufb	%xmm6, %xmm5
 3459      EE
 3460 485c 660FF8F2 		psubb	%xmm2, %xmm6
 3461 4860 660FDBF0 		pand	%xmm0, %xmm6
 3462 4864 66450FEB 		por	%xmm9, %xmm12
 3462      E1
 3463 4869 66440F6F 		movdqa	.LC42(%rip), %xmm9
 3463      0D000000 
GAS LISTING /tmp/ccABNvJu.s 			page 158


 3463      00
 3464 4872 660FEBEB 		por	%xmm3, %xmm5
 3465 4876 66440F38 		pshufb	%xmm5, %xmm14
 3465      00F5
 3466 487c 660F6FE9 		movdqa	%xmm1, %xmm5
 3467 4880 660F3800 		pshufb	%xmm6, %xmm5
 3467      EE
 3468 4885 660FF8F2 		psubb	%xmm2, %xmm6
 3469 4889 660FDBF0 		pand	%xmm0, %xmm6
 3470 488d 66450FEB 		por	%xmm14, %xmm12
 3470      E6
 3471 4892 660FEBEB 		por	%xmm3, %xmm5
 3472 4896 66440F38 		pshufb	%xmm5, %xmm15
 3472      00FD
 3473 489c 660F6FE9 		movdqa	%xmm1, %xmm5
 3474 48a0 660F3800 		pshufb	%xmm6, %xmm5
 3474      EE
 3475 48a5 660FF8F2 		psubb	%xmm2, %xmm6
 3476 48a9 660FDBF0 		pand	%xmm0, %xmm6
 3477 48ad 660F6FC7 		movdqa	%xmm7, %xmm0
 3478 48b1 66450FEB 		por	%xmm15, %xmm12
 3478      E7
 3479 48b6 660FEBEB 		por	%xmm3, %xmm5
 3480 48ba 660F3800 		pshufb	%xmm6, %xmm1
 3480      CE
 3481 48bf 660F3800 		pshufb	%xmm4, %xmm0
 3481      C4
 3482 48c4 66440F38 		pshufb	%xmm5, %xmm8
 3482      00C5
 3483 48ca 660FEBCB 		por	%xmm3, %xmm1
 3484 48ce 660FEFF8 		pxor	%xmm0, %xmm7
 3485 48d2 66450FEB 		por	%xmm8, %xmm12
 3485      E0
 3486 48d7 66440F38 		pshufb	%xmm1, %xmm9
 3486      00C9
 3487 48dd 660F3800 		pshufb	%xmm4, %xmm0
 3487      C4
 3488 48e2 66410F6F 		movdqa	%xmm9, %xmm1
 3488      C9
 3489 48e7 66440F6F 		movdqa	%xmm0, %xmm14
 3489      F0
 3490 48ec 660FEFF8 		pxor	%xmm0, %xmm7
 3491 48f0 66410FEB 		por	%xmm12, %xmm1
 3491      CC
 3492 48f5 66440F38 		pshufb	%xmm4, %xmm14
 3492      00F4
 3493 48fb 660F3800 		pshufb	.LC20(%rip), %xmm1
 3493      0D000000 
 3493      00
 3494 4904 66410FEF 		pxor	%xmm14, %xmm7
 3494      FE
 3495 4909 66410FEF 		pxor	%xmm13, %xmm1
 3495      CD
 3496 490e 660F70C9 		pshufd	$255, %xmm1, %xmm1
 3496      FF
 3497 4913 660FEFF9 		pxor	%xmm1, %xmm7
 3498 4917 660F7FB8 		movdqa	%xmm7, 224(%rax)
GAS LISTING /tmp/ccABNvJu.s 			page 159


 3498      E0000000 
 3499 491f 5B       		popq	%rbx
 3500 4920 C3       		ret
 3501              		.cfi_endproc
 3502              	.LFE711:
 3503              		.size	KAESBlockCipherVecRegKeyExpansion256, .-KAESBlockCipherVecRegKeyExpansion256
 3504 4921 66666666 		.p2align 4,,15
 3504      66662E0F 
 3504      1F840000 
 3504      000000
 3505              		.type	KAESBlockCipherVecRegKeyExpansion192, @function
 3506              	KAESBlockCipherVecRegKeyExpansion192:
 3507              	.LFB710:
 3508              		.cfi_startproc
 3509 4930 4889F8   		movq	%rdi, %rax
 3510 4933 4889F7   		movq	%rsi, %rdi
 3511 4936 53       		pushq	%rbx
 3512              		.cfi_def_cfa_offset 16
 3513              	#APP
 3514              	# 126 "/home/rodarmer/sra_sdk-2.2.2a/libs/krypto/aes-ncbi.c" 1
 3515              		movdqu (%rdi),%xmm6
 3516              	# 0 "" 2
 3517              	#NO_APP
 3518 493b 488D7E08 		leaq	8(%rsi), %rdi
 3519 493f 488D1500 		leaq	KAESBlockCipherVecRegRijndaelSBox(%rip), %rdx
 3519      000000
 3520              	#APP
 3521              	# 126 "/home/rodarmer/sra_sdk-2.2.2a/libs/krypto/aes-ncbi.c" 1
 3522              		movdqu (%rdi),%xmm0
 3523              	# 0 "" 2
 3524              	#NO_APP
 3525 494a 660F3800 		pshufb	.LC53(%rip), %xmm0
 3525      05000000 
 3525      00
 3526 4953 660F7F30 		movdqa	%xmm6, (%rax)
 3527 4957 660F6FCE 		movdqa	%xmm6, %xmm1
 3528 495b F30F7F44 		movdqu	%xmm0, -16(%rsp)
 3528      24F0
 3529 4961 660F6FF8 		movdqa	%xmm0, %xmm7
 3530 4965 66450FEF 		pxor	%xmm11, %xmm11
 3530      DB
 3531 496a 8B4C24F4 		movl	-12(%rsp), %ecx
 3532 496e 660F6F1D 		movdqa	.LC43(%rip), %xmm3
 3532      00000000 
 3533 4976 0FB6D9   		movzbl	%cl, %ebx
 3534              		.cfi_offset 3, -16
 3535 4979 660F3800 		pshufb	%xmm3, %xmm1
 3535      CB
 3536 497e 8A0C1A   		movb	(%rdx,%rbx), %cl
 3537 4981 66440F6F 		movdqa	.LC28(%rip), %xmm15
 3537      3D000000 
 3537      00
 3538 498a 660FEFF1 		pxor	%xmm1, %xmm6
 3539 498e 0FB6DD   		movzbl	%ch, %ebx
 3540 4991 660F3800 		pshufb	%xmm3, %xmm1
 3540      CB
 3541 4996 0FB61C1A 		movzbl	(%rdx,%rbx), %ebx
GAS LISTING /tmp/ccABNvJu.s 			page 160


 3542 499a 66440F6F 		movdqa	.LC27(%rip), %xmm9
 3542      0D000000 
 3542      00
 3543 49a3 660F6FD1 		movdqa	%xmm1, %xmm2
 3544 49a7 660FEFF1 		pxor	%xmm1, %xmm6
 3545 49ab 660F6FC8 		movdqa	%xmm0, %xmm1
 3546 49af 88DD     		movb	%bl, %ch
 3547 49b1 660F3800 		pshufb	%xmm3, %xmm2
 3547      D3
 3548 49b6 89CB     		movl	%ecx, %ebx
 3549 49b8 81E1FFFF 		andl	$-16711681, %ecx
 3549      00FF
 3550 49be C1EB10   		shrl	$16, %ebx
 3551 49c1 660F3800 		pshufb	%xmm3, %xmm1
 3551      CB
 3552 49c6 0FB6DB   		movzbl	%bl, %ebx
 3553 49c9 660FEFF2 		pxor	%xmm2, %xmm6
 3554 49cd 0FB6341A 		movzbl	(%rdx,%rbx), %esi
 3555 49d1 660FEFF9 		pxor	%xmm1, %xmm7
 3556 49d5 660F3800 		pshufb	%xmm3, %xmm1
 3556      CB
 3557 49da C1E610   		sall	$16, %esi
 3558 49dd 09F1     		orl	%esi, %ecx
 3559 49df 660F6FD1 		movdqa	%xmm1, %xmm2
 3560 49e3 89CB     		movl	%ecx, %ebx
 3561 49e5 81E1FFFF 		andl	$16777215, %ecx
 3561      FF00
 3562 49eb C1EB18   		shrl	$24, %ebx
 3563 49ee 660F3800 		pshufb	%xmm3, %xmm2
 3563      D3
 3564 49f3 0FB6DB   		movzbl	%bl, %ebx
 3565 49f6 660FEFF9 		pxor	%xmm1, %xmm7
 3566 49fa 0FB6341A 		movzbl	(%rdx,%rbx), %esi
 3567 49fe 660FEFFA 		pxor	%xmm2, %xmm7
 3568 4a02 C1E618   		sall	$24, %esi
 3569 4a05 09F1     		orl	%esi, %ecx
 3570 4a07 C1C908   		rorl	$8, %ecx
 3571 4a0a 83F101   		xorl	$1, %ecx
 3572 4a0d 894C24FC 		movl	%ecx, -4(%rsp)
 3573 4a11 894C24F8 		movl	%ecx, -8(%rsp)
 3574 4a15 894C24F4 		movl	%ecx, -12(%rsp)
 3575 4a19 894C24F0 		movl	%ecx, -16(%rsp)
 3576 4a1d 660FEF74 		pxor	-16(%rsp), %xmm6
 3576      24F0
 3577 4a23 660F70CE 		pshufd	$255, %xmm6, %xmm1
 3577      FF
 3578 4a28 66440F6F 		movdqa	%xmm6, %xmm14
 3578      F6
 3579 4a2d 660F14C6 		unpcklpd	%xmm6, %xmm0
 3580 4a31 660FEFF9 		pxor	%xmm1, %xmm7
 3581 4a35 66440F38 		pshufb	%xmm3, %xmm14
 3581      00F3
 3582 4a3b 660F6F0D 		movdqa	.LC1(%rip), %xmm1
 3582      00000000 
 3583 4a43 660F7F40 		movdqa	%xmm0, 16(%rax)
 3583      10
 3584 4a48 66450F6F 		movdqa	%xmm14, %xmm13
GAS LISTING /tmp/ccABNvJu.s 			page 161


 3584      EE
 3585 4a4d 660F28C6 		movapd	%xmm6, %xmm0
 3586 4a51 66440F6F 		movdqa	%xmm7, %xmm12
 3586      E7
 3587 4a56 66440F38 		pshufb	%xmm3, %xmm13
 3587      00EB
 3588 4a5c 660FC6C7 		shufpd	$1, %xmm7, %xmm0
 3588      01
 3589 4a61 660F6FE1 		movdqa	%xmm1, %xmm4
 3590 4a65 66440F38 		pshufb	%xmm3, %xmm12
 3590      00E3
 3591 4a6b 66440F6F 		movdqa	%xmm1, %xmm8
 3591      C1
 3592 4a70 66410FEF 		pxor	%xmm14, %xmm6
 3592      F6
 3593 4a75 660F7F40 		movdqa	%xmm0, 32(%rax)
 3593      20
 3594 4a7a 66440F6F 		movdqa	%xmm0, %xmm10
 3594      D0
 3595 4a7f 66410F6F 		movdqa	%xmm12, %xmm2
 3595      D4
 3596 4a84 66410F6F 		movdqa	%xmm13, %xmm0
 3596      C5
 3597 4a89 66410F6F 		movdqa	%xmm10, %xmm5
 3597      EA
 3598 4a8e 66410F72 		psrld	$4, %xmm10
 3598      D204
 3599 4a94 660F3800 		pshufb	%xmm3, %xmm0
 3599      C3
 3600 4a99 660F3800 		pshufb	%xmm3, %xmm2
 3600      D3
 3601 4a9e 66410FEF 		pxor	%xmm13, %xmm6
 3601      F5
 3602 4aa3 660F7F44 		movdqa	%xmm0, -96(%rsp)
 3602      24A0
 3603 4aa9 66410FEF 		pxor	%xmm12, %xmm7
 3603      FC
 3604 4aae 660F7F54 		movdqa	%xmm2, -112(%rsp)
 3604      2490
 3605 4ab4 660F3800 		pshufb	%xmm3, %xmm2
 3605      D3
 3606 4ab9 660F6F05 		movdqa	.LC0(%rip), %xmm0
 3606      00000000 
 3607 4ac1 660FEF74 		pxor	-96(%rsp), %xmm6
 3607      24A0
 3608 4ac7 660F7F54 		movdqa	%xmm2, -80(%rsp)
 3608      24B0
 3609 4acd 66440FDB 		pand	%xmm0, %xmm10
 3609      D0
 3610 4ad2 660FDBE8 		pand	%xmm0, %xmm5
 3611 4ad6 660F6F15 		movdqa	.LC3(%rip), %xmm2
 3611      00000000 
 3612 4ade 66410F38 		pshufb	%xmm10, %xmm4
 3612      00E2
 3613 4ae4 66440FF8 		psubb	%xmm2, %xmm10
 3613      D2
 3614 4ae9 66440FDB 		pand	%xmm0, %xmm10
GAS LISTING /tmp/ccABNvJu.s 			page 162


 3614      D0
 3615 4aee 660FEBE5 		por	%xmm5, %xmm4
 3616 4af2 66450F38 		pshufb	%xmm10, %xmm8
 3616      00C2
 3617 4af8 66440FF8 		psubb	%xmm2, %xmm10
 3617      D2
 3618 4afd 66440FDB 		pand	%xmm0, %xmm10
 3618      D0
 3619 4b02 66440F38 		pshufb	%xmm4, %xmm9
 3619      00CC
 3620 4b08 66440FEB 		por	%xmm5, %xmm8
 3620      C5
 3621 4b0d 66410F6F 		movdqa	%xmm9, %xmm4
 3621      E1
 3622 4b12 66450F38 		pshufb	%xmm8, %xmm15
 3622      00F8
 3623 4b18 66440F6F 		movdqa	%xmm1, %xmm8
 3623      C1
 3624 4b1d 66440F6F 		movdqa	.LC29(%rip), %xmm9
 3624      0D000000 
 3624      00
 3625 4b26 66450F38 		pshufb	%xmm10, %xmm8
 3625      00C2
 3626 4b2c 66440FF8 		psubb	%xmm2, %xmm10
 3626      D2
 3627 4b31 66440FDB 		pand	%xmm0, %xmm10
 3627      D0
 3628 4b36 66410FEB 		por	%xmm11, %xmm4
 3628      E3
 3629 4b3b 66440F6F 		movdqa	.LC30(%rip), %xmm11
 3629      1D000000 
 3629      00
 3630 4b44 66440FEB 		por	%xmm5, %xmm8
 3630      C5
 3631 4b49 66410FEB 		por	%xmm15, %xmm4
 3631      E7
 3632 4b4e 66450F38 		pshufb	%xmm8, %xmm9
 3632      00C8
 3633 4b54 66440F6F 		movdqa	%xmm1, %xmm8
 3633      C1
 3634 4b59 66450F38 		pshufb	%xmm10, %xmm8
 3634      00C2
 3635 4b5f 66440FF8 		psubb	%xmm2, %xmm10
 3635      D2
 3636 4b64 66440FDB 		pand	%xmm0, %xmm10
 3636      D0
 3637 4b69 66410FEB 		por	%xmm9, %xmm4
 3637      E1
 3638 4b6e 66440F6F 		movdqa	.LC31(%rip), %xmm9
 3638      0D000000 
 3638      00
 3639 4b77 66440FEB 		por	%xmm5, %xmm8
 3639      C5
 3640 4b7c 66450F6F 		movdqa	%xmm9, %xmm15
 3640      F9
 3641 4b81 66450F38 		pshufb	%xmm8, %xmm11
 3641      00D8
GAS LISTING /tmp/ccABNvJu.s 			page 163


 3642 4b87 66440F6F 		movdqa	%xmm1, %xmm8
 3642      C1
 3643 4b8c 66450F38 		pshufb	%xmm10, %xmm8
 3643      00C2
 3644 4b92 66440FF8 		psubb	%xmm2, %xmm10
 3644      D2
 3645 4b97 66440FDB 		pand	%xmm0, %xmm10
 3645      D0
 3646 4b9c 66410FEB 		por	%xmm11, %xmm4
 3646      E3
 3647 4ba1 66440F6F 		movdqa	.LC32(%rip), %xmm11
 3647      1D000000 
 3647      00
 3648 4baa 66440FEB 		por	%xmm5, %xmm8
 3648      C5
 3649 4baf 66450F38 		pshufb	%xmm8, %xmm15
 3649      00F8
 3650 4bb5 66440F6F 		movdqa	%xmm1, %xmm8
 3650      C1
 3651 4bba 66450F38 		pshufb	%xmm10, %xmm8
 3651      00C2
 3652 4bc0 66440FF8 		psubb	%xmm2, %xmm10
 3652      D2
 3653 4bc5 66440FDB 		pand	%xmm0, %xmm10
 3653      D0
 3654 4bca 66410FEB 		por	%xmm15, %xmm4
 3654      E7
 3655 4bcf 66440F6F 		movdqa	.LC33(%rip), %xmm15
 3655      3D000000 
 3655      00
 3656 4bd8 66440FEB 		por	%xmm5, %xmm8
 3656      C5
 3657 4bdd 66450F38 		pshufb	%xmm8, %xmm11
 3657      00D8
 3658 4be3 66440F6F 		movdqa	%xmm1, %xmm8
 3658      C1
 3659 4be8 66450F38 		pshufb	%xmm10, %xmm8
 3659      00C2
 3660 4bee 66440FF8 		psubb	%xmm2, %xmm10
 3660      D2
 3661 4bf3 66440FDB 		pand	%xmm0, %xmm10
 3661      D0
 3662 4bf8 66410FEB 		por	%xmm11, %xmm4
 3662      E3
 3663 4bfd 66440F6F 		movdqa	%xmm1, %xmm11
 3663      D9
 3664 4c02 66440FEB 		por	%xmm5, %xmm8
 3664      C5
 3665 4c07 66450F38 		pshufb	%xmm10, %xmm11
 3665      00DA
 3666 4c0d 66440FF8 		psubb	%xmm2, %xmm10
 3666      D2
 3667 4c12 66440FDB 		pand	%xmm0, %xmm10
 3667      D0
 3668 4c17 66450F38 		pshufb	%xmm8, %xmm15
 3668      00F8
 3669 4c1d 66440F6F 		movdqa	.LC34(%rip), %xmm8
GAS LISTING /tmp/ccABNvJu.s 			page 164


 3669      05000000 
 3669      00
 3670 4c26 66440FEB 		por	%xmm5, %xmm11
 3670      DD
 3671 4c2b 66410FEB 		por	%xmm15, %xmm4
 3671      E7
 3672 4c30 66450F6F 		movdqa	%xmm8, %xmm15
 3672      F8
 3673 4c35 66450F38 		pshufb	%xmm11, %xmm15
 3673      00FB
 3674 4c3b 66440F6F 		movdqa	.LC35(%rip), %xmm11
 3674      1D000000 
 3674      00
 3675 4c44 66410FEB 		por	%xmm15, %xmm4
 3675      E7
 3676 4c49 66440F6F 		movdqa	%xmm1, %xmm15
 3676      F9
 3677 4c4e 66450F38 		pshufb	%xmm10, %xmm15
 3677      00FA
 3678 4c54 66440FF8 		psubb	%xmm2, %xmm10
 3678      D2
 3679 4c59 66440FDB 		pand	%xmm0, %xmm10
 3679      D0
 3680 4c5e 66440FEB 		por	%xmm5, %xmm15
 3680      FD
 3681 4c63 66450F38 		pshufb	%xmm15, %xmm11
 3681      00DF
 3682 4c69 66440F6F 		movdqa	%xmm1, %xmm15
 3682      F9
 3683 4c6e 66450F38 		pshufb	%xmm10, %xmm15
 3683      00FA
 3684 4c74 66440FF8 		psubb	%xmm2, %xmm10
 3684      D2
 3685 4c79 66410FEB 		por	%xmm11, %xmm4
 3685      E3
 3686 4c7e 66440F6F 		movdqa	.LC36(%rip), %xmm11
 3686      1D000000 
 3686      00
 3687 4c87 66440FDB 		pand	%xmm0, %xmm10
 3687      D0
 3688 4c8c 66440FEB 		por	%xmm5, %xmm15
 3688      FD
 3689 4c91 66450F38 		pshufb	%xmm15, %xmm11
 3689      00DF
 3690 4c97 66440F6F 		movdqa	%xmm1, %xmm15
 3690      F9
 3691 4c9c 66450F38 		pshufb	%xmm10, %xmm15
 3691      00FA
 3692 4ca2 66440FF8 		psubb	%xmm2, %xmm10
 3692      D2
 3693 4ca7 66410FEB 		por	%xmm11, %xmm4
 3693      E3
 3694 4cac 66440F6F 		movdqa	.LC37(%rip), %xmm11
 3694      1D000000 
 3694      00
 3695 4cb5 66440FDB 		pand	%xmm0, %xmm10
 3695      D0
GAS LISTING /tmp/ccABNvJu.s 			page 165


 3696 4cba 66440FEB 		por	%xmm5, %xmm15
 3696      FD
 3697 4cbf 66450F38 		pshufb	%xmm15, %xmm11
 3697      00DF
 3698 4cc5 66440F6F 		movdqa	%xmm1, %xmm15
 3698      F9
 3699 4cca 66450F38 		pshufb	%xmm10, %xmm15
 3699      00FA
 3700 4cd0 66440FF8 		psubb	%xmm2, %xmm10
 3700      D2
 3701 4cd5 66410FEB 		por	%xmm11, %xmm4
 3701      E3
 3702 4cda 66440F6F 		movdqa	.LC38(%rip), %xmm11
 3702      1D000000 
 3702      00
 3703 4ce3 66440FDB 		pand	%xmm0, %xmm10
 3703      D0
 3704 4ce8 66440FEB 		por	%xmm5, %xmm15
 3704      FD
 3705 4ced 66450F38 		pshufb	%xmm15, %xmm11
 3705      00DF
 3706 4cf3 66440F6F 		movdqa	%xmm1, %xmm15
 3706      F9
 3707 4cf8 66450F38 		pshufb	%xmm10, %xmm15
 3707      00FA
 3708 4cfe 66440FF8 		psubb	%xmm2, %xmm10
 3708      D2
 3709 4d03 66410FEB 		por	%xmm11, %xmm4
 3709      E3
 3710 4d08 66440F6F 		movdqa	.LC39(%rip), %xmm11
 3710      1D000000 
 3710      00
 3711 4d11 66440FDB 		pand	%xmm0, %xmm10
 3711      D0
 3712 4d16 66440FEB 		por	%xmm5, %xmm15
 3712      FD
 3713 4d1b 66450F38 		pshufb	%xmm15, %xmm11
 3713      00DF
 3714 4d21 66440F6F 		movdqa	%xmm1, %xmm15
 3714      F9
 3715 4d26 66450F38 		pshufb	%xmm10, %xmm15
 3715      00FA
 3716 4d2c 66440FF8 		psubb	%xmm2, %xmm10
 3716      D2
 3717 4d31 66410FEB 		por	%xmm11, %xmm4
 3717      E3
 3718 4d36 66440F6F 		movdqa	.LC40(%rip), %xmm11
 3718      1D000000 
 3718      00
 3719 4d3f 66440FDB 		pand	%xmm0, %xmm10
 3719      D0
 3720 4d44 66440FEB 		por	%xmm5, %xmm15
 3720      FD
 3721 4d49 66450F38 		pshufb	%xmm15, %xmm11
 3721      00DF
 3722 4d4f 66440F6F 		movdqa	%xmm1, %xmm15
 3722      F9
GAS LISTING /tmp/ccABNvJu.s 			page 166


 3723 4d54 66450F38 		pshufb	%xmm10, %xmm15
 3723      00FA
 3724 4d5a 66440FF8 		psubb	%xmm2, %xmm10
 3724      D2
 3725 4d5f 66410FEB 		por	%xmm11, %xmm4
 3725      E3
 3726 4d64 66440F6F 		movdqa	.LC41(%rip), %xmm11
 3726      1D000000 
 3726      00
 3727 4d6d 66440FDB 		pand	%xmm0, %xmm10
 3727      D0
 3728 4d72 66440FEB 		por	%xmm5, %xmm15
 3728      FD
 3729 4d77 66450F38 		pshufb	%xmm15, %xmm11
 3729      00DF
 3730 4d7d 66440F6F 		movdqa	%xmm1, %xmm15
 3730      F9
 3731 4d82 66450F38 		pshufb	%xmm10, %xmm15
 3731      00FA
 3732 4d88 66410FEB 		por	%xmm11, %xmm4
 3732      E3
 3733 4d8d 66450F6F 		movdqa	%xmm15, %xmm10
 3733      D7
 3734 4d92 66440FEB 		por	%xmm5, %xmm10
 3734      D5
 3735 4d97 660F6F2D 		movdqa	.LC42(%rip), %xmm5
 3735      00000000 
 3736 4d9f 66410F38 		pshufb	%xmm10, %xmm5
 3736      00EA
 3737 4da5 66440F6F 		movdqa	%xmm5, %xmm10
 3737      D5
 3738 4daa 66440FEB 		por	%xmm4, %xmm10
 3738      D4
 3739 4daf 66440F38 		pshufb	.LC20(%rip), %xmm10
 3739      00150000 
 3739      0000
 3740 4db9 66440FEF 		pxor	.LC45(%rip), %xmm10
 3740      15000000 
 3740      00
 3741 4dc2 66450F70 		pshufd	$255, %xmm10, %xmm10
 3741      D2FF
 3742 4dc8 66410FEF 		pxor	%xmm10, %xmm6
 3742      F2
 3743 4dcd 660F7F70 		movdqa	%xmm6, 48(%rax)
 3743      30
 3744 4dd2 660F70E6 		pshufd	$255, %xmm6, %xmm4
 3744      FF
 3745 4dd7 660FEF7C 		pxor	-112(%rsp), %xmm7
 3745      2490
 3746 4ddd 660FEF7C 		pxor	-80(%rsp), %xmm7
 3746      24B0
 3747 4de3 660FEFFC 		pxor	%xmm4, %xmm7
 3748 4de7 660F6FE6 		movdqa	%xmm6, %xmm4
 3749 4deb F30F7F7C 		movdqu	%xmm7, -32(%rsp)
 3749      24E0
 3750 4df1 8B4C24E4 		movl	-28(%rsp), %ecx
 3751 4df5 660F3800 		pshufb	%xmm3, %xmm4
GAS LISTING /tmp/ccABNvJu.s 			page 167


 3751      E3
 3752 4dfa 66440F6F 		movdqa	%xmm7, %xmm10
 3752      D7
 3753 4dff 0FB6D9   		movzbl	%cl, %ebx
 3754 4e02 660FEFF4 		pxor	%xmm4, %xmm6
 3755 4e06 8A0C1A   		movb	(%rdx,%rbx), %cl
 3756 4e09 660F3800 		pshufb	%xmm3, %xmm4
 3756      E3
 3757 4e0e 0FB6DD   		movzbl	%ch, %ebx
 3758 4e11 660F6FEC 		movdqa	%xmm4, %xmm5
 3759 4e15 0FB61C1A 		movzbl	(%rdx,%rbx), %ebx
 3760 4e19 660FEFF4 		pxor	%xmm4, %xmm6
 3761 4e1d 660F3800 		pshufb	%xmm3, %xmm5
 3761      EB
 3762 4e22 660F6FE7 		movdqa	%xmm7, %xmm4
 3763 4e26 88DD     		movb	%bl, %ch
 3764 4e28 660FEFF5 		pxor	%xmm5, %xmm6
 3765 4e2c 89CB     		movl	%ecx, %ebx
 3766 4e2e 81E1FFFF 		andl	$-16711681, %ecx
 3766      00FF
 3767 4e34 C1EB10   		shrl	$16, %ebx
 3768 4e37 660F3800 		pshufb	%xmm3, %xmm4
 3768      E3
 3769 4e3c 0FB6DB   		movzbl	%bl, %ebx
 3770 4e3f 0FB6341A 		movzbl	(%rdx,%rbx), %esi
 3771 4e43 66440FEF 		pxor	%xmm4, %xmm10
 3771      D4
 3772 4e48 660F3800 		pshufb	%xmm3, %xmm4
 3772      E3
 3773 4e4d C1E610   		sall	$16, %esi
 3774 4e50 09F1     		orl	%esi, %ecx
 3775 4e52 660F6FEC 		movdqa	%xmm4, %xmm5
 3776 4e56 89CB     		movl	%ecx, %ebx
 3777 4e58 81E1FFFF 		andl	$16777215, %ecx
 3777      FF00
 3778 4e5e C1EB18   		shrl	$24, %ebx
 3779 4e61 660F3800 		pshufb	%xmm3, %xmm5
 3779      EB
 3780 4e66 0FB6DB   		movzbl	%bl, %ebx
 3781 4e69 66440FEF 		pxor	%xmm4, %xmm10
 3781      D4
 3782 4e6e 0FB6341A 		movzbl	(%rdx,%rbx), %esi
 3783 4e72 66440FEF 		pxor	%xmm5, %xmm10
 3783      D5
 3784 4e77 C1E618   		sall	$24, %esi
 3785 4e7a 09F1     		orl	%esi, %ecx
 3786 4e7c C1C908   		rorl	$8, %ecx
 3787 4e7f 83F104   		xorl	$4, %ecx
 3788 4e82 894C24EC 		movl	%ecx, -20(%rsp)
 3789 4e86 894C24E8 		movl	%ecx, -24(%rsp)
 3790 4e8a 894C24E4 		movl	%ecx, -28(%rsp)
 3791 4e8e 894C24E0 		movl	%ecx, -32(%rsp)
 3792 4e92 660FEF74 		pxor	-32(%rsp), %xmm6
 3792      24E0
 3793 4e98 66440F6F 		movdqa	%xmm6, %xmm14
 3793      F6
 3794 4e9d 660F70E6 		pshufd	$255, %xmm6, %xmm4
GAS LISTING /tmp/ccABNvJu.s 			page 168


 3794      FF
 3795 4ea2 66440F38 		pshufb	%xmm3, %xmm14
 3795      00F3
 3796 4ea8 660F14FE 		unpcklpd	%xmm6, %xmm7
 3797 4eac 66440FEF 		pxor	%xmm4, %xmm10
 3797      D4
 3798 4eb1 660F28E6 		movapd	%xmm6, %xmm4
 3799 4eb5 66450F6F 		movdqa	%xmm14, %xmm13
 3799      EE
 3800 4eba 660F7F78 		movdqa	%xmm7, 64(%rax)
 3800      40
 3801 4ebf 66440F38 		pshufb	%xmm3, %xmm13
 3801      00EB
 3802 4ec5 66450F6F 		movdqa	%xmm10, %xmm12
 3802      E2
 3803 4eca 66410FC6 		shufpd	$1, %xmm10, %xmm4
 3803      E201
 3804 4ed0 66410FEF 		pxor	%xmm14, %xmm6
 3804      F6
 3805 4ed5 66450F6F 		movdqa	%xmm13, %xmm11
 3805      DD
 3806 4eda 66440F38 		pshufb	%xmm3, %xmm12
 3806      00E3
 3807 4ee0 660F7F60 		movdqa	%xmm4, 80(%rax)
 3807      50
 3808 4ee5 66440F38 		pshufb	%xmm3, %xmm11
 3808      00DB
 3809 4eeb 660F6FFC 		movdqa	%xmm4, %xmm7
 3810 4eef 660F6FEC 		movdqa	%xmm4, %xmm5
 3811 4ef3 660F6FE1 		movdqa	%xmm1, %xmm4
 3812 4ef7 66440F7F 		movdqa	%xmm11, -96(%rsp)
 3812      5C24A0
 3813 4efe 660F72D7 		psrld	$4, %xmm7
 3813      04
 3814 4f03 66450F6F 		movdqa	%xmm12, %xmm11
 3814      DC
 3815 4f08 660FDBF8 		pand	%xmm0, %xmm7
 3816 4f0c 66440F38 		pshufb	%xmm3, %xmm11
 3816      00DB
 3817 4f12 660FDBE8 		pand	%xmm0, %xmm5
 3818 4f16 660F3800 		pshufb	%xmm7, %xmm4
 3818      E7
 3819 4f1b 660FF8FA 		psubb	%xmm2, %xmm7
 3820 4f1f 66450F6F 		movdqa	%xmm11, %xmm15
 3820      FB
 3821 4f24 660FDBF8 		pand	%xmm0, %xmm7
 3822 4f28 66410FEF 		pxor	%xmm13, %xmm6
 3822      F5
 3823 4f2d 66440F38 		pshufb	%xmm3, %xmm15
 3823      00FB
 3824 4f33 660FEBE5 		por	%xmm5, %xmm4
 3825 4f37 66450FEF 		pxor	%xmm12, %xmm10
 3825      D4
 3826 4f3c 66440F7F 		movdqa	%xmm15, -80(%rsp)
 3826      7C24B0
 3827 4f43 66450FEF 		pxor	%xmm11, %xmm10
 3827      D3
GAS LISTING /tmp/ccABNvJu.s 			page 169


 3828 4f48 66440F6F 		movdqa	.LC27(%rip), %xmm15
 3828      3D000000 
 3828      00
 3829 4f51 66440F38 		pshufb	%xmm4, %xmm15
 3829      00FC
 3830 4f57 66410F6F 		movdqa	%xmm15, %xmm4
 3830      E7
 3831 4f5c 66450FEF 		pxor	%xmm15, %xmm15
 3831      FF
 3832 4f61 66410FEB 		por	%xmm15, %xmm4
 3832      E7
 3833 4f66 66440F6F 		movdqa	%xmm1, %xmm15
 3833      F9
 3834 4f6b 66440F38 		pshufb	%xmm7, %xmm15
 3834      00FF
 3835 4f71 660FF8FA 		psubb	%xmm2, %xmm7
 3836 4f75 660FDBF8 		pand	%xmm0, %xmm7
 3837 4f79 66440FEB 		por	%xmm5, %xmm15
 3837      FD
 3838 4f7e 66440F7F 		movdqa	%xmm15, -112(%rsp)
 3838      7C2490
 3839 4f85 66440F6F 		movdqa	.LC28(%rip), %xmm15
 3839      3D000000 
 3839      00
 3840 4f8e 66440F38 		pshufb	-112(%rsp), %xmm15
 3840      007C2490 
 3841 4f96 66410FEB 		por	%xmm15, %xmm4
 3841      E7
 3842 4f9b 66440F6F 		movdqa	%xmm1, %xmm15
 3842      F9
 3843 4fa0 66440F38 		pshufb	%xmm7, %xmm15
 3843      00FF
 3844 4fa6 660FF8FA 		psubb	%xmm2, %xmm7
 3845 4faa 660FDBF8 		pand	%xmm0, %xmm7
 3846 4fae 66440FEB 		por	%xmm5, %xmm15
 3846      FD
 3847 4fb3 66440F7F 		movdqa	%xmm15, -112(%rsp)
 3847      7C2490
 3848 4fba 66440F6F 		movdqa	.LC29(%rip), %xmm15
 3848      3D000000 
 3848      00
 3849 4fc3 66440F38 		pshufb	-112(%rsp), %xmm15
 3849      007C2490 
 3850 4fcb 66410FEB 		por	%xmm15, %xmm4
 3850      E7
 3851 4fd0 66440F6F 		movdqa	%xmm1, %xmm15
 3851      F9
 3852 4fd5 66440F38 		pshufb	%xmm7, %xmm15
 3852      00FF
 3853 4fdb 660FF8FA 		psubb	%xmm2, %xmm7
 3854 4fdf 660FDBF8 		pand	%xmm0, %xmm7
 3855 4fe3 66440FEB 		por	%xmm5, %xmm15
 3855      FD
 3856 4fe8 66440F7F 		movdqa	%xmm15, -112(%rsp)
 3856      7C2490
 3857 4fef 66440F6F 		movdqa	.LC30(%rip), %xmm15
 3857      3D000000 
GAS LISTING /tmp/ccABNvJu.s 			page 170


 3857      00
 3858 4ff8 66440F38 		pshufb	-112(%rsp), %xmm15
 3858      007C2490 
 3859 5000 66410FEB 		por	%xmm15, %xmm4
 3859      E7
 3860 5005 66440F6F 		movdqa	%xmm1, %xmm15
 3860      F9
 3861 500a 66440F38 		pshufb	%xmm7, %xmm15
 3861      00FF
 3862 5010 660FF8FA 		psubb	%xmm2, %xmm7
 3863 5014 660FDBF8 		pand	%xmm0, %xmm7
 3864 5018 66440FEB 		por	%xmm5, %xmm15
 3864      FD
 3865 501d 66440F7F 		movdqa	%xmm15, -112(%rsp)
 3865      7C2490
 3866 5024 66450F6F 		movdqa	%xmm9, %xmm15
 3866      F9
 3867 5029 66440F38 		pshufb	-112(%rsp), %xmm15
 3867      007C2490 
 3868 5031 66410FEB 		por	%xmm15, %xmm4
 3868      E7
 3869 5036 66440F6F 		movdqa	%xmm1, %xmm15
 3869      F9
 3870 503b 66440F38 		pshufb	%xmm7, %xmm15
 3870      00FF
 3871 5041 660FF8FA 		psubb	%xmm2, %xmm7
 3872 5045 660FDBF8 		pand	%xmm0, %xmm7
 3873 5049 66440FEB 		por	%xmm5, %xmm15
 3873      FD
 3874 504e 66440F7F 		movdqa	%xmm15, -112(%rsp)
 3874      7C2490
 3875 5055 66440F6F 		movdqa	.LC32(%rip), %xmm15
 3875      3D000000 
 3875      00
 3876 505e 66440F38 		pshufb	-112(%rsp), %xmm15
 3876      007C2490 
 3877 5066 66410FEB 		por	%xmm15, %xmm4
 3877      E7
 3878 506b 66440F6F 		movdqa	%xmm1, %xmm15
 3878      F9
 3879 5070 66440F38 		pshufb	%xmm7, %xmm15
 3879      00FF
 3880 5076 660FF8FA 		psubb	%xmm2, %xmm7
 3881 507a 660FDBF8 		pand	%xmm0, %xmm7
 3882 507e 66440FEB 		por	%xmm5, %xmm15
 3882      FD
 3883 5083 66440F7F 		movdqa	%xmm15, -112(%rsp)
 3883      7C2490
 3884 508a 66440F6F 		movdqa	.LC33(%rip), %xmm15
 3884      3D000000 
 3884      00
 3885 5093 66440F38 		pshufb	-112(%rsp), %xmm15
 3885      007C2490 
 3886 509b 66410FEB 		por	%xmm15, %xmm4
 3886      E7
 3887 50a0 66440F6F 		movdqa	%xmm1, %xmm15
 3887      F9
GAS LISTING /tmp/ccABNvJu.s 			page 171


 3888 50a5 66440F38 		pshufb	%xmm7, %xmm15
 3888      00FF
 3889 50ab 660FF8FA 		psubb	%xmm2, %xmm7
 3890 50af 660FDBF8 		pand	%xmm0, %xmm7
 3891 50b3 66440FEB 		por	%xmm5, %xmm15
 3891      FD
 3892 50b8 66440F7F 		movdqa	%xmm15, -112(%rsp)
 3892      7C2490
 3893 50bf 66450F6F 		movdqa	%xmm8, %xmm15
 3893      F8
 3894 50c4 66440F38 		pshufb	-112(%rsp), %xmm15
 3894      007C2490 
 3895 50cc 660FEF74 		pxor	-96(%rsp), %xmm6
 3895      24A0
 3896 50d2 66410FEB 		por	%xmm15, %xmm4
 3896      E7
 3897 50d7 66440F6F 		movdqa	%xmm1, %xmm15
 3897      F9
 3898 50dc 66440FEF 		pxor	-80(%rsp), %xmm10
 3898      5424B0
 3899 50e3 66440F38 		pshufb	%xmm7, %xmm15
 3899      00FF
 3900 50e9 660FF8FA 		psubb	%xmm2, %xmm7
 3901 50ed 660FDBF8 		pand	%xmm0, %xmm7
 3902 50f1 66440FEB 		por	%xmm5, %xmm15
 3902      FD
 3903 50f6 66440F7F 		movdqa	%xmm15, -112(%rsp)
 3903      7C2490
 3904 50fd 66440F6F 		movdqa	.LC35(%rip), %xmm15
 3904      3D000000 
 3904      00
 3905 5106 66440F38 		pshufb	-112(%rsp), %xmm15
 3905      007C2490 
 3906 510e 66410FEB 		por	%xmm15, %xmm4
 3906      E7
 3907 5113 66440F6F 		movdqa	%xmm1, %xmm15
 3907      F9
 3908 5118 66440F38 		pshufb	%xmm7, %xmm15
 3908      00FF
 3909 511e 660FF8FA 		psubb	%xmm2, %xmm7
 3910 5122 660FDBF8 		pand	%xmm0, %xmm7
 3911 5126 66440FEB 		por	%xmm5, %xmm15
 3911      FD
 3912 512b 66440F7F 		movdqa	%xmm15, -112(%rsp)
 3912      7C2490
 3913 5132 66440F6F 		movdqa	.LC36(%rip), %xmm15
 3913      3D000000 
 3913      00
 3914 513b 66440F38 		pshufb	-112(%rsp), %xmm15
 3914      007C2490 
 3915 5143 66410FEB 		por	%xmm15, %xmm4
 3915      E7
 3916 5148 66440F6F 		movdqa	%xmm1, %xmm15
 3916      F9
 3917 514d 66440F38 		pshufb	%xmm7, %xmm15
 3917      00FF
 3918 5153 660FF8FA 		psubb	%xmm2, %xmm7
GAS LISTING /tmp/ccABNvJu.s 			page 172


 3919 5157 660FDBF8 		pand	%xmm0, %xmm7
 3920 515b 66440FEB 		por	%xmm5, %xmm15
 3920      FD
 3921 5160 66440F7F 		movdqa	%xmm15, -112(%rsp)
 3921      7C2490
 3922 5167 66440F6F 		movdqa	.LC37(%rip), %xmm15
 3922      3D000000 
 3922      00
 3923 5170 66440F38 		pshufb	-112(%rsp), %xmm15
 3923      007C2490 
 3924 5178 66410FEB 		por	%xmm15, %xmm4
 3924      E7
 3925 517d 66440F6F 		movdqa	%xmm1, %xmm15
 3925      F9
 3926 5182 66440F38 		pshufb	%xmm7, %xmm15
 3926      00FF
 3927 5188 660FF8FA 		psubb	%xmm2, %xmm7
 3928 518c 660FDBF8 		pand	%xmm0, %xmm7
 3929 5190 66440FEB 		por	%xmm5, %xmm15
 3929      FD
 3930 5195 66440F7F 		movdqa	%xmm15, -112(%rsp)
 3930      7C2490
 3931 519c 66440F6F 		movdqa	.LC38(%rip), %xmm15
 3931      3D000000 
 3931      00
 3932 51a5 66440F38 		pshufb	-112(%rsp), %xmm15
 3932      007C2490 
 3933 51ad 66410FEB 		por	%xmm15, %xmm4
 3933      E7
 3934 51b2 66440F6F 		movdqa	%xmm1, %xmm15
 3934      F9
 3935 51b7 66440F38 		pshufb	%xmm7, %xmm15
 3935      00FF
 3936 51bd 660FF8FA 		psubb	%xmm2, %xmm7
 3937 51c1 660FDBF8 		pand	%xmm0, %xmm7
 3938 51c5 66440FEB 		por	%xmm5, %xmm15
 3938      FD
 3939 51ca 66440F7F 		movdqa	%xmm15, -112(%rsp)
 3939      7C2490
 3940 51d1 66440F6F 		movdqa	.LC39(%rip), %xmm15
 3940      3D000000 
 3940      00
 3941 51da 66440F38 		pshufb	-112(%rsp), %xmm15
 3941      007C2490 
 3942 51e2 66410FEB 		por	%xmm15, %xmm4
 3942      E7
 3943 51e7 66440F6F 		movdqa	%xmm1, %xmm15
 3943      F9
 3944 51ec 66440F38 		pshufb	%xmm7, %xmm15
 3944      00FF
 3945 51f2 660FF8FA 		psubb	%xmm2, %xmm7
 3946 51f6 660FDBF8 		pand	%xmm0, %xmm7
 3947 51fa 66440FEB 		por	%xmm5, %xmm15
 3947      FD
 3948 51ff 66440F7F 		movdqa	%xmm15, -112(%rsp)
 3948      7C2490
 3949 5206 66440F6F 		movdqa	.LC40(%rip), %xmm15
GAS LISTING /tmp/ccABNvJu.s 			page 173


 3949      3D000000 
 3949      00
 3950 520f 66440F38 		pshufb	-112(%rsp), %xmm15
 3950      007C2490 
 3951 5217 66410FEB 		por	%xmm15, %xmm4
 3951      E7
 3952 521c 66440F6F 		movdqa	%xmm1, %xmm15
 3952      F9
 3953 5221 66440F38 		pshufb	%xmm7, %xmm15
 3953      00FF
 3954 5227 660FF8FA 		psubb	%xmm2, %xmm7
 3955 522b 660FDBF8 		pand	%xmm0, %xmm7
 3956 522f 66440FEB 		por	%xmm5, %xmm15
 3956      FD
 3957 5234 66440F7F 		movdqa	%xmm15, -112(%rsp)
 3957      7C2490
 3958 523b 66440F6F 		movdqa	.LC41(%rip), %xmm15
 3958      3D000000 
 3958      00
 3959 5244 66440F38 		pshufb	-112(%rsp), %xmm15
 3959      007C2490 
 3960 524c 66410FEB 		por	%xmm15, %xmm4
 3960      E7
 3961 5251 66440F6F 		movdqa	%xmm1, %xmm15
 3961      F9
 3962 5256 66440F38 		pshufb	%xmm7, %xmm15
 3962      00FF
 3963 525c 66410F6F 		movdqa	%xmm15, %xmm7
 3963      FF
 3964 5261 660FEBFD 		por	%xmm5, %xmm7
 3965 5265 660F6F2D 		movdqa	.LC42(%rip), %xmm5
 3965      00000000 
 3966 526d 660F3800 		pshufb	%xmm7, %xmm5
 3966      EF
 3967 5272 660F6FFD 		movdqa	%xmm5, %xmm7
 3968 5276 660FEBFC 		por	%xmm4, %xmm7
 3969 527a 660F3800 		pshufb	.LC20(%rip), %xmm7
 3969      3D000000 
 3969      00
 3970 5283 660FEF3D 		pxor	.LC47(%rip), %xmm7
 3970      00000000 
 3971 528b 660F70FF 		pshufd	$255, %xmm7, %xmm7
 3971      FF
 3972 5290 660FEFF7 		pxor	%xmm7, %xmm6
 3973 5294 660F70E6 		pshufd	$255, %xmm6, %xmm4
 3973      FF
 3974 5299 660F7F70 		movdqa	%xmm6, 96(%rax)
 3974      60
 3975 529e 66440FEF 		pxor	%xmm4, %xmm10
 3975      D4
 3976 52a3 660F6FE6 		movdqa	%xmm6, %xmm4
 3977 52a7 F3440F7F 		movdqu	%xmm10, -48(%rsp)
 3977      5424D0
 3978 52ae 8B4C24D4 		movl	-44(%rsp), %ecx
 3979 52b2 660F3800 		pshufb	%xmm3, %xmm4
 3979      E3
 3980 52b7 66410F6F 		movdqa	%xmm10, %xmm7
GAS LISTING /tmp/ccABNvJu.s 			page 174


 3980      FA
 3981 52bc 0FB6D9   		movzbl	%cl, %ebx
 3982 52bf 660FEFF4 		pxor	%xmm4, %xmm6
 3983 52c3 8A0C1A   		movb	(%rdx,%rbx), %cl
 3984 52c6 660F3800 		pshufb	%xmm3, %xmm4
 3984      E3
 3985 52cb 0FB6DD   		movzbl	%ch, %ebx
 3986 52ce 660F6FEC 		movdqa	%xmm4, %xmm5
 3987 52d2 0FB61C1A 		movzbl	(%rdx,%rbx), %ebx
 3988 52d6 660FEFF4 		pxor	%xmm4, %xmm6
 3989 52da 660F3800 		pshufb	%xmm3, %xmm5
 3989      EB
 3990 52df 66410F6F 		movdqa	%xmm10, %xmm4
 3990      E2
 3991 52e4 88DD     		movb	%bl, %ch
 3992 52e6 660FEFF5 		pxor	%xmm5, %xmm6
 3993 52ea 89CB     		movl	%ecx, %ebx
 3994 52ec 81E1FFFF 		andl	$-16711681, %ecx
 3994      00FF
 3995 52f2 C1EB10   		shrl	$16, %ebx
 3996 52f5 660F3800 		pshufb	%xmm3, %xmm4
 3996      E3
 3997 52fa 0FB6DB   		movzbl	%bl, %ebx
 3998 52fd 0FB6341A 		movzbl	(%rdx,%rbx), %esi
 3999 5301 660FEFFC 		pxor	%xmm4, %xmm7
 4000 5305 660F3800 		pshufb	%xmm3, %xmm4
 4000      E3
 4001 530a C1E610   		sall	$16, %esi
 4002 530d 09F1     		orl	%esi, %ecx
 4003 530f 660F6FEC 		movdqa	%xmm4, %xmm5
 4004 5313 89CB     		movl	%ecx, %ebx
 4005 5315 81E1FFFF 		andl	$16777215, %ecx
 4005      FF00
 4006 531b C1EB18   		shrl	$24, %ebx
 4007 531e 660F3800 		pshufb	%xmm3, %xmm5
 4007      EB
 4008 5323 0FB6DB   		movzbl	%bl, %ebx
 4009 5326 660FEFFC 		pxor	%xmm4, %xmm7
 4010 532a 0FB6341A 		movzbl	(%rdx,%rbx), %esi
 4011 532e 660FEFFD 		pxor	%xmm5, %xmm7
 4012 5332 C1E618   		sall	$24, %esi
 4013 5335 09F1     		orl	%esi, %ecx
 4014 5337 C1C908   		rorl	$8, %ecx
 4015 533a 83F110   		xorl	$16, %ecx
 4016 533d 894C24DC 		movl	%ecx, -36(%rsp)
 4017 5341 894C24D8 		movl	%ecx, -40(%rsp)
 4018 5345 894C24D4 		movl	%ecx, -44(%rsp)
 4019 5349 894C24D0 		movl	%ecx, -48(%rsp)
 4020 534d 660FEF74 		pxor	-48(%rsp), %xmm6
 4020      24D0
 4021 5353 66440F6F 		movdqa	%xmm6, %xmm14
 4021      F6
 4022 5358 660F70E6 		pshufd	$255, %xmm6, %xmm4
 4022      FF
 4023 535d 66440F38 		pshufb	%xmm3, %xmm14
 4023      00F3
 4024 5363 66440F14 		unpcklpd	%xmm6, %xmm10
GAS LISTING /tmp/ccABNvJu.s 			page 175


 4024      D6
 4025 5368 660FEFFC 		pxor	%xmm4, %xmm7
 4026 536c 660F28E6 		movapd	%xmm6, %xmm4
 4027 5370 66450F6F 		movdqa	%xmm14, %xmm13
 4027      EE
 4028 5375 66440F7F 		movdqa	%xmm10, 112(%rax)
 4028      5070
 4029 537b 66440F38 		pshufb	%xmm3, %xmm13
 4029      00EB
 4030 5381 66440F6F 		movdqa	%xmm7, %xmm12
 4030      E7
 4031 5386 660FC6E7 		shufpd	$1, %xmm7, %xmm4
 4031      01
 4032 538b 66410FEF 		pxor	%xmm14, %xmm6
 4032      F6
 4033 5390 66450F6F 		movdqa	%xmm13, %xmm11
 4033      DD
 4034 5395 66440F38 		pshufb	%xmm3, %xmm12
 4034      00E3
 4035 539b 660F7FA0 		movdqa	%xmm4, 128(%rax)
 4035      80000000 
 4036 53a3 66440F38 		pshufb	%xmm3, %xmm11
 4036      00DB
 4037 53a9 66440F6F 		movdqa	%xmm4, %xmm10
 4037      D4
 4038 53ae 660F6FEC 		movdqa	%xmm4, %xmm5
 4039 53b2 660F6FE1 		movdqa	%xmm1, %xmm4
 4040 53b6 66440F7F 		movdqa	%xmm11, -96(%rsp)
 4040      5C24A0
 4041 53bd 66410F72 		psrld	$4, %xmm10
 4041      D204
 4042 53c3 66450F6F 		movdqa	%xmm12, %xmm11
 4042      DC
 4043 53c8 66440FDB 		pand	%xmm0, %xmm10
 4043      D0
 4044 53cd 66440F38 		pshufb	%xmm3, %xmm11
 4044      00DB
 4045 53d3 660FDBE8 		pand	%xmm0, %xmm5
 4046 53d7 66410F38 		pshufb	%xmm10, %xmm4
 4046      00E2
 4047 53dd 66440FF8 		psubb	%xmm2, %xmm10
 4047      D2
 4048 53e2 66450F6F 		movdqa	%xmm11, %xmm15
 4048      FB
 4049 53e7 66440FDB 		pand	%xmm0, %xmm10
 4049      D0
 4050 53ec 66410FEF 		pxor	%xmm13, %xmm6
 4050      F5
 4051 53f1 66440F38 		pshufb	%xmm3, %xmm15
 4051      00FB
 4052 53f7 660FEBE5 		por	%xmm5, %xmm4
 4053 53fb 66410FEF 		pxor	%xmm12, %xmm7
 4053      FC
 4054 5400 66440F7F 		movdqa	%xmm15, -80(%rsp)
 4054      7C24B0
 4055 5407 66450FEF 		pxor	%xmm13, %xmm13
 4055      ED
GAS LISTING /tmp/ccABNvJu.s 			page 176


 4056 540c 66410FEF 		pxor	%xmm11, %xmm7
 4056      FB
 4057 5411 66440F6F 		movdqa	.LC27(%rip), %xmm15
 4057      3D000000 
 4057      00
 4058 541a 66440F38 		pshufb	%xmm4, %xmm15
 4058      00FC
 4059 5420 66410F6F 		movdqa	%xmm15, %xmm4
 4059      E7
 4060 5425 66450FEF 		pxor	%xmm15, %xmm15
 4060      FF
 4061 542a 66410FEB 		por	%xmm15, %xmm4
 4061      E7
 4062 542f 66440F6F 		movdqa	%xmm1, %xmm15
 4062      F9
 4063 5434 66450F38 		pshufb	%xmm10, %xmm15
 4063      00FA
 4064 543a 66440FF8 		psubb	%xmm2, %xmm10
 4064      D2
 4065 543f 66440FDB 		pand	%xmm0, %xmm10
 4065      D0
 4066 5444 66440FEB 		por	%xmm5, %xmm15
 4066      FD
 4067 5449 66440F7F 		movdqa	%xmm15, -112(%rsp)
 4067      7C2490
 4068 5450 66440F6F 		movdqa	.LC28(%rip), %xmm15
 4068      3D000000 
 4068      00
 4069 5459 66440F38 		pshufb	-112(%rsp), %xmm15
 4069      007C2490 
 4070 5461 66410FEB 		por	%xmm15, %xmm4
 4070      E7
 4071 5466 66440F6F 		movdqa	%xmm1, %xmm15
 4071      F9
 4072 546b 66450F38 		pshufb	%xmm10, %xmm15
 4072      00FA
 4073 5471 66440FF8 		psubb	%xmm2, %xmm10
 4073      D2
 4074 5476 66440FDB 		pand	%xmm0, %xmm10
 4074      D0
 4075 547b 66440FEB 		por	%xmm5, %xmm15
 4075      FD
 4076 5480 66440F7F 		movdqa	%xmm15, -112(%rsp)
 4076      7C2490
 4077 5487 66440F6F 		movdqa	.LC29(%rip), %xmm15
 4077      3D000000 
 4077      00
 4078 5490 66440F38 		pshufb	-112(%rsp), %xmm15
 4078      007C2490 
 4079 5498 66410FEB 		por	%xmm15, %xmm4
 4079      E7
 4080 549d 66440F6F 		movdqa	%xmm1, %xmm15
 4080      F9
 4081 54a2 66450F38 		pshufb	%xmm10, %xmm15
 4081      00FA
 4082 54a8 66440FF8 		psubb	%xmm2, %xmm10
 4082      D2
GAS LISTING /tmp/ccABNvJu.s 			page 177


 4083 54ad 66440FDB 		pand	%xmm0, %xmm10
 4083      D0
 4084 54b2 66440FEB 		por	%xmm5, %xmm15
 4084      FD
 4085 54b7 66440F7F 		movdqa	%xmm15, -112(%rsp)
 4085      7C2490
 4086 54be 66440F6F 		movdqa	.LC30(%rip), %xmm15
 4086      3D000000 
 4086      00
 4087 54c7 66440F38 		pshufb	-112(%rsp), %xmm15
 4087      007C2490 
 4088 54cf 66410FEB 		por	%xmm15, %xmm4
 4088      E7
 4089 54d4 66440F6F 		movdqa	%xmm1, %xmm15
 4089      F9
 4090 54d9 66450F38 		pshufb	%xmm10, %xmm15
 4090      00FA
 4091 54df 66440FF8 		psubb	%xmm2, %xmm10
 4091      D2
 4092 54e4 66440FDB 		pand	%xmm0, %xmm10
 4092      D0
 4093 54e9 66440FEB 		por	%xmm5, %xmm15
 4093      FD
 4094 54ee 66440F7F 		movdqa	%xmm15, -112(%rsp)
 4094      7C2490
 4095 54f5 66450F6F 		movdqa	%xmm9, %xmm15
 4095      F9
 4096 54fa 66440F38 		pshufb	-112(%rsp), %xmm15
 4096      007C2490 
 4097 5502 66410FEB 		por	%xmm15, %xmm4
 4097      E7
 4098 5507 66440F6F 		movdqa	%xmm1, %xmm15
 4098      F9
 4099 550c 66450F38 		pshufb	%xmm10, %xmm15
 4099      00FA
 4100 5512 66440FF8 		psubb	%xmm2, %xmm10
 4100      D2
 4101 5517 66440FDB 		pand	%xmm0, %xmm10
 4101      D0
 4102 551c 66440FEB 		por	%xmm5, %xmm15
 4102      FD
 4103 5521 66440F7F 		movdqa	%xmm15, -112(%rsp)
 4103      7C2490
 4104 5528 66440F6F 		movdqa	.LC32(%rip), %xmm15
 4104      3D000000 
 4104      00
 4105 5531 66440F38 		pshufb	-112(%rsp), %xmm15
 4105      007C2490 
 4106 5539 66410FEB 		por	%xmm15, %xmm4
 4106      E7
 4107 553e 66440F6F 		movdqa	%xmm1, %xmm15
 4107      F9
 4108 5543 66450F38 		pshufb	%xmm10, %xmm15
 4108      00FA
 4109 5549 66440FF8 		psubb	%xmm2, %xmm10
 4109      D2
 4110 554e 66440FDB 		pand	%xmm0, %xmm10
GAS LISTING /tmp/ccABNvJu.s 			page 178


 4110      D0
 4111 5553 66440FEB 		por	%xmm5, %xmm15
 4111      FD
 4112 5558 66440F7F 		movdqa	%xmm15, -112(%rsp)
 4112      7C2490
 4113 555f 66440F6F 		movdqa	.LC33(%rip), %xmm15
 4113      3D000000 
 4113      00
 4114 5568 66440F38 		pshufb	-112(%rsp), %xmm15
 4114      007C2490 
 4115 5570 66410FEB 		por	%xmm15, %xmm4
 4115      E7
 4116 5575 66440F6F 		movdqa	%xmm1, %xmm15
 4116      F9
 4117 557a 66450F38 		pshufb	%xmm10, %xmm15
 4117      00FA
 4118 5580 66440FF8 		psubb	%xmm2, %xmm10
 4118      D2
 4119 5585 66440FDB 		pand	%xmm0, %xmm10
 4119      D0
 4120 558a 66440FEB 		por	%xmm5, %xmm15
 4120      FD
 4121 558f 66440F7F 		movdqa	%xmm15, -112(%rsp)
 4121      7C2490
 4122 5596 66450F6F 		movdqa	%xmm8, %xmm15
 4122      F8
 4123 559b 66440F38 		pshufb	-112(%rsp), %xmm15
 4123      007C2490 
 4124 55a3 66410FEB 		por	%xmm15, %xmm4
 4124      E7
 4125 55a8 66440F6F 		movdqa	%xmm1, %xmm15
 4125      F9
 4126 55ad 66450F38 		pshufb	%xmm10, %xmm15
 4126      00FA
 4127 55b3 66440FF8 		psubb	%xmm2, %xmm10
 4127      D2
 4128 55b8 66440FDB 		pand	%xmm0, %xmm10
 4128      D0
 4129 55bd 66440FEB 		por	%xmm5, %xmm15
 4129      FD
 4130 55c2 66440F7F 		movdqa	%xmm15, -112(%rsp)
 4130      7C2490
 4131 55c9 66440F6F 		movdqa	.LC35(%rip), %xmm15
 4131      3D000000 
 4131      00
 4132 55d2 66440F38 		pshufb	-112(%rsp), %xmm15
 4132      007C2490 
 4133 55da 66410FEB 		por	%xmm15, %xmm4
 4133      E7
 4134 55df 66440F6F 		movdqa	%xmm1, %xmm15
 4134      F9
 4135 55e4 66450F38 		pshufb	%xmm10, %xmm15
 4135      00FA
 4136 55ea 66440FF8 		psubb	%xmm2, %xmm10
 4136      D2
 4137 55ef 66440FDB 		pand	%xmm0, %xmm10
 4137      D0
GAS LISTING /tmp/ccABNvJu.s 			page 179


 4138 55f4 66440FEB 		por	%xmm5, %xmm15
 4138      FD
 4139 55f9 66440F7F 		movdqa	%xmm15, -112(%rsp)
 4139      7C2490
 4140 5600 66440F6F 		movdqa	.LC36(%rip), %xmm15
 4140      3D000000 
 4140      00
 4141 5609 66440F38 		pshufb	-112(%rsp), %xmm15
 4141      007C2490 
 4142 5611 66410FEB 		por	%xmm15, %xmm4
 4142      E7
 4143 5616 66440F6F 		movdqa	%xmm1, %xmm15
 4143      F9
 4144 561b 66450F38 		pshufb	%xmm10, %xmm15
 4144      00FA
 4145 5621 66440FF8 		psubb	%xmm2, %xmm10
 4145      D2
 4146 5626 66440FDB 		pand	%xmm0, %xmm10
 4146      D0
 4147 562b 66440FEB 		por	%xmm5, %xmm15
 4147      FD
 4148 5630 66440F7F 		movdqa	%xmm15, -112(%rsp)
 4148      7C2490
 4149 5637 66440F6F 		movdqa	.LC37(%rip), %xmm15
 4149      3D000000 
 4149      00
 4150 5640 660FEF74 		pxor	-96(%rsp), %xmm6
 4150      24A0
 4151 5646 66440F6F 		movdqa	.LC27(%rip), %xmm12
 4151      25000000 
 4151      00
 4152 564f 66440F38 		pshufb	-112(%rsp), %xmm15
 4152      007C2490 
 4153 5657 660FEF7C 		pxor	-80(%rsp), %xmm7
 4153      24B0
 4154 565d 66410FEB 		por	%xmm15, %xmm4
 4154      E7
 4155 5662 66440F6F 		movdqa	%xmm1, %xmm15
 4155      F9
 4156 5667 66450F38 		pshufb	%xmm10, %xmm15
 4156      00FA
 4157 566d 66440FF8 		psubb	%xmm2, %xmm10
 4157      D2
 4158 5672 66440FDB 		pand	%xmm0, %xmm10
 4158      D0
 4159 5677 66440FEB 		por	%xmm5, %xmm15
 4159      FD
 4160 567c 66440F7F 		movdqa	%xmm15, -112(%rsp)
 4160      7C2490
 4161 5683 66440F6F 		movdqa	.LC38(%rip), %xmm15
 4161      3D000000 
 4161      00
 4162 568c 66440F38 		pshufb	-112(%rsp), %xmm15
 4162      007C2490 
 4163 5694 66410FEB 		por	%xmm15, %xmm4
 4163      E7
 4164 5699 66440F6F 		movdqa	%xmm1, %xmm15
GAS LISTING /tmp/ccABNvJu.s 			page 180


 4164      F9
 4165 569e 66450F38 		pshufb	%xmm10, %xmm15
 4165      00FA
 4166 56a4 66440FF8 		psubb	%xmm2, %xmm10
 4166      D2
 4167 56a9 66440FDB 		pand	%xmm0, %xmm10
 4167      D0
 4168 56ae 66440FEB 		por	%xmm5, %xmm15
 4168      FD
 4169 56b3 66440F7F 		movdqa	%xmm15, -112(%rsp)
 4169      7C2490
 4170 56ba 66440F6F 		movdqa	.LC39(%rip), %xmm15
 4170      3D000000 
 4170      00
 4171 56c3 66440F38 		pshufb	-112(%rsp), %xmm15
 4171      007C2490 
 4172 56cb 66410FEB 		por	%xmm15, %xmm4
 4172      E7
 4173 56d0 66440F6F 		movdqa	%xmm1, %xmm15
 4173      F9
 4174 56d5 66450F38 		pshufb	%xmm10, %xmm15
 4174      00FA
 4175 56db 66440FF8 		psubb	%xmm2, %xmm10
 4175      D2
 4176 56e0 66440FDB 		pand	%xmm0, %xmm10
 4176      D0
 4177 56e5 66440FEB 		por	%xmm5, %xmm15
 4177      FD
 4178 56ea 66440F7F 		movdqa	%xmm15, -112(%rsp)
 4178      7C2490
 4179 56f1 66440F6F 		movdqa	.LC40(%rip), %xmm15
 4179      3D000000 
 4179      00
 4180 56fa 66440F38 		pshufb	-112(%rsp), %xmm15
 4180      007C2490 
 4181 5702 66410FEB 		por	%xmm15, %xmm4
 4181      E7
 4182 5707 66440F6F 		movdqa	%xmm1, %xmm15
 4182      F9
 4183 570c 66450F38 		pshufb	%xmm10, %xmm15
 4183      00FA
 4184 5712 66440FF8 		psubb	%xmm2, %xmm10
 4184      D2
 4185 5717 66440FDB 		pand	%xmm0, %xmm10
 4185      D0
 4186 571c 66440FEB 		por	%xmm5, %xmm15
 4186      FD
 4187 5721 66440F7F 		movdqa	%xmm15, -112(%rsp)
 4187      7C2490
 4188 5728 66440F6F 		movdqa	.LC41(%rip), %xmm15
 4188      3D000000 
 4188      00
 4189 5731 66440F38 		pshufb	-112(%rsp), %xmm15
 4189      007C2490 
 4190 5739 66410FEB 		por	%xmm15, %xmm4
 4190      E7
 4191 573e 66440F6F 		movdqa	%xmm1, %xmm15
GAS LISTING /tmp/ccABNvJu.s 			page 181


 4191      F9
 4192 5743 66450F38 		pshufb	%xmm10, %xmm15
 4192      00FA
 4193 5749 66450F6F 		movdqa	%xmm15, %xmm10
 4193      D7
 4194 574e 66440F6F 		movdqa	.LC28(%rip), %xmm15
 4194      3D000000 
 4194      00
 4195 5757 66440FEB 		por	%xmm5, %xmm10
 4195      D5
 4196 575c 660F6F2D 		movdqa	.LC42(%rip), %xmm5
 4196      00000000 
 4197 5764 66410F38 		pshufb	%xmm10, %xmm5
 4197      00EA
 4198 576a 66440F6F 		movdqa	%xmm5, %xmm10
 4198      D5
 4199 576f 66440FEB 		por	%xmm4, %xmm10
 4199      D4
 4200 5774 66440F38 		pshufb	.LC20(%rip), %xmm10
 4200      00150000 
 4200      0000
 4201 577e 66440FEF 		pxor	.LC49(%rip), %xmm10
 4201      15000000 
 4201      00
 4202 5787 66450F70 		pshufd	$255, %xmm10, %xmm10
 4202      D2FF
 4203 578d 66410FEF 		pxor	%xmm10, %xmm6
 4203      F2
 4204 5792 660F70E6 		pshufd	$255, %xmm6, %xmm4
 4204      FF
 4205 5797 660F7FB0 		movdqa	%xmm6, 144(%rax)
 4205      90000000 
 4206 579f 660FEFFC 		pxor	%xmm4, %xmm7
 4207 57a3 660F6FE6 		movdqa	%xmm6, %xmm4
 4208 57a7 F30F7F7C 		movdqu	%xmm7, -64(%rsp)
 4208      24C0
 4209 57ad 8B4C24C4 		movl	-60(%rsp), %ecx
 4210 57b1 660F3800 		pshufb	%xmm3, %xmm4
 4210      E3
 4211 57b6 0FB6D9   		movzbl	%cl, %ebx
 4212 57b9 660FEFF4 		pxor	%xmm4, %xmm6
 4213 57bd 8A0C1A   		movb	(%rdx,%rbx), %cl
 4214 57c0 660F3800 		pshufb	%xmm3, %xmm4
 4214      E3
 4215 57c5 0FB6DD   		movzbl	%ch, %ebx
 4216 57c8 660F6FEC 		movdqa	%xmm4, %xmm5
 4217 57cc 0FB61C1A 		movzbl	(%rdx,%rbx), %ebx
 4218 57d0 660FEFF4 		pxor	%xmm4, %xmm6
 4219 57d4 660F3800 		pshufb	%xmm3, %xmm5
 4219      EB
 4220 57d9 660F6FE7 		movdqa	%xmm7, %xmm4
 4221 57dd 88DD     		movb	%bl, %ch
 4222 57df 660FEFF5 		pxor	%xmm5, %xmm6
 4223 57e3 89CE     		movl	%ecx, %esi
 4224 57e5 660F6FEF 		movdqa	%xmm7, %xmm5
 4225 57e9 C1EE10   		shrl	$16, %esi
 4226 57ec 400FB6F6 		movzbl	%sil, %esi
GAS LISTING /tmp/ccABNvJu.s 			page 182


 4227 57f0 660F3800 		pshufb	%xmm3, %xmm5
 4227      EB
 4228 57f5 0FB63432 		movzbl	(%rdx,%rsi), %esi
 4229 57f9 660FEFE5 		pxor	%xmm5, %xmm4
 4230 57fd 660F3800 		pshufb	%xmm3, %xmm5
 4230      EB
 4231 5802 C1E610   		sall	$16, %esi
 4232 5805 81E1FFFF 		andl	$-16711681, %ecx
 4232      00FF
 4233 580b 09F1     		orl	%esi, %ecx
 4234 580d 89CE     		movl	%ecx, %esi
 4235 580f 66440F6F 		movdqa	%xmm5, %xmm10
 4235      D5
 4236 5814 C1EE18   		shrl	$24, %esi
 4237 5817 660FEFE5 		pxor	%xmm5, %xmm4
 4238 581b 400FB6F6 		movzbl	%sil, %esi
 4239 581f 66440F38 		pshufb	%xmm3, %xmm10
 4239      00D3
 4240 5825 0FB63432 		movzbl	(%rdx,%rsi), %esi
 4241 5829 89CA     		movl	%ecx, %edx
 4242 582b 81E2FFFF 		andl	$16777215, %edx
 4242      FF00
 4243 5831 66410FEF 		pxor	%xmm10, %xmm4
 4243      E2
 4244 5836 C1E618   		sall	$24, %esi
 4245 5839 09F2     		orl	%esi, %edx
 4246 583b C1CA08   		rorl	$8, %edx
 4247 583e 83F240   		xorl	$64, %edx
 4248 5841 895424CC 		movl	%edx, -52(%rsp)
 4249 5845 895424C8 		movl	%edx, -56(%rsp)
 4250 5849 895424C4 		movl	%edx, -60(%rsp)
 4251 584d 895424C0 		movl	%edx, -64(%rsp)
 4252 5851 BA800000 		movl	$128, %edx
 4252      00
 4253 5856 660FEF74 		pxor	-64(%rsp), %xmm6
 4253      24C0
 4254 585c 66440F6F 		movdqa	%xmm6, %xmm14
 4254      F6
 4255 5861 660F14FE 		unpcklpd	%xmm6, %xmm7
 4256 5865 660F28EE 		movapd	%xmm6, %xmm5
 4257 5869 66440F38 		pshufb	%xmm3, %xmm14
 4257      00F3
 4258 586f 66440F70 		pshufd	$255, %xmm6, %xmm10
 4258      D6FF
 4259 5875 660F7FB8 		movdqa	%xmm7, 160(%rax)
 4259      A0000000 
 4260 587d 66410F6F 		movdqa	%xmm14, %xmm7
 4260      FE
 4261 5882 66410FEF 		pxor	%xmm10, %xmm4
 4261      E2
 4262 5887 660F3800 		pshufb	%xmm3, %xmm7
 4262      FB
 4263 588c 66450FEF 		pxor	%xmm10, %xmm10
 4263      D2
 4264 5891 660FC6EC 		shufpd	$1, %xmm4, %xmm5
 4264      01
 4265 5896 66440F6F 		movdqa	%xmm7, %xmm11
GAS LISTING /tmp/ccABNvJu.s 			page 183


 4265      DF
 4266 589b 66410FEF 		pxor	%xmm14, %xmm6
 4266      F6
 4267 58a0 66440F3A 		pinsrd	$3, %edx, %xmm10
 4267      22D203
 4268 58a7 66440F38 		pshufb	%xmm3, %xmm11
 4268      00DB
 4269 58ad 660F6FE5 		movdqa	%xmm5, %xmm4
 4270 58b1 660F7FA8 		movdqa	%xmm5, 176(%rax)
 4270      B0000000 
 4271 58b9 660FDBE8 		pand	%xmm0, %xmm5
 4272 58bd 66410F6F 		movdqa	%xmm11, %xmm3
 4272      DB
 4273 58c2 66440F6F 		movdqa	%xmm4, %xmm11
 4273      DC
 4274 58c7 660F6FE1 		movdqa	%xmm1, %xmm4
 4275 58cb 66410F72 		psrld	$4, %xmm11
 4275      D304
 4276 58d1 66440FDB 		pand	%xmm0, %xmm11
 4276      D8
 4277 58d6 660FEFF7 		pxor	%xmm7, %xmm6
 4278 58da 66410F38 		pshufb	%xmm11, %xmm4
 4278      00E3
 4279 58e0 66440FF8 		psubb	%xmm2, %xmm11
 4279      DA
 4280 58e5 66440FDB 		pand	%xmm0, %xmm11
 4280      D8
 4281 58ea 660FEFF3 		pxor	%xmm3, %xmm6
 4282 58ee 660FEBE5 		por	%xmm5, %xmm4
 4283 58f2 66440F38 		pshufb	%xmm4, %xmm12
 4283      00E4
 4284 58f8 66410F6F 		movdqa	%xmm12, %xmm4
 4284      E4
 4285 58fd 66440F6F 		movdqa	%xmm1, %xmm12
 4285      E1
 4286 5902 66410FEB 		por	%xmm13, %xmm4
 4286      E5
 4287 5907 66440F6F 		movdqa	.LC29(%rip), %xmm13
 4287      2D000000 
 4287      00
 4288 5910 66450F38 		pshufb	%xmm11, %xmm12
 4288      00E3
 4289 5916 66440FF8 		psubb	%xmm2, %xmm11
 4289      DA
 4290 591b 66440FDB 		pand	%xmm0, %xmm11
 4290      D8
 4291 5920 66440FEB 		por	%xmm5, %xmm12
 4291      E5
 4292 5925 66450F38 		pshufb	%xmm12, %xmm15
 4292      00FC
 4293 592b 66440F6F 		movdqa	%xmm1, %xmm12
 4293      E1
 4294 5930 66450F38 		pshufb	%xmm11, %xmm12
 4294      00E3
 4295 5936 66440FF8 		psubb	%xmm2, %xmm11
 4295      DA
 4296 593b 66440FDB 		pand	%xmm0, %xmm11
GAS LISTING /tmp/ccABNvJu.s 			page 184


 4296      D8
 4297 5940 66410FEB 		por	%xmm15, %xmm4
 4297      E7
 4298 5945 66440F6F 		movdqa	.LC30(%rip), %xmm15
 4298      3D000000 
 4298      00
 4299 594e 66440FEB 		por	%xmm5, %xmm12
 4299      E5
 4300 5953 66450F38 		pshufb	%xmm12, %xmm13
 4300      00EC
 4301 5959 66440F6F 		movdqa	%xmm1, %xmm12
 4301      E1
 4302 595e 66450F38 		pshufb	%xmm11, %xmm12
 4302      00E3
 4303 5964 66440FF8 		psubb	%xmm2, %xmm11
 4303      DA
 4304 5969 66440FDB 		pand	%xmm0, %xmm11
 4304      D8
 4305 596e 66410FEB 		por	%xmm13, %xmm4
 4305      E5
 4306 5973 66440F6F 		movdqa	.LC33(%rip), %xmm13
 4306      2D000000 
 4306      00
 4307 597c 66440FEB 		por	%xmm5, %xmm12
 4307      E5
 4308 5981 66450F38 		pshufb	%xmm12, %xmm15
 4308      00FC
 4309 5987 66440F6F 		movdqa	%xmm1, %xmm12
 4309      E1
 4310 598c 66450F38 		pshufb	%xmm11, %xmm12
 4310      00E3
 4311 5992 66440FF8 		psubb	%xmm2, %xmm11
 4311      DA
 4312 5997 66410FEB 		por	%xmm15, %xmm4
 4312      E7
 4313 599c 66440F6F 		movdqa	.LC35(%rip), %xmm15
 4313      3D000000 
 4313      00
 4314 59a5 66440FDB 		pand	%xmm0, %xmm11
 4314      D8
 4315 59aa 66440FEB 		por	%xmm5, %xmm12
 4315      E5
 4316 59af 66450F38 		pshufb	%xmm12, %xmm9
 4316      00CC
 4317 59b5 66440F6F 		movdqa	.LC32(%rip), %xmm12
 4317      25000000 
 4317      00
 4318 59be 66410FEB 		por	%xmm9, %xmm4
 4318      E1
 4319 59c3 66440F6F 		movdqa	%xmm1, %xmm9
 4319      C9
 4320 59c8 66450F38 		pshufb	%xmm11, %xmm9
 4320      00CB
 4321 59ce 66440FF8 		psubb	%xmm2, %xmm11
 4321      DA
 4322 59d3 66440FDB 		pand	%xmm0, %xmm11
 4322      D8
GAS LISTING /tmp/ccABNvJu.s 			page 185


 4323 59d8 66440FEB 		por	%xmm5, %xmm9
 4323      CD
 4324 59dd 66450F38 		pshufb	%xmm9, %xmm12
 4324      00E1
 4325 59e3 66440F6F 		movdqa	%xmm1, %xmm9
 4325      C9
 4326 59e8 66450F38 		pshufb	%xmm11, %xmm9
 4326      00CB
 4327 59ee 66440FF8 		psubb	%xmm2, %xmm11
 4327      DA
 4328 59f3 66440FDB 		pand	%xmm0, %xmm11
 4328      D8
 4329 59f8 66410FEB 		por	%xmm12, %xmm4
 4329      E4
 4330 59fd 66440F6F 		movdqa	.LC37(%rip), %xmm12
 4330      25000000 
 4330      00
 4331 5a06 66440FEB 		por	%xmm5, %xmm9
 4331      CD
 4332 5a0b 66450F38 		pshufb	%xmm9, %xmm13
 4332      00E9
 4333 5a11 66440F6F 		movdqa	%xmm1, %xmm9
 4333      C9
 4334 5a16 66450F38 		pshufb	%xmm11, %xmm9
 4334      00CB
 4335 5a1c 66440FF8 		psubb	%xmm2, %xmm11
 4335      DA
 4336 5a21 66410FEB 		por	%xmm13, %xmm4
 4336      E5
 4337 5a26 66440F6F 		movdqa	.LC38(%rip), %xmm13
 4337      2D000000 
 4337      00
 4338 5a2f 66440FDB 		pand	%xmm0, %xmm11
 4338      D8
 4339 5a34 66440FEB 		por	%xmm5, %xmm9
 4339      CD
 4340 5a39 66450F38 		pshufb	%xmm9, %xmm8
 4340      00C1
 4341 5a3f 66440F6F 		movdqa	.LC36(%rip), %xmm9
 4341      0D000000 
 4341      00
 4342 5a48 66410FEB 		por	%xmm8, %xmm4
 4342      E0
 4343 5a4d 66440F6F 		movdqa	%xmm1, %xmm8
 4343      C1
 4344 5a52 66450F38 		pshufb	%xmm11, %xmm8
 4344      00C3
 4345 5a58 66440FF8 		psubb	%xmm2, %xmm11
 4345      DA
 4346 5a5d 66440FDB 		pand	%xmm0, %xmm11
 4346      D8
 4347 5a62 66440FEB 		por	%xmm5, %xmm8
 4347      C5
 4348 5a67 66450F38 		pshufb	%xmm8, %xmm15
 4348      00F8
 4349 5a6d 66440F6F 		movdqa	%xmm1, %xmm8
 4349      C1
GAS LISTING /tmp/ccABNvJu.s 			page 186


 4350 5a72 66450F38 		pshufb	%xmm11, %xmm8
 4350      00C3
 4351 5a78 66440FF8 		psubb	%xmm2, %xmm11
 4351      DA
 4352 5a7d 66440FDB 		pand	%xmm0, %xmm11
 4352      D8
 4353 5a82 66410FEB 		por	%xmm15, %xmm4
 4353      E7
 4354 5a87 66440F6F 		movdqa	.LC39(%rip), %xmm15
 4354      3D000000 
 4354      00
 4355 5a90 66440FEB 		por	%xmm5, %xmm8
 4355      C5
 4356 5a95 66450F38 		pshufb	%xmm8, %xmm9
 4356      00C8
 4357 5a9b 66440F6F 		movdqa	%xmm1, %xmm8
 4357      C1
 4358 5aa0 66450F38 		pshufb	%xmm11, %xmm8
 4358      00C3
 4359 5aa6 66440FF8 		psubb	%xmm2, %xmm11
 4359      DA
 4360 5aab 66440FDB 		pand	%xmm0, %xmm11
 4360      D8
 4361 5ab0 66410FEB 		por	%xmm9, %xmm4
 4361      E1
 4362 5ab5 66440F6F 		movdqa	.LC40(%rip), %xmm9
 4362      0D000000 
 4362      00
 4363 5abe 66440FEB 		por	%xmm5, %xmm8
 4363      C5
 4364 5ac3 66450F38 		pshufb	%xmm8, %xmm12
 4364      00E0
 4365 5ac9 66440F6F 		movdqa	%xmm1, %xmm8
 4365      C1
 4366 5ace 66450F38 		pshufb	%xmm11, %xmm8
 4366      00C3
 4367 5ad4 66440FF8 		psubb	%xmm2, %xmm11
 4367      DA
 4368 5ad9 66440FDB 		pand	%xmm0, %xmm11
 4368      D8
 4369 5ade 66410FEB 		por	%xmm12, %xmm4
 4369      E4
 4370 5ae3 66440F6F 		movdqa	.LC41(%rip), %xmm12
 4370      25000000 
 4370      00
 4371 5aec 66440FEB 		por	%xmm5, %xmm8
 4371      C5
 4372 5af1 66450F38 		pshufb	%xmm8, %xmm13
 4372      00E8
 4373 5af7 66440F6F 		movdqa	%xmm1, %xmm8
 4373      C1
 4374 5afc 66450F38 		pshufb	%xmm11, %xmm8
 4374      00C3
 4375 5b02 66440FF8 		psubb	%xmm2, %xmm11
 4375      DA
 4376 5b07 66440FDB 		pand	%xmm0, %xmm11
 4376      D8
GAS LISTING /tmp/ccABNvJu.s 			page 187


 4377 5b0c 66410FEB 		por	%xmm13, %xmm4
 4377      E5
 4378 5b11 66440F6F 		movdqa	.LC42(%rip), %xmm13
 4378      2D000000 
 4378      00
 4379 5b1a 66440FEB 		por	%xmm5, %xmm8
 4379      C5
 4380 5b1f 66450F38 		pshufb	%xmm8, %xmm15
 4380      00F8
 4381 5b25 66440F6F 		movdqa	%xmm1, %xmm8
 4381      C1
 4382 5b2a 66450F38 		pshufb	%xmm11, %xmm8
 4382      00C3
 4383 5b30 66440FF8 		psubb	%xmm2, %xmm11
 4383      DA
 4384 5b35 66440FDB 		pand	%xmm0, %xmm11
 4384      D8
 4385 5b3a 66410FEB 		por	%xmm15, %xmm4
 4385      E7
 4386 5b3f 66440FEB 		por	%xmm5, %xmm8
 4386      C5
 4387 5b44 66450F38 		pshufb	%xmm8, %xmm9
 4387      00C8
 4388 5b4a 66440F6F 		movdqa	%xmm1, %xmm8
 4388      C1
 4389 5b4f 66450F38 		pshufb	%xmm11, %xmm8
 4389      00C3
 4390 5b55 66440FF8 		psubb	%xmm2, %xmm11
 4390      DA
 4391 5b5a 66440FDB 		pand	%xmm0, %xmm11
 4391      D8
 4392 5b5f 66410FEB 		por	%xmm9, %xmm4
 4392      E1
 4393 5b64 66440FEB 		por	%xmm5, %xmm8
 4393      C5
 4394 5b69 66410F38 		pshufb	%xmm11, %xmm1
 4394      00CB
 4395 5b6f 66450F38 		pshufb	%xmm8, %xmm12
 4395      00E0
 4396 5b75 660FEBCD 		por	%xmm5, %xmm1
 4397 5b79 66410FEB 		por	%xmm12, %xmm4
 4397      E4
 4398 5b7e 66440F38 		pshufb	%xmm1, %xmm13
 4398      00E9
 4399 5b84 66410F6F 		movdqa	%xmm13, %xmm1
 4399      CD
 4400 5b89 660FEBCC 		por	%xmm4, %xmm1
 4401 5b8d 660F3800 		pshufb	.LC20(%rip), %xmm1
 4401      0D000000 
 4401      00
 4402 5b96 66410FEF 		pxor	%xmm10, %xmm1
 4402      CA
 4403 5b9b 660F70C9 		pshufd	$255, %xmm1, %xmm1
 4403      FF
 4404 5ba0 660FEFF1 		pxor	%xmm1, %xmm6
 4405 5ba4 660F7FB0 		movdqa	%xmm6, 192(%rax)
 4405      C0000000 
GAS LISTING /tmp/ccABNvJu.s 			page 188


 4406 5bac 5B       		popq	%rbx
 4407 5bad C3       		ret
 4408              		.cfi_endproc
 4409              	.LFE710:
 4410              		.size	KAESBlockCipherVecRegKeyExpansion192, .-KAESBlockCipherVecRegKeyExpansion192
 4411 5bae 6690     		.p2align 4,,15
 4412              		.type	KAESBlockCipherVecRegSetEncryptKey, @function
 4413              	KAESBlockCipherVecRegSetEncryptKey:
 4414              	.LFB727:
 4415              		.cfi_startproc
 4416 5bb0 4883EC08 		subq	$8, %rsp
 4417              		.cfi_def_cfa_offset 16
 4418 5bb4 83FA18   		cmpl	$24, %edx
 4419 5bb7 7467     		je	.L37
 4420 5bb9 83FA20   		cmpl	$32, %edx
 4421 5bbc 7442     		je	.L38
 4422 5bbe 83FA10   		cmpl	$16, %edx
 4423 5bc1 741D     		je	.L42
 4424 5bc3 31C0     		xorl	%eax, %eax
 4425 5bc5 B9200000 		movl	$32, %ecx
 4425      00
 4426 5bca F348AB   		rep stosq
 4427 5bcd B8CA8F04 		movl	$-2029744182, %eax
 4427      87
 4428 5bd2 4883C408 		addq	$8, %rsp
 4429 5bd6 C3       		ret
 4430 5bd7 660F1F84 		.p2align 4,,10
 4430      00000000 
 4430      00
 4431              		.p2align 3
 4432              	.L42:
 4433 5be0 C787F000 		movl	$10, 240(%rdi)
 4433      00000A00 
 4433      0000
 4434 5bea E861ADFF 		call	KAESBlockCipherVecRegKeyExpansion128
 4434      FF
 4435 5bef 31C0     		xorl	%eax, %eax
 4436 5bf1 4883C408 		addq	$8, %rsp
 4437 5bf5 C3       		ret
 4438 5bf6 662E0F1F 		.p2align 4,,10
 4438      84000000 
 4438      0000
 4439              		.p2align 3
 4440              	.L38:
 4441 5c00 C787F000 		movl	$14, 240(%rdi)
 4441      00000E00 
 4441      0000
 4442 5c0a E831D1FF 		call	KAESBlockCipherVecRegKeyExpansion256
 4442      FF
 4443 5c0f 31C0     		xorl	%eax, %eax
 4444 5c11 4883C408 		addq	$8, %rsp
 4445 5c15 C3       		ret
 4446 5c16 662E0F1F 		.p2align 4,,10
 4446      84000000 
 4446      0000
 4447              		.p2align 3
 4448              	.L37:
GAS LISTING /tmp/ccABNvJu.s 			page 189


 4449 5c20 C787F000 		movl	$12, 240(%rdi)
 4449      00000C00 
 4449      0000
 4450 5c2a E801EDFF 		call	KAESBlockCipherVecRegKeyExpansion192
 4450      FF
 4451 5c2f 31C0     		xorl	%eax, %eax
 4452 5c31 4883C408 		addq	$8, %rsp
 4453 5c35 C3       		ret
 4454              		.cfi_endproc
 4455              	.LFE727:
 4456              		.size	KAESBlockCipherVecRegSetEncryptKey, .-KAESBlockCipherVecRegSetEncryptKey
 4457 5c36 662E0F1F 		.p2align 4,,15
 4457      84000000 
 4457      0000
 4458              		.type	KAESBlockCipherVecRegEncrypt, @function
 4459              	KAESBlockCipherVecRegEncrypt:
 4460              	.LFB729:
 4461              		.cfi_startproc
 4462 5c40 4883EC60 		subq	$96, %rsp
 4463              		.cfi_def_cfa_offset 104
 4464 5c44 8B87F000 		movl	240(%rdi), %eax
 4464      0000
 4465 5c4a 66440F6F 		movdqa	%xmm0, %xmm14
 4465      F0
 4466 5c4f 83F80C   		cmpl	$12, %eax
 4467 5c52 0F84980D 		je	.L46
 4467      0000
 4468 5c58 83F80E   		cmpl	$14, %eax
 4469 5c5b 0F84CF06 		je	.L47
 4469      0000
 4470 5c61 83F80A   		cmpl	$10, %eax
 4471 5c64 660FEFC0 		pxor	%xmm0, %xmm0
 4472 5c68 740E     		je	.L56
 4473 5c6a 4883C460 		addq	$96, %rsp
 4474 5c6e 6690     		.p2align 4,,3
 4475 5c70 C3       		ret
 4476              		.p2align 4,,10
 4477 5c71 0F1F8000 		.p2align 3
 4477      000000
 4478              	.L56:
 4479 5c78 660F6F05 		movdqa	.LC34(%rip), %xmm0
 4479      00000000 
 4480 5c80 31C0     		xorl	%eax, %eax
 4481 5c82 66440FEF 		pxor	(%rdi), %xmm14
 4481      37
 4482 5c87 66440F6F 		movdqa	.LC35(%rip), %xmm13
 4482      2D000000 
 4482      00
 4483 5c90 66440F6F 		movdqa	.LC36(%rip), %xmm15
 4483      3D000000 
 4483      00
 4484 5c99 660F7F44 		movdqa	%xmm0, -56(%rsp)
 4484      24C8
 4485 5c9f 66440F7F 		movdqa	%xmm13, -40(%rsp)
 4485      6C24D8
 4486 5ca6 66440F7F 		movdqa	%xmm15, -24(%rsp)
 4486      7C24E8
GAS LISTING /tmp/ccABNvJu.s 			page 190


 4487 5cad 660F6F05 		movdqa	.LC37(%rip), %xmm0
 4487      00000000 
 4488 5cb5 66440F6F 		movdqa	.LC38(%rip), %xmm13
 4488      2D000000 
 4488      00
 4489 5cbe 66440F6F 		movdqa	.LC39(%rip), %xmm15
 4489      3D000000 
 4489      00
 4490 5cc7 660F7F44 		movdqa	%xmm0, -8(%rsp)
 4490      24F8
 4491 5ccd 66440F7F 		movdqa	%xmm13, 8(%rsp)
 4491      6C2408
 4492 5cd4 66440F7F 		movdqa	%xmm15, 24(%rsp)
 4492      7C2418
 4493 5cdb 660F6F05 		movdqa	.LC40(%rip), %xmm0
 4493      00000000 
 4494 5ce3 66440F6F 		movdqa	.LC41(%rip), %xmm13
 4494      2D000000 
 4494      00
 4495 5cec 66440F6F 		movdqa	.LC42(%rip), %xmm15
 4495      3D000000 
 4495      00
 4496 5cf5 660F7F44 		movdqa	%xmm0, -104(%rsp)
 4496      2498
 4497 5cfb 66440F7F 		movdqa	%xmm13, -88(%rsp)
 4497      6C24A8
 4498 5d02 66440F7F 		movdqa	%xmm15, -72(%rsp)
 4498      7C24B8
 4499 5d09 660F6F05 		movdqa	.LC54(%rip), %xmm0
 4499      00000000 
 4500 5d11 66440F6F 		movdqa	.LC21(%rip), %xmm13
 4500      2D000000 
 4500      00
 4501 5d1a 660F6F0D 		movdqa	.LC0(%rip), %xmm1
 4501      00000000 
 4502 5d22 660F6F15 		movdqa	.LC1(%rip), %xmm2
 4502      00000000 
 4503 5d2a 66440F6F 		movdqa	.LC27(%rip), %xmm12
 4503      25000000 
 4503      00
 4504 5d33 660F6F1D 		movdqa	.LC3(%rip), %xmm3
 4504      00000000 
 4505 5d3b 66440F6F 		movdqa	.LC28(%rip), %xmm11
 4505      1D000000 
 4505      00
 4506 5d44 66440F6F 		movdqa	.LC29(%rip), %xmm10
 4506      15000000 
 4506      00
 4507 5d4d 66440F6F 		movdqa	.LC30(%rip), %xmm9
 4507      0D000000 
 4507      00
 4508 5d56 66440F6F 		movdqa	.LC31(%rip), %xmm8
 4508      05000000 
 4508      00
 4509 5d5f 660F6F3D 		movdqa	.LC32(%rip), %xmm7
 4509      00000000 
 4510 5d67 660F6F35 		movdqa	.LC33(%rip), %xmm6
GAS LISTING /tmp/ccABNvJu.s 			page 191


 4510      00000000 
 4511 5d6f 660F7F44 		movdqa	%xmm0, 40(%rsp)
 4511      2428
 4512 5d75 660F6F25 		movdqa	.LC20(%rip), %xmm4
 4512      00000000 
 4513 5d7d 66440F7F 		movdqa	%xmm13, 56(%rsp)
 4513      6C2438
 4514 5d84 66440F6F 		movdqa	.LC24(%rip), %xmm15
 4514      3D000000 
 4514      00
 4515 5d8d 66440F7F 		movdqa	%xmm15, 72(%rsp)
 4515      7C2448
 4516              		.p2align 4,,10
 4517 5d94 0F1F4000 		.p2align 3
 4518              	.L49:
 4519 5d98 660F6FE9 		movdqa	%xmm1, %xmm5
 4520 5d9c 66410F6F 		movdqa	%xmm14, %xmm0
 4520      C6
 4521 5da1 66410F72 		psrld	$4, %xmm14
 4521      D604
 4522 5da7 66450F6F 		movdqa	%xmm12, %xmm13
 4522      EC
 4523 5dac 66410FDB 		pand	%xmm14, %xmm5
 4523      EE
 4524 5db1 66440F6F 		movdqa	%xmm2, %xmm14
 4524      F2
 4525 5db6 660FDBC1 		pand	%xmm1, %xmm0
 4526 5dba 66450FEF 		pxor	%xmm15, %xmm15
 4526      FF
 4527 5dbf 66440F38 		pshufb	%xmm5, %xmm14
 4527      00F5
 4528 5dc5 660FF8EB 		psubb	%xmm3, %xmm5
 4529 5dc9 660FDBE9 		pand	%xmm1, %xmm5
 4530 5dcd 66440FEB 		por	%xmm0, %xmm14
 4530      F0
 4531 5dd2 66450F38 		pshufb	%xmm14, %xmm13
 4531      00EE
 4532 5dd8 66450F6F 		movdqa	%xmm13, %xmm14
 4532      F5
 4533 5ddd 66440F6F 		movdqa	%xmm2, %xmm13
 4533      EA
 4534 5de2 66450FEB 		por	%xmm15, %xmm14
 4534      F7
 4535 5de7 66450F6F 		movdqa	%xmm11, %xmm15
 4535      FB
 4536 5dec 66440F38 		pshufb	%xmm5, %xmm13
 4536      00ED
 4537 5df2 660FF8EB 		psubb	%xmm3, %xmm5
 4538 5df6 660FDBE9 		pand	%xmm1, %xmm5
 4539 5dfa 66440FEB 		por	%xmm0, %xmm13
 4539      E8
 4540 5dff 66450F38 		pshufb	%xmm13, %xmm15
 4540      00FD
 4541 5e05 66440F6F 		movdqa	%xmm2, %xmm13
 4541      EA
 4542 5e0a 66440F38 		pshufb	%xmm5, %xmm13
 4542      00ED
GAS LISTING /tmp/ccABNvJu.s 			page 192


 4543 5e10 660FF8EB 		psubb	%xmm3, %xmm5
 4544 5e14 66450FEB 		por	%xmm15, %xmm14
 4544      F7
 4545 5e19 66450F6F 		movdqa	%xmm10, %xmm15
 4545      FA
 4546 5e1e 660FDBE9 		pand	%xmm1, %xmm5
 4547 5e22 66440FEB 		por	%xmm0, %xmm13
 4547      E8
 4548 5e27 66450F38 		pshufb	%xmm13, %xmm15
 4548      00FD
 4549 5e2d 66440F6F 		movdqa	%xmm2, %xmm13
 4549      EA
 4550 5e32 66440F38 		pshufb	%xmm5, %xmm13
 4550      00ED
 4551 5e38 660FF8EB 		psubb	%xmm3, %xmm5
 4552 5e3c 66450FEB 		por	%xmm15, %xmm14
 4552      F7
 4553 5e41 66450F6F 		movdqa	%xmm9, %xmm15
 4553      F9
 4554 5e46 660FDBE9 		pand	%xmm1, %xmm5
 4555 5e4a 66440FEB 		por	%xmm0, %xmm13
 4555      E8
 4556 5e4f 66450F38 		pshufb	%xmm13, %xmm15
 4556      00FD
 4557 5e55 66440F6F 		movdqa	%xmm2, %xmm13
 4557      EA
 4558 5e5a 66440F38 		pshufb	%xmm5, %xmm13
 4558      00ED
 4559 5e60 660FF8EB 		psubb	%xmm3, %xmm5
 4560 5e64 66450FEB 		por	%xmm15, %xmm14
 4560      F7
 4561 5e69 66450F6F 		movdqa	%xmm8, %xmm15
 4561      F8
 4562 5e6e 660FDBE9 		pand	%xmm1, %xmm5
 4563 5e72 66440FEB 		por	%xmm0, %xmm13
 4563      E8
 4564 5e77 66450F38 		pshufb	%xmm13, %xmm15
 4564      00FD
 4565 5e7d 66440F6F 		movdqa	%xmm2, %xmm13
 4565      EA
 4566 5e82 66440F38 		pshufb	%xmm5, %xmm13
 4566      00ED
 4567 5e88 660FF8EB 		psubb	%xmm3, %xmm5
 4568 5e8c 66450FEB 		por	%xmm15, %xmm14
 4568      F7
 4569 5e91 66440F6F 		movdqa	%xmm7, %xmm15
 4569      FF
 4570 5e96 660FDBE9 		pand	%xmm1, %xmm5
 4571 5e9a 66440FEB 		por	%xmm0, %xmm13
 4571      E8
 4572 5e9f 66450F38 		pshufb	%xmm13, %xmm15
 4572      00FD
 4573 5ea5 66440F6F 		movdqa	%xmm2, %xmm13
 4573      EA
 4574 5eaa 66440F38 		pshufb	%xmm5, %xmm13
 4574      00ED
 4575 5eb0 660FF8EB 		psubb	%xmm3, %xmm5
GAS LISTING /tmp/ccABNvJu.s 			page 193


 4576 5eb4 66450FEB 		por	%xmm15, %xmm14
 4576      F7
 4577 5eb9 66440F6F 		movdqa	%xmm6, %xmm15
 4577      FE
 4578 5ebe 660FDBE9 		pand	%xmm1, %xmm5
 4579 5ec2 66440FEB 		por	%xmm0, %xmm13
 4579      E8
 4580 5ec7 66450F38 		pshufb	%xmm13, %xmm15
 4580      00FD
 4581 5ecd 66440F6F 		movdqa	%xmm2, %xmm13
 4581      EA
 4582 5ed2 66440F38 		pshufb	%xmm5, %xmm13
 4582      00ED
 4583 5ed8 660FF8EB 		psubb	%xmm3, %xmm5
 4584 5edc 66450FEB 		por	%xmm15, %xmm14
 4584      F7
 4585 5ee1 66440F6F 		movdqa	-56(%rsp), %xmm15
 4585      7C24C8
 4586 5ee8 660FDBE9 		pand	%xmm1, %xmm5
 4587 5eec 66440FEB 		por	%xmm0, %xmm13
 4587      E8
 4588 5ef1 66450F38 		pshufb	%xmm13, %xmm15
 4588      00FD
 4589 5ef7 66440F6F 		movdqa	%xmm2, %xmm13
 4589      EA
 4590 5efc 66440F38 		pshufb	%xmm5, %xmm13
 4590      00ED
 4591 5f02 660FF8EB 		psubb	%xmm3, %xmm5
 4592 5f06 66450FEB 		por	%xmm15, %xmm14
 4592      F7
 4593 5f0b 66440F6F 		movdqa	-40(%rsp), %xmm15
 4593      7C24D8
 4594 5f12 660FDBE9 		pand	%xmm1, %xmm5
 4595 5f16 66440FEB 		por	%xmm0, %xmm13
 4595      E8
 4596 5f1b 66450F38 		pshufb	%xmm13, %xmm15
 4596      00FD
 4597 5f21 66440F6F 		movdqa	%xmm2, %xmm13
 4597      EA
 4598 5f26 66440F38 		pshufb	%xmm5, %xmm13
 4598      00ED
 4599 5f2c 660FF8EB 		psubb	%xmm3, %xmm5
 4600 5f30 66450FEB 		por	%xmm15, %xmm14
 4600      F7
 4601 5f35 66440F6F 		movdqa	-24(%rsp), %xmm15
 4601      7C24E8
 4602 5f3c 660FDBE9 		pand	%xmm1, %xmm5
 4603 5f40 66440FEB 		por	%xmm0, %xmm13
 4603      E8
 4604 5f45 66450F38 		pshufb	%xmm13, %xmm15
 4604      00FD
 4605 5f4b 66440F6F 		movdqa	%xmm2, %xmm13
 4605      EA
 4606 5f50 66440F38 		pshufb	%xmm5, %xmm13
 4606      00ED
 4607 5f56 660FF8EB 		psubb	%xmm3, %xmm5
 4608 5f5a 66450FEB 		por	%xmm15, %xmm14
GAS LISTING /tmp/ccABNvJu.s 			page 194


 4608      F7
 4609 5f5f 66440F6F 		movdqa	-8(%rsp), %xmm15
 4609      7C24F8
 4610 5f66 660FDBE9 		pand	%xmm1, %xmm5
 4611 5f6a 66440FEB 		por	%xmm0, %xmm13
 4611      E8
 4612 5f6f 66450F38 		pshufb	%xmm13, %xmm15
 4612      00FD
 4613 5f75 66440F6F 		movdqa	%xmm2, %xmm13
 4613      EA
 4614 5f7a 66440F38 		pshufb	%xmm5, %xmm13
 4614      00ED
 4615 5f80 660FF8EB 		psubb	%xmm3, %xmm5
 4616 5f84 66450FEB 		por	%xmm15, %xmm14
 4616      F7
 4617 5f89 66440F6F 		movdqa	8(%rsp), %xmm15
 4617      7C2408
 4618 5f90 660FDBE9 		pand	%xmm1, %xmm5
 4619 5f94 66440FEB 		por	%xmm0, %xmm13
 4619      E8
 4620 5f99 66450F38 		pshufb	%xmm13, %xmm15
 4620      00FD
 4621 5f9f 66440F6F 		movdqa	%xmm2, %xmm13
 4621      EA
 4622 5fa4 66440F38 		pshufb	%xmm5, %xmm13
 4622      00ED
 4623 5faa 660FF8EB 		psubb	%xmm3, %xmm5
 4624 5fae 66450FEB 		por	%xmm15, %xmm14
 4624      F7
 4625 5fb3 66440F6F 		movdqa	24(%rsp), %xmm15
 4625      7C2418
 4626 5fba 660FDBE9 		pand	%xmm1, %xmm5
 4627 5fbe 66440FEB 		por	%xmm0, %xmm13
 4627      E8
 4628 5fc3 66450F38 		pshufb	%xmm13, %xmm15
 4628      00FD
 4629 5fc9 66440F6F 		movdqa	%xmm2, %xmm13
 4629      EA
 4630 5fce 66440F38 		pshufb	%xmm5, %xmm13
 4630      00ED
 4631 5fd4 660FF8EB 		psubb	%xmm3, %xmm5
 4632 5fd8 66450FEB 		por	%xmm15, %xmm14
 4632      F7
 4633 5fdd 66440F6F 		movdqa	-104(%rsp), %xmm15
 4633      7C2498
 4634 5fe4 660FDBE9 		pand	%xmm1, %xmm5
 4635 5fe8 66440FEB 		por	%xmm0, %xmm13
 4635      E8
 4636 5fed 66450F38 		pshufb	%xmm13, %xmm15
 4636      00FD
 4637 5ff3 66440F6F 		movdqa	%xmm2, %xmm13
 4637      EA
 4638 5ff8 66440F38 		pshufb	%xmm5, %xmm13
 4638      00ED
 4639 5ffe 660FF8EB 		psubb	%xmm3, %xmm5
 4640 6002 66450FEB 		por	%xmm15, %xmm14
 4640      F7
GAS LISTING /tmp/ccABNvJu.s 			page 195


 4641 6007 66440F6F 		movdqa	-88(%rsp), %xmm15
 4641      7C24A8
 4642 600e 660FDBE9 		pand	%xmm1, %xmm5
 4643 6012 66440FEB 		por	%xmm0, %xmm13
 4643      E8
 4644 6017 66450F38 		pshufb	%xmm13, %xmm15
 4644      00FD
 4645 601d 66440F6F 		movdqa	%xmm2, %xmm13
 4645      EA
 4646 6022 66440F38 		pshufb	%xmm5, %xmm13
 4646      00ED
 4647 6028 66450FEB 		por	%xmm15, %xmm14
 4647      F7
 4648 602d 66440F6F 		movdqa	-72(%rsp), %xmm15
 4648      7C24B8
 4649 6034 66410F6F 		movdqa	%xmm13, %xmm5
 4649      ED
 4650 6039 660FEBE8 		por	%xmm0, %xmm5
 4651 603d 66440F38 		pshufb	%xmm5, %xmm15
 4651      00FD
 4652 6043 66450FEB 		por	%xmm15, %xmm14
 4652      F7
 4653 6048 66440F38 		pshufb	40(%rsp), %xmm14
 4653      00742428 
 4654 6050 66410F6F 		movdqa	%xmm14, %xmm5
 4654      EE
 4655 6055 660F3800 		pshufb	%xmm4, %xmm5
 4655      EC
 4656 605a 66440FEF 		pxor	%xmm5, %xmm14
 4656      F5
 4657 605f 66440F6F 		movdqa	%xmm5, %xmm13
 4657      ED
 4658 6064 66450F6F 		movdqa	%xmm14, %xmm15
 4658      FE
 4659 6069 66410F72 		pslld	$1, %xmm14
 4659      F601
 4660 606f 66440F38 		pshufb	%xmm4, %xmm13
 4660      00EC
 4661 6075 66410F72 		psrld	$7, %xmm15
 4661      D707
 4662 607b 66440FDB 		pand	%xmm3, %xmm15
 4662      FB
 4663 6080 66440FDB 		pand	72(%rsp), %xmm14
 4663      742448
 4664 6087 66410F6F 		movdqa	%xmm13, %xmm0
 4664      C5
 4665 608c 66440F7F 		movdqa	%xmm15, -120(%rsp)
 4665      7C2488
 4666 6093 660F3800 		pshufb	%xmm4, %xmm0
 4666      C4
 4667 6098 66410FEF 		pxor	%xmm13, %xmm5
 4667      ED
 4668 609d 66440F6F 		movdqa	56(%rsp), %xmm15
 4668      7C2438
 4669 60a4 660FEFC5 		pxor	%xmm5, %xmm0
 4670 60a8 66440F38 		pshufb	-120(%rsp), %xmm15
 4670      007C2488 
GAS LISTING /tmp/ccABNvJu.s 			page 196


 4671 60b0 66450FEF 		pxor	%xmm15, %xmm14
 4671      F7
 4672 60b5 66440FEF 		pxor	%xmm0, %xmm14
 4672      F0
 4673 60ba 66440FEF 		pxor	16(%rdi,%rax), %xmm14
 4673      740710
 4674 60c1 4883C010 		addq	$16, %rax
 4675 60c5 483D9000 		cmpq	$144, %rax
 4675      0000
 4676 60cb 0F85C7FC 		jne	.L49
 4676      FFFF
 4677 60d1 66410F6F 		movdqa	%xmm14, %xmm0
 4677      C6
 4678 60d6 66410F72 		psrld	$4, %xmm14
 4678      D604
 4679 60dc 66440FDB 		pand	%xmm1, %xmm14
 4679      F1
 4680 60e1 660F6FE2 		movdqa	%xmm2, %xmm4
 4681 60e5 660FDBC1 		pand	%xmm1, %xmm0
 4682 60e9 660F6FEA 		movdqa	%xmm2, %xmm5
 4683 60ed 66440F6F 		movdqa	-24(%rsp), %xmm13
 4683      6C24E8
 4684 60f4 66410F38 		pshufb	%xmm14, %xmm4
 4684      00E6
 4685 60fa 66440F6F 		movdqa	-8(%rsp), %xmm15
 4685      7C24F8
 4686 6101 660FEBE0 		por	%xmm0, %xmm4
 4687 6105 66440F38 		pshufb	%xmm4, %xmm12
 4687      00E4
 4688 610b 660FEFE4 		pxor	%xmm4, %xmm4
 4689 610f 66440FEB 		por	%xmm4, %xmm12
 4689      E4
 4690 6114 66410F6F 		movdqa	%xmm14, %xmm4
 4690      E6
 4691 6119 660FF8E3 		psubb	%xmm3, %xmm4
 4692 611d 660FDBE1 		pand	%xmm1, %xmm4
 4693 6121 660F3800 		pshufb	%xmm4, %xmm5
 4693      EC
 4694 6126 660FF8E3 		psubb	%xmm3, %xmm4
 4695 612a 660FDBE1 		pand	%xmm1, %xmm4
 4696 612e 660FEBE8 		por	%xmm0, %xmm5
 4697 6132 66440F38 		pshufb	%xmm5, %xmm11
 4697      00DD
 4698 6138 660F6FEA 		movdqa	%xmm2, %xmm5
 4699 613c 660F3800 		pshufb	%xmm4, %xmm5
 4699      EC
 4700 6141 660FF8E3 		psubb	%xmm3, %xmm4
 4701 6145 660FDBE1 		pand	%xmm1, %xmm4
 4702 6149 66450FEB 		por	%xmm11, %xmm12
 4702      E3
 4703 614e 660FEBE8 		por	%xmm0, %xmm5
 4704 6152 66440F38 		pshufb	%xmm5, %xmm10
 4704      00D5
 4705 6158 660F6FEA 		movdqa	%xmm2, %xmm5
 4706 615c 660F3800 		pshufb	%xmm4, %xmm5
 4706      EC
 4707 6161 660FF8E3 		psubb	%xmm3, %xmm4
GAS LISTING /tmp/ccABNvJu.s 			page 197


 4708 6165 660FDBE1 		pand	%xmm1, %xmm4
 4709 6169 66450FEB 		por	%xmm10, %xmm12
 4709      E2
 4710 616e 660FEBE8 		por	%xmm0, %xmm5
 4711 6172 66440F38 		pshufb	%xmm5, %xmm9
 4711      00CD
 4712 6178 660F6FEA 		movdqa	%xmm2, %xmm5
 4713 617c 660F3800 		pshufb	%xmm4, %xmm5
 4713      EC
 4714 6181 660FF8E3 		psubb	%xmm3, %xmm4
 4715 6185 660FDBE1 		pand	%xmm1, %xmm4
 4716 6189 66450FEB 		por	%xmm9, %xmm12
 4716      E1
 4717 618e 660FEBE8 		por	%xmm0, %xmm5
 4718 6192 66440F38 		pshufb	%xmm5, %xmm8
 4718      00C5
 4719 6198 660F6FEA 		movdqa	%xmm2, %xmm5
 4720 619c 660F3800 		pshufb	%xmm4, %xmm5
 4720      EC
 4721 61a1 660FF8E3 		psubb	%xmm3, %xmm4
 4722 61a5 660FDBE1 		pand	%xmm1, %xmm4
 4723 61a9 66450FEB 		por	%xmm8, %xmm12
 4723      E0
 4724 61ae 660FEBE8 		por	%xmm0, %xmm5
 4725 61b2 660F3800 		pshufb	%xmm5, %xmm7
 4725      FD
 4726 61b7 660F6FEA 		movdqa	%xmm2, %xmm5
 4727 61bb 660F3800 		pshufb	%xmm4, %xmm5
 4727      EC
 4728 61c0 660FF8E3 		psubb	%xmm3, %xmm4
 4729 61c4 660FDBE1 		pand	%xmm1, %xmm4
 4730 61c8 66440FEB 		por	%xmm7, %xmm12
 4730      E7
 4731 61cd 660F6F7C 		movdqa	-40(%rsp), %xmm7
 4731      24D8
 4732 61d3 660FEBE8 		por	%xmm0, %xmm5
 4733 61d7 660F3800 		pshufb	%xmm5, %xmm6
 4733      F5
 4734 61dc 660F6FEA 		movdqa	%xmm2, %xmm5
 4735 61e0 660F3800 		pshufb	%xmm4, %xmm5
 4735      EC
 4736 61e5 660FF8E3 		psubb	%xmm3, %xmm4
 4737 61e9 66440FEB 		por	%xmm6, %xmm12
 4737      E6
 4738 61ee 660F6F74 		movdqa	-56(%rsp), %xmm6
 4738      24C8
 4739 61f4 660FDBE1 		pand	%xmm1, %xmm4
 4740 61f8 660FEBE8 		por	%xmm0, %xmm5
 4741 61fc 660F3800 		pshufb	%xmm5, %xmm6
 4741      F5
 4742 6201 660F6FEA 		movdqa	%xmm2, %xmm5
 4743 6205 660F3800 		pshufb	%xmm4, %xmm5
 4743      EC
 4744 620a 660FF8E3 		psubb	%xmm3, %xmm4
 4745 620e 660FDBE1 		pand	%xmm1, %xmm4
 4746 6212 66440FEB 		por	%xmm6, %xmm12
 4746      E6
GAS LISTING /tmp/ccABNvJu.s 			page 198


 4747 6217 660F6F74 		movdqa	8(%rsp), %xmm6
 4747      2408
 4748 621d 660FEBE8 		por	%xmm0, %xmm5
 4749 6221 660F3800 		pshufb	%xmm5, %xmm7
 4749      FD
 4750 6226 660F6FEA 		movdqa	%xmm2, %xmm5
 4751 622a 660F3800 		pshufb	%xmm4, %xmm5
 4751      EC
 4752 622f 660FF8E3 		psubb	%xmm3, %xmm4
 4753 6233 660FDBE1 		pand	%xmm1, %xmm4
 4754 6237 66440FEB 		por	%xmm7, %xmm12
 4754      E7
 4755 623c 660F6F7C 		movdqa	24(%rsp), %xmm7
 4755      2418
 4756 6242 660FEBE8 		por	%xmm0, %xmm5
 4757 6246 66440F38 		pshufb	%xmm5, %xmm13
 4757      00ED
 4758 624c 660F6FEA 		movdqa	%xmm2, %xmm5
 4759 6250 660F3800 		pshufb	%xmm4, %xmm5
 4759      EC
 4760 6255 660FF8E3 		psubb	%xmm3, %xmm4
 4761 6259 660FDBE1 		pand	%xmm1, %xmm4
 4762 625d 66450FEB 		por	%xmm13, %xmm12
 4762      E5
 4763 6262 66440F6F 		movdqa	-104(%rsp), %xmm13
 4763      6C2498
 4764 6269 660FEBE8 		por	%xmm0, %xmm5
 4765 626d 66440F38 		pshufb	%xmm5, %xmm15
 4765      00FD
 4766 6273 660F6FEA 		movdqa	%xmm2, %xmm5
 4767 6277 660F3800 		pshufb	%xmm4, %xmm5
 4767      EC
 4768 627c 660FF8E3 		psubb	%xmm3, %xmm4
 4769 6280 660FDBE1 		pand	%xmm1, %xmm4
 4770 6284 66450FEB 		por	%xmm15, %xmm12
 4770      E7
 4771 6289 66440F6F 		movdqa	-88(%rsp), %xmm15
 4771      7C24A8
 4772 6290 660FEBE8 		por	%xmm0, %xmm5
 4773 6294 660F3800 		pshufb	%xmm5, %xmm6
 4773      F5
 4774 6299 660F6FEA 		movdqa	%xmm2, %xmm5
 4775 629d 660F3800 		pshufb	%xmm4, %xmm5
 4775      EC
 4776 62a2 660FF8E3 		psubb	%xmm3, %xmm4
 4777 62a6 660FDBE1 		pand	%xmm1, %xmm4
 4778 62aa 66440FEB 		por	%xmm6, %xmm12
 4778      E6
 4779 62af 660FEBE8 		por	%xmm0, %xmm5
 4780 62b3 660F3800 		pshufb	%xmm5, %xmm7
 4780      FD
 4781 62b8 660F6FEA 		movdqa	%xmm2, %xmm5
 4782 62bc 660F3800 		pshufb	%xmm4, %xmm5
 4782      EC
 4783 62c1 660FF8E3 		psubb	%xmm3, %xmm4
 4784 62c5 660FDBE1 		pand	%xmm1, %xmm4
 4785 62c9 66440FEB 		por	%xmm7, %xmm12
GAS LISTING /tmp/ccABNvJu.s 			page 199


 4785      E7
 4786 62ce 660FEBE8 		por	%xmm0, %xmm5
 4787 62d2 66440F38 		pshufb	%xmm5, %xmm13
 4787      00ED
 4788 62d8 660F6FEA 		movdqa	%xmm2, %xmm5
 4789 62dc 660F3800 		pshufb	%xmm4, %xmm5
 4789      EC
 4790 62e1 660FF8E3 		psubb	%xmm3, %xmm4
 4791 62e5 660FDBE1 		pand	%xmm1, %xmm4
 4792 62e9 66450FEB 		por	%xmm13, %xmm12
 4792      E5
 4793 62ee 660FEBE8 		por	%xmm0, %xmm5
 4794 62f2 660F3800 		pshufb	%xmm4, %xmm2
 4794      D4
 4795 62f7 66440F38 		pshufb	%xmm5, %xmm15
 4795      00FD
 4796 62fd 660FEBD0 		por	%xmm0, %xmm2
 4797 6301 660F6F44 		movdqa	-72(%rsp), %xmm0
 4797      24B8
 4798 6307 66450FEB 		por	%xmm15, %xmm12
 4798      E7
 4799 630c 660F3800 		pshufb	%xmm2, %xmm0
 4799      C2
 4800 6311 66410FEB 		por	%xmm12, %xmm0
 4800      C4
 4801 6316 660F3800 		pshufb	40(%rsp), %xmm0
 4801      442428
 4802 631d 660FEF87 		pxor	160(%rdi), %xmm0
 4802      A0000000 
 4803 6325 4883C460 		addq	$96, %rsp
 4804 6329 C3       		ret
 4805 632a 660F1F44 		.p2align 4,,10
 4805      0000
 4806              		.p2align 3
 4807              	.L47:
 4808 6330 66440F6F 		movdqa	.LC34(%rip), %xmm15
 4808      3D000000 
 4808      00
 4809 6339 31C0     		xorl	%eax, %eax
 4810 633b 66440FEF 		pxor	(%rdi), %xmm14
 4810      37
 4811 6340 660F6F05 		movdqa	.LC35(%rip), %xmm0
 4811      00000000 
 4812 6348 66440F6F 		movdqa	.LC36(%rip), %xmm13
 4812      2D000000 
 4812      00
 4813 6351 66440F7F 		movdqa	%xmm15, -56(%rsp)
 4813      7C24C8
 4814 6358 660F7F44 		movdqa	%xmm0, -40(%rsp)
 4814      24D8
 4815 635e 66440F7F 		movdqa	%xmm13, -24(%rsp)
 4815      6C24E8
 4816 6365 66440F6F 		movdqa	.LC37(%rip), %xmm15
 4816      3D000000 
 4816      00
 4817 636e 660F6F05 		movdqa	.LC38(%rip), %xmm0
 4817      00000000 
GAS LISTING /tmp/ccABNvJu.s 			page 200


 4818 6376 66440F6F 		movdqa	.LC39(%rip), %xmm13
 4818      2D000000 
 4818      00
 4819 637f 66440F7F 		movdqa	%xmm15, -8(%rsp)
 4819      7C24F8
 4820 6386 660F7F44 		movdqa	%xmm0, 8(%rsp)
 4820      2408
 4821 638c 66440F7F 		movdqa	%xmm13, 24(%rsp)
 4821      6C2418
 4822 6393 66440F6F 		movdqa	.LC40(%rip), %xmm15
 4822      3D000000 
 4822      00
 4823 639c 660F6F05 		movdqa	.LC41(%rip), %xmm0
 4823      00000000 
 4824 63a4 66440F6F 		movdqa	.LC42(%rip), %xmm13
 4824      2D000000 
 4824      00
 4825 63ad 66440F7F 		movdqa	%xmm15, -104(%rsp)
 4825      7C2498
 4826 63b4 660F7F44 		movdqa	%xmm0, -88(%rsp)
 4826      24A8
 4827 63ba 66440F7F 		movdqa	%xmm13, -72(%rsp)
 4827      6C24B8
 4828 63c1 66440F6F 		movdqa	.LC54(%rip), %xmm15
 4828      3D000000 
 4828      00
 4829 63ca 660F6F05 		movdqa	.LC21(%rip), %xmm0
 4829      00000000 
 4830 63d2 660F6F0D 		movdqa	.LC0(%rip), %xmm1
 4830      00000000 
 4831 63da 660F6F15 		movdqa	.LC1(%rip), %xmm2
 4831      00000000 
 4832 63e2 66440F6F 		movdqa	.LC27(%rip), %xmm12
 4832      25000000 
 4832      00
 4833 63eb 660F6F1D 		movdqa	.LC3(%rip), %xmm3
 4833      00000000 
 4834 63f3 66440F6F 		movdqa	.LC28(%rip), %xmm11
 4834      1D000000 
 4834      00
 4835 63fc 66440F6F 		movdqa	.LC29(%rip), %xmm10
 4835      15000000 
 4835      00
 4836 6405 66440F6F 		movdqa	.LC30(%rip), %xmm9
 4836      0D000000 
 4836      00
 4837 640e 66440F6F 		movdqa	.LC31(%rip), %xmm8
 4837      05000000 
 4837      00
 4838 6417 660F6F3D 		movdqa	.LC32(%rip), %xmm7
 4838      00000000 
 4839 641f 660F6F35 		movdqa	.LC33(%rip), %xmm6
 4839      00000000 
 4840 6427 66440F7F 		movdqa	%xmm15, 40(%rsp)
 4840      7C2428
 4841 642e 660F6F25 		movdqa	.LC20(%rip), %xmm4
 4841      00000000 
GAS LISTING /tmp/ccABNvJu.s 			page 201


 4842 6436 660F7F44 		movdqa	%xmm0, 56(%rsp)
 4842      2438
 4843 643c 66440F6F 		movdqa	.LC24(%rip), %xmm13
 4843      2D000000 
 4843      00
 4844 6445 66440F7F 		movdqa	%xmm13, 72(%rsp)
 4844      6C2448
 4845 644c 0F1F4000 		.p2align 4,,10
 4846              		.p2align 3
 4847              	.L51:
 4848 6450 660F6FE9 		movdqa	%xmm1, %xmm5
 4849 6454 66410F6F 		movdqa	%xmm14, %xmm0
 4849      C6
 4850 6459 66410F72 		psrld	$4, %xmm14
 4850      D604
 4851 645f 66450F6F 		movdqa	%xmm12, %xmm15
 4851      FC
 4852 6464 66410FDB 		pand	%xmm14, %xmm5
 4852      EE
 4853 6469 66440F6F 		movdqa	%xmm2, %xmm14
 4853      F2
 4854 646e 660FDBC1 		pand	%xmm1, %xmm0
 4855 6472 66450FEF 		pxor	%xmm13, %xmm13
 4855      ED
 4856 6477 66440F38 		pshufb	%xmm5, %xmm14
 4856      00F5
 4857 647d 660FF8EB 		psubb	%xmm3, %xmm5
 4858 6481 660FDBE9 		pand	%xmm1, %xmm5
 4859 6485 66440FEB 		por	%xmm0, %xmm14
 4859      F0
 4860 648a 66450F38 		pshufb	%xmm14, %xmm15
 4860      00FE
 4861 6490 66450F6F 		movdqa	%xmm15, %xmm14
 4861      F7
 4862 6495 66450F6F 		movdqa	%xmm11, %xmm15
 4862      FB
 4863 649a 66450FEB 		por	%xmm13, %xmm14
 4863      F5
 4864 649f 66440F6F 		movdqa	%xmm2, %xmm13
 4864      EA
 4865 64a4 66440F38 		pshufb	%xmm5, %xmm13
 4865      00ED
 4866 64aa 660FF8EB 		psubb	%xmm3, %xmm5
 4867 64ae 660FDBE9 		pand	%xmm1, %xmm5
 4868 64b2 66440FEB 		por	%xmm0, %xmm13
 4868      E8
 4869 64b7 66450F38 		pshufb	%xmm13, %xmm15
 4869      00FD
 4870 64bd 66440F6F 		movdqa	%xmm2, %xmm13
 4870      EA
 4871 64c2 66440F38 		pshufb	%xmm5, %xmm13
 4871      00ED
 4872 64c8 660FF8EB 		psubb	%xmm3, %xmm5
 4873 64cc 66450FEB 		por	%xmm15, %xmm14
 4873      F7
 4874 64d1 66450F6F 		movdqa	%xmm10, %xmm15
 4874      FA
GAS LISTING /tmp/ccABNvJu.s 			page 202


 4875 64d6 660FDBE9 		pand	%xmm1, %xmm5
 4876 64da 66440FEB 		por	%xmm0, %xmm13
 4876      E8
 4877 64df 66450F38 		pshufb	%xmm13, %xmm15
 4877      00FD
 4878 64e5 66440F6F 		movdqa	%xmm2, %xmm13
 4878      EA
 4879 64ea 66440F38 		pshufb	%xmm5, %xmm13
 4879      00ED
 4880 64f0 660FF8EB 		psubb	%xmm3, %xmm5
 4881 64f4 66450FEB 		por	%xmm15, %xmm14
 4881      F7
 4882 64f9 66450F6F 		movdqa	%xmm9, %xmm15
 4882      F9
 4883 64fe 660FDBE9 		pand	%xmm1, %xmm5
 4884 6502 66440FEB 		por	%xmm0, %xmm13
 4884      E8
 4885 6507 66450F38 		pshufb	%xmm13, %xmm15
 4885      00FD
 4886 650d 66440F6F 		movdqa	%xmm2, %xmm13
 4886      EA
 4887 6512 66440F38 		pshufb	%xmm5, %xmm13
 4887      00ED
 4888 6518 660FF8EB 		psubb	%xmm3, %xmm5
 4889 651c 66450FEB 		por	%xmm15, %xmm14
 4889      F7
 4890 6521 66450F6F 		movdqa	%xmm8, %xmm15
 4890      F8
 4891 6526 660FDBE9 		pand	%xmm1, %xmm5
 4892 652a 66440FEB 		por	%xmm0, %xmm13
 4892      E8
 4893 652f 66450F38 		pshufb	%xmm13, %xmm15
 4893      00FD
 4894 6535 66440F6F 		movdqa	%xmm2, %xmm13
 4894      EA
 4895 653a 66440F38 		pshufb	%xmm5, %xmm13
 4895      00ED
 4896 6540 660FF8EB 		psubb	%xmm3, %xmm5
 4897 6544 66450FEB 		por	%xmm15, %xmm14
 4897      F7
 4898 6549 66440F6F 		movdqa	%xmm7, %xmm15
 4898      FF
 4899 654e 660FDBE9 		pand	%xmm1, %xmm5
 4900 6552 66440FEB 		por	%xmm0, %xmm13
 4900      E8
 4901 6557 66450F38 		pshufb	%xmm13, %xmm15
 4901      00FD
 4902 655d 66440F6F 		movdqa	%xmm2, %xmm13
 4902      EA
 4903 6562 66440F38 		pshufb	%xmm5, %xmm13
 4903      00ED
 4904 6568 660FF8EB 		psubb	%xmm3, %xmm5
 4905 656c 66450FEB 		por	%xmm15, %xmm14
 4905      F7
 4906 6571 66440F6F 		movdqa	%xmm6, %xmm15
 4906      FE
 4907 6576 660FDBE9 		pand	%xmm1, %xmm5
GAS LISTING /tmp/ccABNvJu.s 			page 203


 4908 657a 66440FEB 		por	%xmm0, %xmm13
 4908      E8
 4909 657f 66450F38 		pshufb	%xmm13, %xmm15
 4909      00FD
 4910 6585 66440F6F 		movdqa	%xmm2, %xmm13
 4910      EA
 4911 658a 66440F38 		pshufb	%xmm5, %xmm13
 4911      00ED
 4912 6590 660FF8EB 		psubb	%xmm3, %xmm5
 4913 6594 66450FEB 		por	%xmm15, %xmm14
 4913      F7
 4914 6599 66440F6F 		movdqa	-56(%rsp), %xmm15
 4914      7C24C8
 4915 65a0 660FDBE9 		pand	%xmm1, %xmm5
 4916 65a4 66440FEB 		por	%xmm0, %xmm13
 4916      E8
 4917 65a9 66450F38 		pshufb	%xmm13, %xmm15
 4917      00FD
 4918 65af 66440F6F 		movdqa	%xmm2, %xmm13
 4918      EA
 4919 65b4 66440F38 		pshufb	%xmm5, %xmm13
 4919      00ED
 4920 65ba 660FF8EB 		psubb	%xmm3, %xmm5
 4921 65be 66450FEB 		por	%xmm15, %xmm14
 4921      F7
 4922 65c3 66440F6F 		movdqa	-40(%rsp), %xmm15
 4922      7C24D8
 4923 65ca 660FDBE9 		pand	%xmm1, %xmm5
 4924 65ce 66440FEB 		por	%xmm0, %xmm13
 4924      E8
 4925 65d3 66450F38 		pshufb	%xmm13, %xmm15
 4925      00FD
 4926 65d9 66440F6F 		movdqa	%xmm2, %xmm13
 4926      EA
 4927 65de 66440F38 		pshufb	%xmm5, %xmm13
 4927      00ED
 4928 65e4 660FF8EB 		psubb	%xmm3, %xmm5
 4929 65e8 66450FEB 		por	%xmm15, %xmm14
 4929      F7
 4930 65ed 66440F6F 		movdqa	-24(%rsp), %xmm15
 4930      7C24E8
 4931 65f4 660FDBE9 		pand	%xmm1, %xmm5
 4932 65f8 66440FEB 		por	%xmm0, %xmm13
 4932      E8
 4933 65fd 66450F38 		pshufb	%xmm13, %xmm15
 4933      00FD
 4934 6603 66440F6F 		movdqa	%xmm2, %xmm13
 4934      EA
 4935 6608 66440F38 		pshufb	%xmm5, %xmm13
 4935      00ED
 4936 660e 660FF8EB 		psubb	%xmm3, %xmm5
 4937 6612 66450FEB 		por	%xmm15, %xmm14
 4937      F7
 4938 6617 66440F6F 		movdqa	-8(%rsp), %xmm15
 4938      7C24F8
 4939 661e 660FDBE9 		pand	%xmm1, %xmm5
 4940 6622 66440FEB 		por	%xmm0, %xmm13
GAS LISTING /tmp/ccABNvJu.s 			page 204


 4940      E8
 4941 6627 66450F38 		pshufb	%xmm13, %xmm15
 4941      00FD
 4942 662d 66440F6F 		movdqa	%xmm2, %xmm13
 4942      EA
 4943 6632 66440F38 		pshufb	%xmm5, %xmm13
 4943      00ED
 4944 6638 660FF8EB 		psubb	%xmm3, %xmm5
 4945 663c 66450FEB 		por	%xmm15, %xmm14
 4945      F7
 4946 6641 66440F6F 		movdqa	8(%rsp), %xmm15
 4946      7C2408
 4947 6648 660FDBE9 		pand	%xmm1, %xmm5
 4948 664c 66440FEB 		por	%xmm0, %xmm13
 4948      E8
 4949 6651 66450F38 		pshufb	%xmm13, %xmm15
 4949      00FD
 4950 6657 66440F6F 		movdqa	%xmm2, %xmm13
 4950      EA
 4951 665c 66440F38 		pshufb	%xmm5, %xmm13
 4951      00ED
 4952 6662 660FF8EB 		psubb	%xmm3, %xmm5
 4953 6666 66450FEB 		por	%xmm15, %xmm14
 4953      F7
 4954 666b 66440F6F 		movdqa	24(%rsp), %xmm15
 4954      7C2418
 4955 6672 660FDBE9 		pand	%xmm1, %xmm5
 4956 6676 66440FEB 		por	%xmm0, %xmm13
 4956      E8
 4957 667b 66450F38 		pshufb	%xmm13, %xmm15
 4957      00FD
 4958 6681 66440F6F 		movdqa	%xmm2, %xmm13
 4958      EA
 4959 6686 66440F38 		pshufb	%xmm5, %xmm13
 4959      00ED
 4960 668c 660FF8EB 		psubb	%xmm3, %xmm5
 4961 6690 66450FEB 		por	%xmm15, %xmm14
 4961      F7
 4962 6695 66440F6F 		movdqa	-104(%rsp), %xmm15
 4962      7C2498
 4963 669c 660FDBE9 		pand	%xmm1, %xmm5
 4964 66a0 66440FEB 		por	%xmm0, %xmm13
 4964      E8
 4965 66a5 66450F38 		pshufb	%xmm13, %xmm15
 4965      00FD
 4966 66ab 66440F6F 		movdqa	%xmm2, %xmm13
 4966      EA
 4967 66b0 66440F38 		pshufb	%xmm5, %xmm13
 4967      00ED
 4968 66b6 660FF8EB 		psubb	%xmm3, %xmm5
 4969 66ba 66450FEB 		por	%xmm15, %xmm14
 4969      F7
 4970 66bf 66440F6F 		movdqa	-88(%rsp), %xmm15
 4970      7C24A8
 4971 66c6 660FDBE9 		pand	%xmm1, %xmm5
 4972 66ca 66440FEB 		por	%xmm0, %xmm13
 4972      E8
GAS LISTING /tmp/ccABNvJu.s 			page 205


 4973 66cf 66450F38 		pshufb	%xmm13, %xmm15
 4973      00FD
 4974 66d5 66440F6F 		movdqa	%xmm2, %xmm13
 4974      EA
 4975 66da 66440F38 		pshufb	%xmm5, %xmm13
 4975      00ED
 4976 66e0 66450FEB 		por	%xmm15, %xmm14
 4976      F7
 4977 66e5 66440F6F 		movdqa	-72(%rsp), %xmm15
 4977      7C24B8
 4978 66ec 66410F6F 		movdqa	%xmm13, %xmm5
 4978      ED
 4979 66f1 660FEBE8 		por	%xmm0, %xmm5
 4980 66f5 66440F38 		pshufb	%xmm5, %xmm15
 4980      00FD
 4981 66fb 66450FEB 		por	%xmm15, %xmm14
 4981      F7
 4982 6700 66440F38 		pshufb	40(%rsp), %xmm14
 4982      00742428 
 4983 6708 66410F6F 		movdqa	%xmm14, %xmm5
 4983      EE
 4984 670d 660F3800 		pshufb	%xmm4, %xmm5
 4984      EC
 4985 6712 66440FEF 		pxor	%xmm5, %xmm14
 4985      F5
 4986 6717 66440F6F 		movdqa	%xmm5, %xmm13
 4986      ED
 4987 671c 66450F6F 		movdqa	%xmm14, %xmm15
 4987      FE
 4988 6721 66410F72 		pslld	$1, %xmm14
 4988      F601
 4989 6727 66440F38 		pshufb	%xmm4, %xmm13
 4989      00EC
 4990 672d 66410F72 		psrld	$7, %xmm15
 4990      D707
 4991 6733 66440FDB 		pand	%xmm3, %xmm15
 4991      FB
 4992 6738 66440FDB 		pand	72(%rsp), %xmm14
 4992      742448
 4993 673f 66410F6F 		movdqa	%xmm13, %xmm0
 4993      C5
 4994 6744 66440F7F 		movdqa	%xmm15, -120(%rsp)
 4994      7C2488
 4995 674b 660F3800 		pshufb	%xmm4, %xmm0
 4995      C4
 4996 6750 66410FEF 		pxor	%xmm13, %xmm5
 4996      ED
 4997 6755 66440F6F 		movdqa	56(%rsp), %xmm15
 4997      7C2438
 4998 675c 660FEFC5 		pxor	%xmm5, %xmm0
 4999 6760 66440F38 		pshufb	-120(%rsp), %xmm15
 4999      007C2488 
 5000 6768 66450FEF 		pxor	%xmm15, %xmm14
 5000      F7
 5001 676d 66440FEF 		pxor	%xmm0, %xmm14
 5001      F0
 5002 6772 66440FEF 		pxor	16(%rdi,%rax), %xmm14
GAS LISTING /tmp/ccABNvJu.s 			page 206


 5002      740710
 5003 6779 4883C010 		addq	$16, %rax
 5004 677d 483DD000 		cmpq	$208, %rax
 5004      0000
 5005 6783 0F85C7FC 		jne	.L51
 5005      FFFF
 5006 6789 66410F6F 		movdqa	%xmm14, %xmm0
 5006      C6
 5007 678e 66410F72 		psrld	$4, %xmm14
 5007      D604
 5008 6794 66440FDB 		pand	%xmm1, %xmm14
 5008      F1
 5009 6799 660F6FE2 		movdqa	%xmm2, %xmm4
 5010 679d 660FDBC1 		pand	%xmm1, %xmm0
 5011 67a1 660F6FEA 		movdqa	%xmm2, %xmm5
 5012 67a5 66440F6F 		movdqa	-24(%rsp), %xmm13
 5012      6C24E8
 5013 67ac 66410F38 		pshufb	%xmm14, %xmm4
 5013      00E6
 5014 67b2 66440F6F 		movdqa	-8(%rsp), %xmm15
 5014      7C24F8
 5015 67b9 660FEBE0 		por	%xmm0, %xmm4
 5016 67bd 66440F38 		pshufb	%xmm4, %xmm12
 5016      00E4
 5017 67c3 660FEFE4 		pxor	%xmm4, %xmm4
 5018 67c7 66440FEB 		por	%xmm4, %xmm12
 5018      E4
 5019 67cc 66410F6F 		movdqa	%xmm14, %xmm4
 5019      E6
 5020 67d1 660FF8E3 		psubb	%xmm3, %xmm4
 5021 67d5 660FDBE1 		pand	%xmm1, %xmm4
 5022 67d9 660F3800 		pshufb	%xmm4, %xmm5
 5022      EC
 5023 67de 660FF8E3 		psubb	%xmm3, %xmm4
 5024 67e2 660FDBE1 		pand	%xmm1, %xmm4
 5025 67e6 660FEBE8 		por	%xmm0, %xmm5
 5026 67ea 66440F38 		pshufb	%xmm5, %xmm11
 5026      00DD
 5027 67f0 660F6FEA 		movdqa	%xmm2, %xmm5
 5028 67f4 660F3800 		pshufb	%xmm4, %xmm5
 5028      EC
 5029 67f9 660FF8E3 		psubb	%xmm3, %xmm4
 5030 67fd 660FDBE1 		pand	%xmm1, %xmm4
 5031 6801 66450FEB 		por	%xmm11, %xmm12
 5031      E3
 5032 6806 660FEBE8 		por	%xmm0, %xmm5
 5033 680a 66440F38 		pshufb	%xmm5, %xmm10
 5033      00D5
 5034 6810 660F6FEA 		movdqa	%xmm2, %xmm5
 5035 6814 660F3800 		pshufb	%xmm4, %xmm5
 5035      EC
 5036 6819 660FF8E3 		psubb	%xmm3, %xmm4
 5037 681d 660FDBE1 		pand	%xmm1, %xmm4
 5038 6821 66450FEB 		por	%xmm10, %xmm12
 5038      E2
 5039 6826 660FEBE8 		por	%xmm0, %xmm5
 5040 682a 66440F38 		pshufb	%xmm5, %xmm9
GAS LISTING /tmp/ccABNvJu.s 			page 207


 5040      00CD
 5041 6830 660F6FEA 		movdqa	%xmm2, %xmm5
 5042 6834 660F3800 		pshufb	%xmm4, %xmm5
 5042      EC
 5043 6839 660FF8E3 		psubb	%xmm3, %xmm4
 5044 683d 660FDBE1 		pand	%xmm1, %xmm4
 5045 6841 66450FEB 		por	%xmm9, %xmm12
 5045      E1
 5046 6846 660FEBE8 		por	%xmm0, %xmm5
 5047 684a 66440F38 		pshufb	%xmm5, %xmm8
 5047      00C5
 5048 6850 660F6FEA 		movdqa	%xmm2, %xmm5
 5049 6854 660F3800 		pshufb	%xmm4, %xmm5
 5049      EC
 5050 6859 660FF8E3 		psubb	%xmm3, %xmm4
 5051 685d 660FDBE1 		pand	%xmm1, %xmm4
 5052 6861 66450FEB 		por	%xmm8, %xmm12
 5052      E0
 5053 6866 660FEBE8 		por	%xmm0, %xmm5
 5054 686a 660F3800 		pshufb	%xmm5, %xmm7
 5054      FD
 5055 686f 660F6FEA 		movdqa	%xmm2, %xmm5
 5056 6873 660F3800 		pshufb	%xmm4, %xmm5
 5056      EC
 5057 6878 660FF8E3 		psubb	%xmm3, %xmm4
 5058 687c 660FDBE1 		pand	%xmm1, %xmm4
 5059 6880 66440FEB 		por	%xmm7, %xmm12
 5059      E7
 5060 6885 660F6F7C 		movdqa	-40(%rsp), %xmm7
 5060      24D8
 5061 688b 660FEBE8 		por	%xmm0, %xmm5
 5062 688f 660F3800 		pshufb	%xmm5, %xmm6
 5062      F5
 5063 6894 660F6FEA 		movdqa	%xmm2, %xmm5
 5064 6898 660F3800 		pshufb	%xmm4, %xmm5
 5064      EC
 5065 689d 660FF8E3 		psubb	%xmm3, %xmm4
 5066 68a1 66440FEB 		por	%xmm6, %xmm12
 5066      E6
 5067 68a6 660F6F74 		movdqa	-56(%rsp), %xmm6
 5067      24C8
 5068 68ac 660FDBE1 		pand	%xmm1, %xmm4
 5069 68b0 660FEBE8 		por	%xmm0, %xmm5
 5070 68b4 660F3800 		pshufb	%xmm5, %xmm6
 5070      F5
 5071 68b9 660F6FEA 		movdqa	%xmm2, %xmm5
 5072 68bd 660F3800 		pshufb	%xmm4, %xmm5
 5072      EC
 5073 68c2 660FF8E3 		psubb	%xmm3, %xmm4
 5074 68c6 660FDBE1 		pand	%xmm1, %xmm4
 5075 68ca 66440FEB 		por	%xmm6, %xmm12
 5075      E6
 5076 68cf 660F6F74 		movdqa	8(%rsp), %xmm6
 5076      2408
 5077 68d5 660FEBE8 		por	%xmm0, %xmm5
 5078 68d9 660F3800 		pshufb	%xmm5, %xmm7
 5078      FD
GAS LISTING /tmp/ccABNvJu.s 			page 208


 5079 68de 660F6FEA 		movdqa	%xmm2, %xmm5
 5080 68e2 660F3800 		pshufb	%xmm4, %xmm5
 5080      EC
 5081 68e7 660FF8E3 		psubb	%xmm3, %xmm4
 5082 68eb 660FDBE1 		pand	%xmm1, %xmm4
 5083 68ef 66440FEB 		por	%xmm7, %xmm12
 5083      E7
 5084 68f4 660F6F7C 		movdqa	24(%rsp), %xmm7
 5084      2418
 5085 68fa 660FEBE8 		por	%xmm0, %xmm5
 5086 68fe 66440F38 		pshufb	%xmm5, %xmm13
 5086      00ED
 5087 6904 660F6FEA 		movdqa	%xmm2, %xmm5
 5088 6908 660F3800 		pshufb	%xmm4, %xmm5
 5088      EC
 5089 690d 660FF8E3 		psubb	%xmm3, %xmm4
 5090 6911 660FDBE1 		pand	%xmm1, %xmm4
 5091 6915 66450FEB 		por	%xmm13, %xmm12
 5091      E5
 5092 691a 66440F6F 		movdqa	-104(%rsp), %xmm13
 5092      6C2498
 5093 6921 660FEBE8 		por	%xmm0, %xmm5
 5094 6925 66440F38 		pshufb	%xmm5, %xmm15
 5094      00FD
 5095 692b 660F6FEA 		movdqa	%xmm2, %xmm5
 5096 692f 660F3800 		pshufb	%xmm4, %xmm5
 5096      EC
 5097 6934 660FF8E3 		psubb	%xmm3, %xmm4
 5098 6938 660FDBE1 		pand	%xmm1, %xmm4
 5099 693c 66450FEB 		por	%xmm15, %xmm12
 5099      E7
 5100 6941 66440F6F 		movdqa	-88(%rsp), %xmm15
 5100      7C24A8
 5101 6948 660FEBE8 		por	%xmm0, %xmm5
 5102 694c 660F3800 		pshufb	%xmm5, %xmm6
 5102      F5
 5103 6951 660F6FEA 		movdqa	%xmm2, %xmm5
 5104 6955 660F3800 		pshufb	%xmm4, %xmm5
 5104      EC
 5105 695a 660FF8E3 		psubb	%xmm3, %xmm4
 5106 695e 660FDBE1 		pand	%xmm1, %xmm4
 5107 6962 66440FEB 		por	%xmm6, %xmm12
 5107      E6
 5108 6967 660F6FF2 		movdqa	%xmm2, %xmm6
 5109 696b 660FEBE8 		por	%xmm0, %xmm5
 5110 696f 660F3800 		pshufb	%xmm4, %xmm6
 5110      F4
 5111 6974 660FF8E3 		psubb	%xmm3, %xmm4
 5112 6978 660FDBE1 		pand	%xmm1, %xmm4
 5113 697c 660F3800 		pshufb	%xmm5, %xmm7
 5113      FD
 5114 6981 660FEBF0 		por	%xmm0, %xmm6
 5115 6985 660F6FEF 		movdqa	%xmm7, %xmm5
 5116 6989 66440F38 		pshufb	%xmm6, %xmm13
 5116      00EE
 5117 698f 66410FEB 		por	%xmm12, %xmm5
 5117      EC
GAS LISTING /tmp/ccABNvJu.s 			page 209


 5118 6994 66410F6F 		movdqa	%xmm13, %xmm6
 5118      F5
 5119 6999 660FEBF5 		por	%xmm5, %xmm6
 5120 699d 660F6FEA 		movdqa	%xmm2, %xmm5
 5121 69a1 660F3800 		pshufb	%xmm4, %xmm5
 5121      EC
 5122 69a6 660FF8E3 		psubb	%xmm3, %xmm4
 5123 69aa 660FDBE1 		pand	%xmm1, %xmm4
 5124 69ae 660FEBE8 		por	%xmm0, %xmm5
 5125 69b2 660F3800 		pshufb	%xmm4, %xmm2
 5125      D4
 5126 69b7 66440F38 		pshufb	%xmm5, %xmm15
 5126      00FD
 5127 69bd 660FEBD0 		por	%xmm0, %xmm2
 5128 69c1 660F6F44 		movdqa	-72(%rsp), %xmm0
 5128      24B8
 5129 69c7 66410F6F 		movdqa	%xmm15, %xmm5
 5129      EF
 5130 69cc 660F3800 		pshufb	%xmm2, %xmm0
 5130      C2
 5131 69d1 660FEBEE 		por	%xmm6, %xmm5
 5132 69d5 660FEBC5 		por	%xmm5, %xmm0
 5133 69d9 660F3800 		pshufb	40(%rsp), %xmm0
 5133      442428
 5134 69e0 660FEF87 		pxor	224(%rdi), %xmm0
 5134      E0000000 
 5135 69e8 4883C460 		addq	$96, %rsp
 5136 69ec C3       		ret
 5137 69ed 0F1F00   		.p2align 4,,10
 5138              		.p2align 3
 5139              	.L46:
 5140 69f0 660F6F05 		movdqa	.LC34(%rip), %xmm0
 5140      00000000 
 5141 69f8 31C0     		xorl	%eax, %eax
 5142 69fa 66440FEF 		pxor	(%rdi), %xmm14
 5142      37
 5143 69ff 66440F6F 		movdqa	.LC35(%rip), %xmm13
 5143      2D000000 
 5143      00
 5144 6a08 66440F6F 		movdqa	.LC36(%rip), %xmm15
 5144      3D000000 
 5144      00
 5145 6a11 660F7F44 		movdqa	%xmm0, -56(%rsp)
 5145      24C8
 5146 6a17 66440F7F 		movdqa	%xmm13, -40(%rsp)
 5146      6C24D8
 5147 6a1e 66440F7F 		movdqa	%xmm15, -24(%rsp)
 5147      7C24E8
 5148 6a25 660F6F05 		movdqa	.LC37(%rip), %xmm0
 5148      00000000 
 5149 6a2d 66440F6F 		movdqa	.LC38(%rip), %xmm13
 5149      2D000000 
 5149      00
 5150 6a36 66440F6F 		movdqa	.LC39(%rip), %xmm15
 5150      3D000000 
 5150      00
 5151 6a3f 660F7F44 		movdqa	%xmm0, -8(%rsp)
GAS LISTING /tmp/ccABNvJu.s 			page 210


 5151      24F8
 5152 6a45 66440F7F 		movdqa	%xmm13, 8(%rsp)
 5152      6C2408
 5153 6a4c 66440F7F 		movdqa	%xmm15, 24(%rsp)
 5153      7C2418
 5154 6a53 660F6F05 		movdqa	.LC40(%rip), %xmm0
 5154      00000000 
 5155 6a5b 66440F6F 		movdqa	.LC41(%rip), %xmm13
 5155      2D000000 
 5155      00
 5156 6a64 66440F6F 		movdqa	.LC42(%rip), %xmm15
 5156      3D000000 
 5156      00
 5157 6a6d 660F7F44 		movdqa	%xmm0, -104(%rsp)
 5157      2498
 5158 6a73 66440F7F 		movdqa	%xmm13, -88(%rsp)
 5158      6C24A8
 5159 6a7a 66440F7F 		movdqa	%xmm15, -72(%rsp)
 5159      7C24B8
 5160 6a81 660F6F05 		movdqa	.LC54(%rip), %xmm0
 5160      00000000 
 5161 6a89 66440F6F 		movdqa	.LC21(%rip), %xmm13
 5161      2D000000 
 5161      00
 5162 6a92 660F6F0D 		movdqa	.LC0(%rip), %xmm1
 5162      00000000 
 5163 6a9a 660F6F15 		movdqa	.LC1(%rip), %xmm2
 5163      00000000 
 5164 6aa2 66440F6F 		movdqa	.LC27(%rip), %xmm12
 5164      25000000 
 5164      00
 5165 6aab 660F6F1D 		movdqa	.LC3(%rip), %xmm3
 5165      00000000 
 5166 6ab3 66440F6F 		movdqa	.LC28(%rip), %xmm11
 5166      1D000000 
 5166      00
 5167 6abc 66440F6F 		movdqa	.LC29(%rip), %xmm10
 5167      15000000 
 5167      00
 5168 6ac5 66440F6F 		movdqa	.LC30(%rip), %xmm9
 5168      0D000000 
 5168      00
 5169 6ace 66440F6F 		movdqa	.LC31(%rip), %xmm8
 5169      05000000 
 5169      00
 5170 6ad7 660F6F3D 		movdqa	.LC32(%rip), %xmm7
 5170      00000000 
 5171 6adf 660F6F35 		movdqa	.LC33(%rip), %xmm6
 5171      00000000 
 5172 6ae7 660F7F44 		movdqa	%xmm0, 40(%rsp)
 5172      2428
 5173 6aed 660F6F25 		movdqa	.LC20(%rip), %xmm4
 5173      00000000 
 5174 6af5 66440F7F 		movdqa	%xmm13, 56(%rsp)
 5174      6C2438
 5175 6afc 66440F6F 		movdqa	.LC24(%rip), %xmm15
 5175      3D000000 
GAS LISTING /tmp/ccABNvJu.s 			page 211


 5175      00
 5176 6b05 66440F7F 		movdqa	%xmm15, 72(%rsp)
 5176      7C2448
 5177 6b0c 0F1F4000 		.p2align 4,,10
 5178              		.p2align 3
 5179              	.L50:
 5180 6b10 660F6FE9 		movdqa	%xmm1, %xmm5
 5181 6b14 66410F6F 		movdqa	%xmm14, %xmm0
 5181      C6
 5182 6b19 66410F72 		psrld	$4, %xmm14
 5182      D604
 5183 6b1f 66450F6F 		movdqa	%xmm12, %xmm13
 5183      EC
 5184 6b24 66410FDB 		pand	%xmm14, %xmm5
 5184      EE
 5185 6b29 66440F6F 		movdqa	%xmm2, %xmm14
 5185      F2
 5186 6b2e 660FDBC1 		pand	%xmm1, %xmm0
 5187 6b32 66450FEF 		pxor	%xmm15, %xmm15
 5187      FF
 5188 6b37 66440F38 		pshufb	%xmm5, %xmm14
 5188      00F5
 5189 6b3d 660FF8EB 		psubb	%xmm3, %xmm5
 5190 6b41 660FDBE9 		pand	%xmm1, %xmm5
 5191 6b45 66440FEB 		por	%xmm0, %xmm14
 5191      F0
 5192 6b4a 66450F38 		pshufb	%xmm14, %xmm13
 5192      00EE
 5193 6b50 66450F6F 		movdqa	%xmm13, %xmm14
 5193      F5
 5194 6b55 66440F6F 		movdqa	%xmm2, %xmm13
 5194      EA
 5195 6b5a 66450FEB 		por	%xmm15, %xmm14
 5195      F7
 5196 6b5f 66450F6F 		movdqa	%xmm11, %xmm15
 5196      FB
 5197 6b64 66440F38 		pshufb	%xmm5, %xmm13
 5197      00ED
 5198 6b6a 660FF8EB 		psubb	%xmm3, %xmm5
 5199 6b6e 660FDBE9 		pand	%xmm1, %xmm5
 5200 6b72 66440FEB 		por	%xmm0, %xmm13
 5200      E8
 5201 6b77 66450F38 		pshufb	%xmm13, %xmm15
 5201      00FD
 5202 6b7d 66440F6F 		movdqa	%xmm2, %xmm13
 5202      EA
 5203 6b82 66440F38 		pshufb	%xmm5, %xmm13
 5203      00ED
 5204 6b88 660FF8EB 		psubb	%xmm3, %xmm5
 5205 6b8c 66450FEB 		por	%xmm15, %xmm14
 5205      F7
 5206 6b91 66450F6F 		movdqa	%xmm10, %xmm15
 5206      FA
 5207 6b96 660FDBE9 		pand	%xmm1, %xmm5
 5208 6b9a 66440FEB 		por	%xmm0, %xmm13
 5208      E8
 5209 6b9f 66450F38 		pshufb	%xmm13, %xmm15
GAS LISTING /tmp/ccABNvJu.s 			page 212


 5209      00FD
 5210 6ba5 66440F6F 		movdqa	%xmm2, %xmm13
 5210      EA
 5211 6baa 66440F38 		pshufb	%xmm5, %xmm13
 5211      00ED
 5212 6bb0 660FF8EB 		psubb	%xmm3, %xmm5
 5213 6bb4 66450FEB 		por	%xmm15, %xmm14
 5213      F7
 5214 6bb9 66450F6F 		movdqa	%xmm9, %xmm15
 5214      F9
 5215 6bbe 660FDBE9 		pand	%xmm1, %xmm5
 5216 6bc2 66440FEB 		por	%xmm0, %xmm13
 5216      E8
 5217 6bc7 66450F38 		pshufb	%xmm13, %xmm15
 5217      00FD
 5218 6bcd 66440F6F 		movdqa	%xmm2, %xmm13
 5218      EA
 5219 6bd2 66440F38 		pshufb	%xmm5, %xmm13
 5219      00ED
 5220 6bd8 660FF8EB 		psubb	%xmm3, %xmm5
 5221 6bdc 66450FEB 		por	%xmm15, %xmm14
 5221      F7
 5222 6be1 66450F6F 		movdqa	%xmm8, %xmm15
 5222      F8
 5223 6be6 660FDBE9 		pand	%xmm1, %xmm5
 5224 6bea 66440FEB 		por	%xmm0, %xmm13
 5224      E8
 5225 6bef 66450F38 		pshufb	%xmm13, %xmm15
 5225      00FD
 5226 6bf5 66440F6F 		movdqa	%xmm2, %xmm13
 5226      EA
 5227 6bfa 66440F38 		pshufb	%xmm5, %xmm13
 5227      00ED
 5228 6c00 660FF8EB 		psubb	%xmm3, %xmm5
 5229 6c04 66450FEB 		por	%xmm15, %xmm14
 5229      F7
 5230 6c09 66440F6F 		movdqa	%xmm7, %xmm15
 5230      FF
 5231 6c0e 660FDBE9 		pand	%xmm1, %xmm5
 5232 6c12 66440FEB 		por	%xmm0, %xmm13
 5232      E8
 5233 6c17 66450F38 		pshufb	%xmm13, %xmm15
 5233      00FD
 5234 6c1d 66440F6F 		movdqa	%xmm2, %xmm13
 5234      EA
 5235 6c22 66440F38 		pshufb	%xmm5, %xmm13
 5235      00ED
 5236 6c28 660FF8EB 		psubb	%xmm3, %xmm5
 5237 6c2c 66450FEB 		por	%xmm15, %xmm14
 5237      F7
 5238 6c31 66440F6F 		movdqa	%xmm6, %xmm15
 5238      FE
 5239 6c36 660FDBE9 		pand	%xmm1, %xmm5
 5240 6c3a 66440FEB 		por	%xmm0, %xmm13
 5240      E8
 5241 6c3f 66450F38 		pshufb	%xmm13, %xmm15
 5241      00FD
GAS LISTING /tmp/ccABNvJu.s 			page 213


 5242 6c45 66440F6F 		movdqa	%xmm2, %xmm13
 5242      EA
 5243 6c4a 66440F38 		pshufb	%xmm5, %xmm13
 5243      00ED
 5244 6c50 660FF8EB 		psubb	%xmm3, %xmm5
 5245 6c54 66450FEB 		por	%xmm15, %xmm14
 5245      F7
 5246 6c59 66440F6F 		movdqa	-56(%rsp), %xmm15
 5246      7C24C8
 5247 6c60 660FDBE9 		pand	%xmm1, %xmm5
 5248 6c64 66440FEB 		por	%xmm0, %xmm13
 5248      E8
 5249 6c69 66450F38 		pshufb	%xmm13, %xmm15
 5249      00FD
 5250 6c6f 66440F6F 		movdqa	%xmm2, %xmm13
 5250      EA
 5251 6c74 66440F38 		pshufb	%xmm5, %xmm13
 5251      00ED
 5252 6c7a 660FF8EB 		psubb	%xmm3, %xmm5
 5253 6c7e 66450FEB 		por	%xmm15, %xmm14
 5253      F7
 5254 6c83 66440F6F 		movdqa	-40(%rsp), %xmm15
 5254      7C24D8
 5255 6c8a 660FDBE9 		pand	%xmm1, %xmm5
 5256 6c8e 66440FEB 		por	%xmm0, %xmm13
 5256      E8
 5257 6c93 66450F38 		pshufb	%xmm13, %xmm15
 5257      00FD
 5258 6c99 66440F6F 		movdqa	%xmm2, %xmm13
 5258      EA
 5259 6c9e 66440F38 		pshufb	%xmm5, %xmm13
 5259      00ED
 5260 6ca4 660FF8EB 		psubb	%xmm3, %xmm5
 5261 6ca8 66450FEB 		por	%xmm15, %xmm14
 5261      F7
 5262 6cad 66440F6F 		movdqa	-24(%rsp), %xmm15
 5262      7C24E8
 5263 6cb4 660FDBE9 		pand	%xmm1, %xmm5
 5264 6cb8 66440FEB 		por	%xmm0, %xmm13
 5264      E8
 5265 6cbd 66450F38 		pshufb	%xmm13, %xmm15
 5265      00FD
 5266 6cc3 66440F6F 		movdqa	%xmm2, %xmm13
 5266      EA
 5267 6cc8 66440F38 		pshufb	%xmm5, %xmm13
 5267      00ED
 5268 6cce 660FF8EB 		psubb	%xmm3, %xmm5
 5269 6cd2 66450FEB 		por	%xmm15, %xmm14
 5269      F7
 5270 6cd7 66440F6F 		movdqa	-8(%rsp), %xmm15
 5270      7C24F8
 5271 6cde 660FDBE9 		pand	%xmm1, %xmm5
 5272 6ce2 66440FEB 		por	%xmm0, %xmm13
 5272      E8
 5273 6ce7 66450F38 		pshufb	%xmm13, %xmm15
 5273      00FD
 5274 6ced 66440F6F 		movdqa	%xmm2, %xmm13
GAS LISTING /tmp/ccABNvJu.s 			page 214


 5274      EA
 5275 6cf2 66440F38 		pshufb	%xmm5, %xmm13
 5275      00ED
 5276 6cf8 660FF8EB 		psubb	%xmm3, %xmm5
 5277 6cfc 66450FEB 		por	%xmm15, %xmm14
 5277      F7
 5278 6d01 66440F6F 		movdqa	8(%rsp), %xmm15
 5278      7C2408
 5279 6d08 660FDBE9 		pand	%xmm1, %xmm5
 5280 6d0c 66440FEB 		por	%xmm0, %xmm13
 5280      E8
 5281 6d11 66450F38 		pshufb	%xmm13, %xmm15
 5281      00FD
 5282 6d17 66440F6F 		movdqa	%xmm2, %xmm13
 5282      EA
 5283 6d1c 66440F38 		pshufb	%xmm5, %xmm13
 5283      00ED
 5284 6d22 660FF8EB 		psubb	%xmm3, %xmm5
 5285 6d26 66450FEB 		por	%xmm15, %xmm14
 5285      F7
 5286 6d2b 66440F6F 		movdqa	24(%rsp), %xmm15
 5286      7C2418
 5287 6d32 660FDBE9 		pand	%xmm1, %xmm5
 5288 6d36 66440FEB 		por	%xmm0, %xmm13
 5288      E8
 5289 6d3b 66450F38 		pshufb	%xmm13, %xmm15
 5289      00FD
 5290 6d41 66440F6F 		movdqa	%xmm2, %xmm13
 5290      EA
 5291 6d46 66440F38 		pshufb	%xmm5, %xmm13
 5291      00ED
 5292 6d4c 660FF8EB 		psubb	%xmm3, %xmm5
 5293 6d50 66450FEB 		por	%xmm15, %xmm14
 5293      F7
 5294 6d55 66440F6F 		movdqa	-104(%rsp), %xmm15
 5294      7C2498
 5295 6d5c 660FDBE9 		pand	%xmm1, %xmm5
 5296 6d60 66440FEB 		por	%xmm0, %xmm13
 5296      E8
 5297 6d65 66450F38 		pshufb	%xmm13, %xmm15
 5297      00FD
 5298 6d6b 66440F6F 		movdqa	%xmm2, %xmm13
 5298      EA
 5299 6d70 66440F38 		pshufb	%xmm5, %xmm13
 5299      00ED
 5300 6d76 660FF8EB 		psubb	%xmm3, %xmm5
 5301 6d7a 66450FEB 		por	%xmm15, %xmm14
 5301      F7
 5302 6d7f 66440F6F 		movdqa	-88(%rsp), %xmm15
 5302      7C24A8
 5303 6d86 660FDBE9 		pand	%xmm1, %xmm5
 5304 6d8a 66440FEB 		por	%xmm0, %xmm13
 5304      E8
 5305 6d8f 66450F38 		pshufb	%xmm13, %xmm15
 5305      00FD
 5306 6d95 66440F6F 		movdqa	%xmm2, %xmm13
 5306      EA
GAS LISTING /tmp/ccABNvJu.s 			page 215


 5307 6d9a 66440F38 		pshufb	%xmm5, %xmm13
 5307      00ED
 5308 6da0 66450FEB 		por	%xmm15, %xmm14
 5308      F7
 5309 6da5 66440F6F 		movdqa	-72(%rsp), %xmm15
 5309      7C24B8
 5310 6dac 66410F6F 		movdqa	%xmm13, %xmm5
 5310      ED
 5311 6db1 660FEBE8 		por	%xmm0, %xmm5
 5312 6db5 66440F38 		pshufb	%xmm5, %xmm15
 5312      00FD
 5313 6dbb 66450FEB 		por	%xmm15, %xmm14
 5313      F7
 5314 6dc0 66440F38 		pshufb	40(%rsp), %xmm14
 5314      00742428 
 5315 6dc8 66410F6F 		movdqa	%xmm14, %xmm5
 5315      EE
 5316 6dcd 660F3800 		pshufb	%xmm4, %xmm5
 5316      EC
 5317 6dd2 66440FEF 		pxor	%xmm5, %xmm14
 5317      F5
 5318 6dd7 66440F6F 		movdqa	%xmm5, %xmm13
 5318      ED
 5319 6ddc 66450F6F 		movdqa	%xmm14, %xmm15
 5319      FE
 5320 6de1 66410F72 		pslld	$1, %xmm14
 5320      F601
 5321 6de7 66440F38 		pshufb	%xmm4, %xmm13
 5321      00EC
 5322 6ded 66410F72 		psrld	$7, %xmm15
 5322      D707
 5323 6df3 66440FDB 		pand	%xmm3, %xmm15
 5323      FB
 5324 6df8 66440FDB 		pand	72(%rsp), %xmm14
 5324      742448
 5325 6dff 66410F6F 		movdqa	%xmm13, %xmm0
 5325      C5
 5326 6e04 66440F7F 		movdqa	%xmm15, -120(%rsp)
 5326      7C2488
 5327 6e0b 660F3800 		pshufb	%xmm4, %xmm0
 5327      C4
 5328 6e10 66410FEF 		pxor	%xmm13, %xmm5
 5328      ED
 5329 6e15 66440F6F 		movdqa	56(%rsp), %xmm15
 5329      7C2438
 5330 6e1c 660FEFC5 		pxor	%xmm5, %xmm0
 5331 6e20 66440F38 		pshufb	-120(%rsp), %xmm15
 5331      007C2488 
 5332 6e28 66450FEF 		pxor	%xmm15, %xmm14
 5332      F7
 5333 6e2d 66440FEF 		pxor	%xmm0, %xmm14
 5333      F0
 5334 6e32 66440FEF 		pxor	16(%rdi,%rax), %xmm14
 5334      740710
 5335 6e39 4883C010 		addq	$16, %rax
 5336 6e3d 483DB000 		cmpq	$176, %rax
 5336      0000
GAS LISTING /tmp/ccABNvJu.s 			page 216


 5337 6e43 0F85C7FC 		jne	.L50
 5337      FFFF
 5338 6e49 66410F6F 		movdqa	%xmm14, %xmm0
 5338      C6
 5339 6e4e 66410F72 		psrld	$4, %xmm14
 5339      D604
 5340 6e54 66440FDB 		pand	%xmm1, %xmm14
 5340      F1
 5341 6e59 660F6FE2 		movdqa	%xmm2, %xmm4
 5342 6e5d 660FDBC1 		pand	%xmm1, %xmm0
 5343 6e61 660F6FEA 		movdqa	%xmm2, %xmm5
 5344 6e65 66440F6F 		movdqa	-40(%rsp), %xmm13
 5344      6C24D8
 5345 6e6c 66410F38 		pshufb	%xmm14, %xmm4
 5345      00E6
 5346 6e72 66440F6F 		movdqa	-24(%rsp), %xmm15
 5346      7C24E8
 5347 6e79 660FEBE0 		por	%xmm0, %xmm4
 5348 6e7d 66440F38 		pshufb	%xmm4, %xmm12
 5348      00E4
 5349 6e83 660FEFE4 		pxor	%xmm4, %xmm4
 5350 6e87 66440FEB 		por	%xmm4, %xmm12
 5350      E4
 5351 6e8c 66410F6F 		movdqa	%xmm14, %xmm4
 5351      E6
 5352 6e91 660FF8E3 		psubb	%xmm3, %xmm4
 5353 6e95 660FDBE1 		pand	%xmm1, %xmm4
 5354 6e99 660F3800 		pshufb	%xmm4, %xmm5
 5354      EC
 5355 6e9e 660FF8E3 		psubb	%xmm3, %xmm4
 5356 6ea2 660FDBE1 		pand	%xmm1, %xmm4
 5357 6ea6 660FEBE8 		por	%xmm0, %xmm5
 5358 6eaa 66440F38 		pshufb	%xmm5, %xmm11
 5358      00DD
 5359 6eb0 660F6FEA 		movdqa	%xmm2, %xmm5
 5360 6eb4 660F3800 		pshufb	%xmm4, %xmm5
 5360      EC
 5361 6eb9 660FF8E3 		psubb	%xmm3, %xmm4
 5362 6ebd 660FDBE1 		pand	%xmm1, %xmm4
 5363 6ec1 66450FEB 		por	%xmm12, %xmm11
 5363      DC
 5364 6ec6 660FEBE8 		por	%xmm0, %xmm5
 5365 6eca 66440F38 		pshufb	%xmm5, %xmm10
 5365      00D5
 5366 6ed0 660F6FEA 		movdqa	%xmm2, %xmm5
 5367 6ed4 660F3800 		pshufb	%xmm4, %xmm5
 5367      EC
 5368 6ed9 660FF8E3 		psubb	%xmm3, %xmm4
 5369 6edd 660FDBE1 		pand	%xmm1, %xmm4
 5370 6ee1 66450FEB 		por	%xmm11, %xmm10
 5370      D3
 5371 6ee6 660FEBE8 		por	%xmm0, %xmm5
 5372 6eea 66440F38 		pshufb	%xmm5, %xmm9
 5372      00CD
 5373 6ef0 660F6FEA 		movdqa	%xmm2, %xmm5
 5374 6ef4 660F3800 		pshufb	%xmm4, %xmm5
 5374      EC
GAS LISTING /tmp/ccABNvJu.s 			page 217


 5375 6ef9 660FF8E3 		psubb	%xmm3, %xmm4
 5376 6efd 660FDBE1 		pand	%xmm1, %xmm4
 5377 6f01 66450FEB 		por	%xmm10, %xmm9
 5377      CA
 5378 6f06 660FEBE8 		por	%xmm0, %xmm5
 5379 6f0a 66440F38 		pshufb	%xmm5, %xmm8
 5379      00C5
 5380 6f10 660F6FEA 		movdqa	%xmm2, %xmm5
 5381 6f14 660F3800 		pshufb	%xmm4, %xmm5
 5381      EC
 5382 6f19 660FF8E3 		psubb	%xmm3, %xmm4
 5383 6f1d 660FDBE1 		pand	%xmm1, %xmm4
 5384 6f21 66450FEB 		por	%xmm9, %xmm8
 5384      C1
 5385 6f26 660FEBE8 		por	%xmm0, %xmm5
 5386 6f2a 660F3800 		pshufb	%xmm5, %xmm7
 5386      FD
 5387 6f2f 660F6FEA 		movdqa	%xmm2, %xmm5
 5388 6f33 660F3800 		pshufb	%xmm4, %xmm5
 5388      EC
 5389 6f38 660FF8E3 		psubb	%xmm3, %xmm4
 5390 6f3c 660FDBE1 		pand	%xmm1, %xmm4
 5391 6f40 66410FEB 		por	%xmm8, %xmm7
 5391      F8
 5392 6f45 660FEBE8 		por	%xmm0, %xmm5
 5393 6f49 660F3800 		pshufb	%xmm5, %xmm6
 5393      F5
 5394 6f4e 660F6FEA 		movdqa	%xmm2, %xmm5
 5395 6f52 660F3800 		pshufb	%xmm4, %xmm5
 5395      EC
 5396 6f57 660FF8E3 		psubb	%xmm3, %xmm4
 5397 6f5b 660FEBFE 		por	%xmm6, %xmm7
 5398 6f5f 660F6F74 		movdqa	-56(%rsp), %xmm6
 5398      24C8
 5399 6f65 660FDBE1 		pand	%xmm1, %xmm4
 5400 6f69 660FEBE8 		por	%xmm0, %xmm5
 5401 6f6d 660F3800 		pshufb	%xmm5, %xmm6
 5401      F5
 5402 6f72 660F6FEA 		movdqa	%xmm2, %xmm5
 5403 6f76 660F3800 		pshufb	%xmm4, %xmm5
 5403      EC
 5404 6f7b 660FF8E3 		psubb	%xmm3, %xmm4
 5405 6f7f 660FDBE1 		pand	%xmm1, %xmm4
 5406 6f83 660FEBFE 		por	%xmm6, %xmm7
 5407 6f87 660F6F74 		movdqa	-8(%rsp), %xmm6
 5407      24F8
 5408 6f8d 660FEBE8 		por	%xmm0, %xmm5
 5409 6f91 66440F38 		pshufb	%xmm5, %xmm13
 5409      00ED
 5410 6f97 660F6FEA 		movdqa	%xmm2, %xmm5
 5411 6f9b 660F3800 		pshufb	%xmm4, %xmm5
 5411      EC
 5412 6fa0 660FF8E3 		psubb	%xmm3, %xmm4
 5413 6fa4 660FDBE1 		pand	%xmm1, %xmm4
 5414 6fa8 66410FEB 		por	%xmm13, %xmm7
 5414      FD
 5415 6fad 66440F6F 		movdqa	8(%rsp), %xmm13
GAS LISTING /tmp/ccABNvJu.s 			page 218


 5415      6C2408
 5416 6fb4 660FEBE8 		por	%xmm0, %xmm5
 5417 6fb8 66440F38 		pshufb	%xmm5, %xmm15
 5417      00FD
 5418 6fbe 660F6FEA 		movdqa	%xmm2, %xmm5
 5419 6fc2 660F3800 		pshufb	%xmm4, %xmm5
 5419      EC
 5420 6fc7 660FF8E3 		psubb	%xmm3, %xmm4
 5421 6fcb 660FDBE1 		pand	%xmm1, %xmm4
 5422 6fcf 66410FEB 		por	%xmm15, %xmm7
 5422      FF
 5423 6fd4 66440F6F 		movdqa	24(%rsp), %xmm15
 5423      7C2418
 5424 6fdb 660FEBE8 		por	%xmm0, %xmm5
 5425 6fdf 660F3800 		pshufb	%xmm5, %xmm6
 5425      F5
 5426 6fe4 660F6FEA 		movdqa	%xmm2, %xmm5
 5427 6fe8 660F3800 		pshufb	%xmm4, %xmm5
 5427      EC
 5428 6fed 660FF8E3 		psubb	%xmm3, %xmm4
 5429 6ff1 660FDBE1 		pand	%xmm1, %xmm4
 5430 6ff5 660FEBFE 		por	%xmm6, %xmm7
 5431 6ff9 660F6F74 		movdqa	-104(%rsp), %xmm6
 5431      2498
 5432 6fff 660FEBE8 		por	%xmm0, %xmm5
 5433 7003 66440F38 		pshufb	%xmm5, %xmm13
 5433      00ED
 5434 7009 660F6FEA 		movdqa	%xmm2, %xmm5
 5435 700d 660F3800 		pshufb	%xmm4, %xmm5
 5435      EC
 5436 7012 660FF8E3 		psubb	%xmm3, %xmm4
 5437 7016 660FDBE1 		pand	%xmm1, %xmm4
 5438 701a 66410FEB 		por	%xmm13, %xmm7
 5438      FD
 5439 701f 66440F6F 		movdqa	-88(%rsp), %xmm13
 5439      6C24A8
 5440 7026 660FEBE8 		por	%xmm0, %xmm5
 5441 702a 66440F38 		pshufb	%xmm5, %xmm15
 5441      00FD
 5442 7030 660F6FEA 		movdqa	%xmm2, %xmm5
 5443 7034 660F3800 		pshufb	%xmm4, %xmm5
 5443      EC
 5444 7039 660FF8E3 		psubb	%xmm3, %xmm4
 5445 703d 660FDBE1 		pand	%xmm1, %xmm4
 5446 7041 66410FEB 		por	%xmm15, %xmm7
 5446      FF
 5447 7046 660FEBE8 		por	%xmm0, %xmm5
 5448 704a 660F3800 		pshufb	%xmm5, %xmm6
 5448      F5
 5449 704f 660F6FEA 		movdqa	%xmm2, %xmm5
 5450 7053 660F3800 		pshufb	%xmm4, %xmm5
 5450      EC
 5451 7058 660FF8E3 		psubb	%xmm3, %xmm4
 5452 705c 660FDBE1 		pand	%xmm1, %xmm4
 5453 7060 660FEBFE 		por	%xmm6, %xmm7
 5454 7064 660FEBE8 		por	%xmm0, %xmm5
 5455 7068 660F3800 		pshufb	%xmm4, %xmm2
GAS LISTING /tmp/ccABNvJu.s 			page 219


 5455      D4
 5456 706d 66440F38 		pshufb	%xmm5, %xmm13
 5456      00ED
 5457 7073 660FEBD0 		por	%xmm0, %xmm2
 5458 7077 660F6F44 		movdqa	-72(%rsp), %xmm0
 5458      24B8
 5459 707d 66410FEB 		por	%xmm13, %xmm7
 5459      FD
 5460 7082 660F3800 		pshufb	%xmm2, %xmm0
 5460      C2
 5461 7087 660FEBC7 		por	%xmm7, %xmm0
 5462 708b 660F3800 		pshufb	40(%rsp), %xmm0
 5462      442428
 5463 7092 660FEF87 		pxor	192(%rdi), %xmm0
 5463      C0000000 
 5464 709a 4883C460 		addq	$96, %rsp
 5465 709e C3       		ret
 5466              		.cfi_endproc
 5467              	.LFE729:
 5468              		.size	KAESBlockCipherVecRegEncrypt, .-KAESBlockCipherVecRegEncrypt
 5469 709f 90       		.p2align 4,,15
 5470              		.type	KAESBlockCipherVecRegSetDecryptKey, @function
 5471              	KAESBlockCipherVecRegSetDecryptKey:
 5472              	.LFB728:
 5473              		.cfi_startproc
 5474 70a0 55       		pushq	%rbp
 5475              		.cfi_def_cfa_offset 16
 5476 70a1 53       		pushq	%rbx
 5477              		.cfi_def_cfa_offset 24
 5478 70a2 4889FB   		movq	%rdi, %rbx
 5479              		.cfi_offset 3, -24
 5480              		.cfi_offset 6, -16
 5481 70a5 4881EC08 		subq	$264, %rsp
 5481      010000
 5482              		.cfi_def_cfa_offset 288
 5483 70ac 83FA18   		cmpl	$24, %edx
 5484 70af 0F84EB01 		je	.L60
 5484      0000
 5485 70b5 83FA20   		cmpl	$32, %edx
 5486 70b8 0F84C201 		je	.L61
 5486      0000
 5487 70be 83FA10   		cmpl	$16, %edx
 5488 70c1 B8CA8F04 		movl	$-2029744182, %eax
 5488      87
 5489 70c6 7410     		je	.L76
 5490              	.L63:
 5491 70c8 4881C408 		addq	$264, %rsp
 5491      010000
 5492 70cf 5B       		popq	%rbx
 5493 70d0 5D       		popq	%rbp
 5494              		.p2align 4,,1
 5495 70d1 C3       		ret
 5496              		.p2align 4,,10
 5497 70d2 660F1F44 		.p2align 3
 5497      0000
 5498              	.L76:
 5499 70d8 4889E7   		movq	%rsp, %rdi
GAS LISTING /tmp/ccABNvJu.s 			page 220


 5500 70db C78424F0 		movl	$10, 240(%rsp)
 5500      0000000A 
 5500      000000
 5501 70e6 4889E5   		movq	%rsp, %rbp
 5502 70e9 E86298FF 		call	KAESBlockCipherVecRegKeyExpansion128
 5502      FF
 5503              	.L62:
 5504 70ee 8B9424F0 		movl	240(%rsp), %edx
 5504      000000
 5505 70f5 83FA0C   		cmpl	$12, %edx
 5506 70f8 8993F000 		movl	%edx, 240(%rbx)
 5506      0000
 5507 70fe 0F84BC01 		je	.L66
 5507      0000
 5508 7104 83FA0E   		cmpl	$14, %edx
 5509 7107 0F842303 		je	.L67
 5509      0000
 5510 710d 31C0     		xorl	%eax, %eax
 5511 710f 83FA0A   		cmpl	$10, %edx
 5512 7112 75B4     		jne	.L63
 5513 7114 F30F6F84 		movdqu	160(%rsp), %xmm0
 5513      24A00000 
 5513      00
 5514 711d 488D8590 		leaq	144(%rbp), %rax
 5514      000000
 5515 7124 4889DA   		movq	%rbx, %rdx
 5516 7127 F30F7F03 		movdqu	%xmm0, (%rbx)
 5517 712b 660F6F0D 		movdqa	.LC20(%rip), %xmm1
 5517      00000000 
 5518 7133 66440F6F 		movdqa	.LC3(%rip), %xmm9
 5518      0D000000 
 5518      00
 5519 713c 660F6F05 		movdqa	.LC21(%rip), %xmm0
 5519      00000000 
 5520 7144 66440F6F 		movdqa	.LC22(%rip), %xmm8
 5520      05000000 
 5520      00
 5521 714d 660F6F3D 		movdqa	.LC23(%rip), %xmm7
 5521      00000000 
 5522 7155 660F6F35 		movdqa	.LC24(%rip), %xmm6
 5522      00000000 
 5523 715d 660F6F2D 		movdqa	.LC26(%rip), %xmm5
 5523      00000000 
 5524 7165 660F6F25 		movdqa	.LC25(%rip), %xmm4
 5524      00000000 
 5525 716d 0F1F00   		.p2align 4,,10
 5526              		.p2align 3
 5527              	.L68:
 5528 7170 66440F6F 		movdqa	(%rax), %xmm13
 5528      28
 5529 7175 4883E810 		subq	$16, %rax
 5530 7179 66440F6F 		movdqa	%xmm0, %xmm15
 5530      F8
 5531 717e 66450F6F 		movdqa	%xmm13, %xmm10
 5531      D5
 5532 7183 66450F6F 		movdqa	%xmm13, %xmm12
 5532      E5
GAS LISTING /tmp/ccABNvJu.s 			page 221


 5533 7188 66440F38 		pshufb	%xmm1, %xmm10
 5533      00D1
 5534 718e 66410F6F 		movdqa	%xmm10, %xmm3
 5534      DA
 5535 7193 66450FEF 		pxor	%xmm10, %xmm12
 5535      E2
 5536 7198 660F3800 		pshufb	%xmm1, %xmm3
 5536      D9
 5537 719d 66450F6F 		movdqa	%xmm12, %xmm14
 5537      F4
 5538 71a2 660F6FD3 		movdqa	%xmm3, %xmm2
 5539 71a6 66450F6F 		movdqa	%xmm12, %xmm11
 5539      DC
 5540 71ab 66410F72 		psrld	$7, %xmm14
 5540      D607
 5541 71b1 66450FDB 		pand	%xmm9, %xmm14
 5541      F1
 5542 71b6 660F3800 		pshufb	%xmm1, %xmm2
 5542      D1
 5543 71bb 66410F72 		pslld	$1, %xmm11
 5543      F301
 5544 71c1 66440FDB 		pand	%xmm6, %xmm11
 5544      DE
 5545 71c6 66450F38 		pshufb	%xmm14, %xmm15
 5545      00FE
 5546 71cc 660FEFD3 		pxor	%xmm3, %xmm2
 5547 71d0 66410FEF 		pxor	%xmm13, %xmm3
 5547      DD
 5548 71d5 66450F6F 		movdqa	%xmm15, %xmm14
 5548      F7
 5549 71da 66440F6F 		movdqa	%xmm0, %xmm15
 5549      F8
 5550 71df 66440FEF 		pxor	%xmm2, %xmm10
 5550      D2
 5551 71e4 66440F6F 		movdqa	%xmm3, %xmm13
 5551      EB
 5552 71e9 66410FEF 		pxor	%xmm12, %xmm2
 5552      D4
 5553 71ee 660F72F3 		pslld	$2, %xmm3
 5553      02
 5554 71f3 66450FEF 		pxor	%xmm14, %xmm11
 5554      DE
 5555 71f8 66410F72 		psrld	$6, %xmm13
 5555      D506
 5556 71fe 66450FDB 		pand	%xmm8, %xmm13
 5556      E8
 5557 7203 66440F6F 		movdqa	%xmm2, %xmm12
 5557      E2
 5558 7208 660FDBDD 		pand	%xmm5, %xmm3
 5559 720c 660F72F2 		pslld	$3, %xmm2
 5559      03
 5560 7211 66450FEF 		pxor	%xmm11, %xmm10
 5560      D3
 5561 7216 66450F38 		pshufb	%xmm13, %xmm15
 5561      00FD
 5562 721c 66410F72 		psrld	$5, %xmm12
 5562      D405
GAS LISTING /tmp/ccABNvJu.s 			page 222


 5563 7222 66440FDB 		pand	%xmm7, %xmm12
 5563      E7
 5564 7227 660FDBD4 		pand	%xmm4, %xmm2
 5565 722b 66450F6F 		movdqa	%xmm15, %xmm13
 5565      EF
 5566 7230 66440F6F 		movdqa	%xmm0, %xmm15
 5566      F8
 5567 7235 66410FEF 		pxor	%xmm13, %xmm3
 5567      DD
 5568 723a 66450F38 		pshufb	%xmm12, %xmm15
 5568      00FC
 5569 7240 66410FEF 		pxor	%xmm10, %xmm3
 5569      DA
 5570 7245 66410FEF 		pxor	%xmm15, %xmm2
 5570      D7
 5571 724a 660FEFD3 		pxor	%xmm3, %xmm2
 5572 724e 660F7F52 		movdqa	%xmm2, 16(%rdx)
 5572      10
 5573 7253 4883C210 		addq	$16, %rdx
 5574 7257 4839E8   		cmpq	%rbp, %rax
 5575 725a 0F8510FF 		jne	.L68
 5575      FFFF
 5576 7260 F30F6F04 		movdqu	(%rsp), %xmm0
 5576      24
 5577 7265 31C0     		xorl	%eax, %eax
 5578 7267 F30F7F83 		movdqu	%xmm0, 160(%rbx)
 5578      A0000000 
 5579 726f 4881C408 		addq	$264, %rsp
 5579      010000
 5580 7276 5B       		popq	%rbx
 5581 7277 5D       		popq	%rbp
 5582 7278 C3       		ret
 5583 7279 0F1F8000 		.p2align 4,,10
 5583      000000
 5584              		.p2align 3
 5585              	.L61:
 5586 7280 4889E7   		movq	%rsp, %rdi
 5587 7283 C78424F0 		movl	$14, 240(%rsp)
 5587      0000000E 
 5587      000000
 5588 728e 4889E5   		movq	%rsp, %rbp
 5589 7291 E8AABAFF 		call	KAESBlockCipherVecRegKeyExpansion256
 5589      FF
 5590 7296 E953FEFF 		jmp	.L62
 5590      FF
 5591 729b 0F1F4400 		.p2align 4,,10
 5591      00
 5592              		.p2align 3
 5593              	.L60:
 5594 72a0 4889E7   		movq	%rsp, %rdi
 5595 72a3 C78424F0 		movl	$12, 240(%rsp)
 5595      0000000C 
 5595      000000
 5596 72ae 4889E5   		movq	%rsp, %rbp
 5597 72b1 E87AD6FF 		call	KAESBlockCipherVecRegKeyExpansion192
 5597      FF
 5598 72b6 E933FEFF 		jmp	.L62
GAS LISTING /tmp/ccABNvJu.s 			page 223


 5598      FF
 5599 72bb 0F1F4400 		.p2align 4,,10
 5599      00
 5600              		.p2align 3
 5601              	.L66:
 5602 72c0 F30F6F84 		movdqu	192(%rsp), %xmm0
 5602      24C00000 
 5602      00
 5603 72c9 488D85B0 		leaq	176(%rbp), %rax
 5603      000000
 5604 72d0 4889DA   		movq	%rbx, %rdx
 5605 72d3 F30F7F03 		movdqu	%xmm0, (%rbx)
 5606 72d7 660F6F0D 		movdqa	.LC20(%rip), %xmm1
 5606      00000000 
 5607 72df 66440F6F 		movdqa	.LC3(%rip), %xmm9
 5607      0D000000 
 5607      00
 5608 72e8 660F6F05 		movdqa	.LC21(%rip), %xmm0
 5608      00000000 
 5609 72f0 66440F6F 		movdqa	.LC22(%rip), %xmm8
 5609      05000000 
 5609      00
 5610 72f9 660F6F3D 		movdqa	.LC23(%rip), %xmm7
 5610      00000000 
 5611 7301 660F6F35 		movdqa	.LC24(%rip), %xmm6
 5611      00000000 
 5612 7309 660F6F2D 		movdqa	.LC26(%rip), %xmm5
 5612      00000000 
 5613 7311 660F6F25 		movdqa	.LC25(%rip), %xmm4
 5613      00000000 
 5614 7319 0F1F8000 		.p2align 4,,10
 5614      000000
 5615              		.p2align 3
 5616              	.L69:
 5617 7320 66440F6F 		movdqa	(%rax), %xmm13
 5617      28
 5618 7325 4883E810 		subq	$16, %rax
 5619 7329 66440F6F 		movdqa	%xmm0, %xmm15
 5619      F8
 5620 732e 66450F6F 		movdqa	%xmm13, %xmm10
 5620      D5
 5621 7333 66450F6F 		movdqa	%xmm13, %xmm12
 5621      E5
 5622 7338 66440F38 		pshufb	%xmm1, %xmm10
 5622      00D1
 5623 733e 66410F6F 		movdqa	%xmm10, %xmm3
 5623      DA
 5624 7343 66450FEF 		pxor	%xmm10, %xmm12
 5624      E2
 5625 7348 660F3800 		pshufb	%xmm1, %xmm3
 5625      D9
 5626 734d 66450F6F 		movdqa	%xmm12, %xmm14
 5626      F4
 5627 7352 660F6FD3 		movdqa	%xmm3, %xmm2
 5628 7356 66450F6F 		movdqa	%xmm12, %xmm11
 5628      DC
 5629 735b 66410F72 		psrld	$7, %xmm14
GAS LISTING /tmp/ccABNvJu.s 			page 224


 5629      D607
 5630 7361 66450FDB 		pand	%xmm9, %xmm14
 5630      F1
 5631 7366 660F3800 		pshufb	%xmm1, %xmm2
 5631      D1
 5632 736b 66410F72 		pslld	$1, %xmm11
 5632      F301
 5633 7371 66440FDB 		pand	%xmm6, %xmm11
 5633      DE
 5634 7376 66450F38 		pshufb	%xmm14, %xmm15
 5634      00FE
 5635 737c 660FEFD3 		pxor	%xmm3, %xmm2
 5636 7380 66410FEF 		pxor	%xmm13, %xmm3
 5636      DD
 5637 7385 66450F6F 		movdqa	%xmm15, %xmm14
 5637      F7
 5638 738a 66440F6F 		movdqa	%xmm0, %xmm15
 5638      F8
 5639 738f 66440FEF 		pxor	%xmm2, %xmm10
 5639      D2
 5640 7394 66440F6F 		movdqa	%xmm3, %xmm13
 5640      EB
 5641 7399 66410FEF 		pxor	%xmm12, %xmm2
 5641      D4
 5642 739e 660F72F3 		pslld	$2, %xmm3
 5642      02
 5643 73a3 66450FEF 		pxor	%xmm14, %xmm11
 5643      DE
 5644 73a8 66410F72 		psrld	$6, %xmm13
 5644      D506
 5645 73ae 66450FDB 		pand	%xmm8, %xmm13
 5645      E8
 5646 73b3 66440F6F 		movdqa	%xmm2, %xmm12
 5646      E2
 5647 73b8 660FDBDD 		pand	%xmm5, %xmm3
 5648 73bc 660F72F2 		pslld	$3, %xmm2
 5648      03
 5649 73c1 66450FEF 		pxor	%xmm11, %xmm10
 5649      D3
 5650 73c6 66450F38 		pshufb	%xmm13, %xmm15
 5650      00FD
 5651 73cc 66410F72 		psrld	$5, %xmm12
 5651      D405
 5652 73d2 66440FDB 		pand	%xmm7, %xmm12
 5652      E7
 5653 73d7 660FDBD4 		pand	%xmm4, %xmm2
 5654 73db 66450F6F 		movdqa	%xmm15, %xmm13
 5654      EF
 5655 73e0 66440F6F 		movdqa	%xmm0, %xmm15
 5655      F8
 5656 73e5 66410FEF 		pxor	%xmm13, %xmm3
 5656      DD
 5657 73ea 66450F38 		pshufb	%xmm12, %xmm15
 5657      00FC
 5658 73f0 66410FEF 		pxor	%xmm10, %xmm3
 5658      DA
 5659 73f5 66410FEF 		pxor	%xmm15, %xmm2
GAS LISTING /tmp/ccABNvJu.s 			page 225


 5659      D7
 5660 73fa 660FEFD3 		pxor	%xmm3, %xmm2
 5661 73fe 660F7F52 		movdqa	%xmm2, 16(%rdx)
 5661      10
 5662 7403 4883C210 		addq	$16, %rdx
 5663 7407 4839E8   		cmpq	%rbp, %rax
 5664 740a 0F8510FF 		jne	.L69
 5664      FFFF
 5665 7410 F30F6F04 		movdqu	(%rsp), %xmm0
 5665      24
 5666 7415 31C0     		xorl	%eax, %eax
 5667 7417 F30F7F83 		movdqu	%xmm0, 192(%rbx)
 5667      C0000000 
 5668 741f 4881C408 		addq	$264, %rsp
 5668      010000
 5669 7426 5B       		popq	%rbx
 5670 7427 5D       		popq	%rbp
 5671 7428 C3       		ret
 5672 7429 0F1F8000 		.p2align 4,,10
 5672      000000
 5673              		.p2align 3
 5674              	.L67:
 5675 7430 F30F6F84 		movdqu	224(%rsp), %xmm0
 5675      24E00000 
 5675      00
 5676 7439 488D85D0 		leaq	208(%rbp), %rax
 5676      000000
 5677 7440 4889DA   		movq	%rbx, %rdx
 5678 7443 F30F7F03 		movdqu	%xmm0, (%rbx)
 5679 7447 660F6F0D 		movdqa	.LC20(%rip), %xmm1
 5679      00000000 
 5680 744f 66440F6F 		movdqa	.LC3(%rip), %xmm9
 5680      0D000000 
 5680      00
 5681 7458 660F6F05 		movdqa	.LC21(%rip), %xmm0
 5681      00000000 
 5682 7460 66440F6F 		movdqa	.LC22(%rip), %xmm8
 5682      05000000 
 5682      00
 5683 7469 660F6F3D 		movdqa	.LC23(%rip), %xmm7
 5683      00000000 
 5684 7471 660F6F35 		movdqa	.LC24(%rip), %xmm6
 5684      00000000 
 5685 7479 660F6F2D 		movdqa	.LC26(%rip), %xmm5
 5685      00000000 
 5686 7481 660F6F25 		movdqa	.LC25(%rip), %xmm4
 5686      00000000 
 5687 7489 0F1F8000 		.p2align 4,,10
 5687      000000
 5688              		.p2align 3
 5689              	.L70:
 5690 7490 66440F6F 		movdqa	(%rax), %xmm13
 5690      28
 5691 7495 4883E810 		subq	$16, %rax
 5692 7499 66440F6F 		movdqa	%xmm0, %xmm15
 5692      F8
 5693 749e 66450F6F 		movdqa	%xmm13, %xmm10
GAS LISTING /tmp/ccABNvJu.s 			page 226


 5693      D5
 5694 74a3 66450F6F 		movdqa	%xmm13, %xmm12
 5694      E5
 5695 74a8 66440F38 		pshufb	%xmm1, %xmm10
 5695      00D1
 5696 74ae 66410F6F 		movdqa	%xmm10, %xmm3
 5696      DA
 5697 74b3 66450FEF 		pxor	%xmm10, %xmm12
 5697      E2
 5698 74b8 660F3800 		pshufb	%xmm1, %xmm3
 5698      D9
 5699 74bd 66450F6F 		movdqa	%xmm12, %xmm14
 5699      F4
 5700 74c2 660F6FD3 		movdqa	%xmm3, %xmm2
 5701 74c6 66450F6F 		movdqa	%xmm12, %xmm11
 5701      DC
 5702 74cb 66410F72 		psrld	$7, %xmm14
 5702      D607
 5703 74d1 66450FDB 		pand	%xmm9, %xmm14
 5703      F1
 5704 74d6 660F3800 		pshufb	%xmm1, %xmm2
 5704      D1
 5705 74db 66410F72 		pslld	$1, %xmm11
 5705      F301
 5706 74e1 66440FDB 		pand	%xmm6, %xmm11
 5706      DE
 5707 74e6 66450F38 		pshufb	%xmm14, %xmm15
 5707      00FE
 5708 74ec 660FEFD3 		pxor	%xmm3, %xmm2
 5709 74f0 66410FEF 		pxor	%xmm13, %xmm3
 5709      DD
 5710 74f5 66450F6F 		movdqa	%xmm15, %xmm14
 5710      F7
 5711 74fa 66440F6F 		movdqa	%xmm0, %xmm15
 5711      F8
 5712 74ff 66440FEF 		pxor	%xmm2, %xmm10
 5712      D2
 5713 7504 66440F6F 		movdqa	%xmm3, %xmm13
 5713      EB
 5714 7509 66410FEF 		pxor	%xmm12, %xmm2
 5714      D4
 5715 750e 660F72F3 		pslld	$2, %xmm3
 5715      02
 5716 7513 66450FEF 		pxor	%xmm14, %xmm11
 5716      DE
 5717 7518 66410F72 		psrld	$6, %xmm13
 5717      D506
 5718 751e 66450FDB 		pand	%xmm8, %xmm13
 5718      E8
 5719 7523 66440F6F 		movdqa	%xmm2, %xmm12
 5719      E2
 5720 7528 660FDBDD 		pand	%xmm5, %xmm3
 5721 752c 660F72F2 		pslld	$3, %xmm2
 5721      03
 5722 7531 66450FEF 		pxor	%xmm11, %xmm10
 5722      D3
 5723 7536 66450F38 		pshufb	%xmm13, %xmm15
GAS LISTING /tmp/ccABNvJu.s 			page 227


 5723      00FD
 5724 753c 66410F72 		psrld	$5, %xmm12
 5724      D405
 5725 7542 66440FDB 		pand	%xmm7, %xmm12
 5725      E7
 5726 7547 660FDBD4 		pand	%xmm4, %xmm2
 5727 754b 66450F6F 		movdqa	%xmm15, %xmm13
 5727      EF
 5728 7550 66440F6F 		movdqa	%xmm0, %xmm15
 5728      F8
 5729 7555 66410FEF 		pxor	%xmm13, %xmm3
 5729      DD
 5730 755a 66450F38 		pshufb	%xmm12, %xmm15
 5730      00FC
 5731 7560 66410FEF 		pxor	%xmm10, %xmm3
 5731      DA
 5732 7565 66410FEF 		pxor	%xmm15, %xmm2
 5732      D7
 5733 756a 660FEFD3 		pxor	%xmm3, %xmm2
 5734 756e 660F7F52 		movdqa	%xmm2, 16(%rdx)
 5734      10
 5735 7573 4883C210 		addq	$16, %rdx
 5736 7577 4839E8   		cmpq	%rbp, %rax
 5737 757a 0F8510FF 		jne	.L70
 5737      FFFF
 5738 7580 F30F6F04 		movdqu	(%rsp), %xmm0
 5738      24
 5739 7585 31C0     		xorl	%eax, %eax
 5740 7587 F30F7F83 		movdqu	%xmm0, 224(%rbx)
 5740      E0000000 
 5741 758f 4881C408 		addq	$264, %rsp
 5741      010000
 5742 7596 5B       		popq	%rbx
 5743 7597 5D       		popq	%rbp
 5744 7598 C3       		ret
 5745              		.cfi_endproc
 5746              	.LFE728:
 5747              		.size	KAESBlockCipherVecRegSetDecryptKey, .-KAESBlockCipherVecRegSetDecryptKey
 5748              		.section	.data.rel.ro.local,"aw",@progbits
 5749              		.align 32
 5750              		.type	KAESBlockCipherVecReg_vt_, @object
 5751              		.size	KAESBlockCipherVecReg_vt_, 64
 5752              	KAESBlockCipherVecReg_vt_:
 5753 0000 01000000 		.long	1
 5754 0004 01000000 		.long	1
 5755 0008 00000000 		.quad	KAESBlockCipherVecRegDestroy
 5755      00000000 
 5756 0010 00000000 		.quad	KAESBlockCipherVecRegBlockSize
 5756      00000000 
 5757 0018 00000000 		.quad	KAESBlockCipherVecRegKeySize
 5757      00000000 
 5758 0020 00000000 		.quad	KAESBlockCipherVecRegSetEncryptKey
 5758      00000000 
 5759 0028 00000000 		.quad	KAESBlockCipherVecRegSetDecryptKey
 5759      00000000 
 5760 0030 00000000 		.quad	KAESBlockCipherVecRegEncrypt
 5760      00000000 
GAS LISTING /tmp/ccABNvJu.s 			page 228


 5761 0038 00000000 		.quad	KAESBlockCipherVecRegDecrypt
 5761      00000000 
 5762              		.section	.rodata
 5763              		.align 32
 5764              		.type	KAESBlockCipherVecRegRijndaelSBox, @object
 5765              		.size	KAESBlockCipherVecRegRijndaelSBox, 256
 5766              	KAESBlockCipherVecRegRijndaelSBox:
 5767 0000 63       		.byte	99
 5768 0001 7C       		.byte	124
 5769 0002 77       		.byte	119
 5770 0003 7B       		.byte	123
 5771 0004 F2       		.byte	-14
 5772 0005 6B       		.byte	107
 5773 0006 6F       		.byte	111
 5774 0007 C5       		.byte	-59
 5775 0008 30       		.byte	48
 5776 0009 01       		.byte	1
 5777 000a 67       		.byte	103
 5778 000b 2B       		.byte	43
 5779 000c FE       		.byte	-2
 5780 000d D7       		.byte	-41
 5781 000e AB       		.byte	-85
 5782 000f 76       		.byte	118
 5783 0010 CA       		.byte	-54
 5784 0011 82       		.byte	-126
 5785 0012 C9       		.byte	-55
 5786 0013 7D       		.byte	125
 5787 0014 FA       		.byte	-6
 5788 0015 59       		.byte	89
 5789 0016 47       		.byte	71
 5790 0017 F0       		.byte	-16
 5791 0018 AD       		.byte	-83
 5792 0019 D4       		.byte	-44
 5793 001a A2       		.byte	-94
 5794 001b AF       		.byte	-81
 5795 001c 9C       		.byte	-100
 5796 001d A4       		.byte	-92
 5797 001e 72       		.byte	114
 5798 001f C0       		.byte	-64
 5799 0020 B7       		.byte	-73
 5800 0021 FD       		.byte	-3
 5801 0022 93       		.byte	-109
 5802 0023 26       		.byte	38
 5803 0024 36       		.byte	54
 5804 0025 3F       		.byte	63
 5805 0026 F7       		.byte	-9
 5806 0027 CC       		.byte	-52
 5807 0028 34       		.byte	52
 5808 0029 A5       		.byte	-91
 5809 002a E5       		.byte	-27
 5810 002b F1       		.byte	-15
 5811 002c 71       		.byte	113
 5812 002d D8       		.byte	-40
 5813 002e 31       		.byte	49
 5814 002f 15       		.byte	21
 5815 0030 04       		.byte	4
 5816 0031 C7       		.byte	-57
GAS LISTING /tmp/ccABNvJu.s 			page 229


 5817 0032 23       		.byte	35
 5818 0033 C3       		.byte	-61
 5819 0034 18       		.byte	24
 5820 0035 96       		.byte	-106
 5821 0036 05       		.byte	5
 5822 0037 9A       		.byte	-102
 5823 0038 07       		.byte	7
 5824 0039 12       		.byte	18
 5825 003a 80       		.byte	-128
 5826 003b E2       		.byte	-30
 5827 003c EB       		.byte	-21
 5828 003d 27       		.byte	39
 5829 003e B2       		.byte	-78
 5830 003f 75       		.byte	117
 5831 0040 09       		.byte	9
 5832 0041 83       		.byte	-125
 5833 0042 2C       		.byte	44
 5834 0043 1A       		.byte	26
 5835 0044 1B       		.byte	27
 5836 0045 6E       		.byte	110
 5837 0046 5A       		.byte	90
 5838 0047 A0       		.byte	-96
 5839 0048 52       		.byte	82
 5840 0049 3B       		.byte	59
 5841 004a D6       		.byte	-42
 5842 004b B3       		.byte	-77
 5843 004c 29       		.byte	41
 5844 004d E3       		.byte	-29
 5845 004e 2F       		.byte	47
 5846 004f 84       		.byte	-124
 5847 0050 53       		.byte	83
 5848 0051 D1       		.byte	-47
 5849 0052 00       		.byte	0
 5850 0053 ED       		.byte	-19
 5851 0054 20       		.byte	32
 5852 0055 FC       		.byte	-4
 5853 0056 B1       		.byte	-79
 5854 0057 5B       		.byte	91
 5855 0058 6A       		.byte	106
 5856 0059 CB       		.byte	-53
 5857 005a BE       		.byte	-66
 5858 005b 39       		.byte	57
 5859 005c 4A       		.byte	74
 5860 005d 4C       		.byte	76
 5861 005e 58       		.byte	88
 5862 005f CF       		.byte	-49
 5863 0060 D0       		.byte	-48
 5864 0061 EF       		.byte	-17
 5865 0062 AA       		.byte	-86
 5866 0063 FB       		.byte	-5
 5867 0064 43       		.byte	67
 5868 0065 4D       		.byte	77
 5869 0066 33       		.byte	51
 5870 0067 85       		.byte	-123
 5871 0068 45       		.byte	69
 5872 0069 F9       		.byte	-7
 5873 006a 02       		.byte	2
GAS LISTING /tmp/ccABNvJu.s 			page 230


 5874 006b 7F       		.byte	127
 5875 006c 50       		.byte	80
 5876 006d 3C       		.byte	60
 5877 006e 9F       		.byte	-97
 5878 006f A8       		.byte	-88
 5879 0070 51       		.byte	81
 5880 0071 A3       		.byte	-93
 5881 0072 40       		.byte	64
 5882 0073 8F       		.byte	-113
 5883 0074 92       		.byte	-110
 5884 0075 9D       		.byte	-99
 5885 0076 38       		.byte	56
 5886 0077 F5       		.byte	-11
 5887 0078 BC       		.byte	-68
 5888 0079 B6       		.byte	-74
 5889 007a DA       		.byte	-38
 5890 007b 21       		.byte	33
 5891 007c 10       		.byte	16
 5892 007d FF       		.byte	-1
 5893 007e F3       		.byte	-13
 5894 007f D2       		.byte	-46
 5895 0080 CD       		.byte	-51
 5896 0081 0C       		.byte	12
 5897 0082 13       		.byte	19
 5898 0083 EC       		.byte	-20
 5899 0084 5F       		.byte	95
 5900 0085 97       		.byte	-105
 5901 0086 44       		.byte	68
 5902 0087 17       		.byte	23
 5903 0088 C4       		.byte	-60
 5904 0089 A7       		.byte	-89
 5905 008a 7E       		.byte	126
 5906 008b 3D       		.byte	61
 5907 008c 64       		.byte	100
 5908 008d 5D       		.byte	93
 5909 008e 19       		.byte	25
 5910 008f 73       		.byte	115
 5911 0090 60       		.byte	96
 5912 0091 81       		.byte	-127
 5913 0092 4F       		.byte	79
 5914 0093 DC       		.byte	-36
 5915 0094 22       		.byte	34
 5916 0095 2A       		.byte	42
 5917 0096 90       		.byte	-112
 5918 0097 88       		.byte	-120
 5919 0098 46       		.byte	70
 5920 0099 EE       		.byte	-18
 5921 009a B8       		.byte	-72
 5922 009b 14       		.byte	20
 5923 009c DE       		.byte	-34
 5924 009d 5E       		.byte	94
 5925 009e 0B       		.byte	11
 5926 009f DB       		.byte	-37
 5927 00a0 E0       		.byte	-32
 5928 00a1 32       		.byte	50
 5929 00a2 3A       		.byte	58
 5930 00a3 0A       		.byte	10
GAS LISTING /tmp/ccABNvJu.s 			page 231


 5931 00a4 49       		.byte	73
 5932 00a5 06       		.byte	6
 5933 00a6 24       		.byte	36
 5934 00a7 5C       		.byte	92
 5935 00a8 C2       		.byte	-62
 5936 00a9 D3       		.byte	-45
 5937 00aa AC       		.byte	-84
 5938 00ab 62       		.byte	98
 5939 00ac 91       		.byte	-111
 5940 00ad 95       		.byte	-107
 5941 00ae E4       		.byte	-28
 5942 00af 79       		.byte	121
 5943 00b0 E7       		.byte	-25
 5944 00b1 C8       		.byte	-56
 5945 00b2 37       		.byte	55
 5946 00b3 6D       		.byte	109
 5947 00b4 8D       		.byte	-115
 5948 00b5 D5       		.byte	-43
 5949 00b6 4E       		.byte	78
 5950 00b7 A9       		.byte	-87
 5951 00b8 6C       		.byte	108
 5952 00b9 56       		.byte	86
 5953 00ba F4       		.byte	-12
 5954 00bb EA       		.byte	-22
 5955 00bc 65       		.byte	101
 5956 00bd 7A       		.byte	122
 5957 00be AE       		.byte	-82
 5958 00bf 08       		.byte	8
 5959 00c0 BA       		.byte	-70
 5960 00c1 78       		.byte	120
 5961 00c2 25       		.byte	37
 5962 00c3 2E       		.byte	46
 5963 00c4 1C       		.byte	28
 5964 00c5 A6       		.byte	-90
 5965 00c6 B4       		.byte	-76
 5966 00c7 C6       		.byte	-58
 5967 00c8 E8       		.byte	-24
 5968 00c9 DD       		.byte	-35
 5969 00ca 74       		.byte	116
 5970 00cb 1F       		.byte	31
 5971 00cc 4B       		.byte	75
 5972 00cd BD       		.byte	-67
 5973 00ce 8B       		.byte	-117
 5974 00cf 8A       		.byte	-118
 5975 00d0 70       		.byte	112
 5976 00d1 3E       		.byte	62
 5977 00d2 B5       		.byte	-75
 5978 00d3 66       		.byte	102
 5979 00d4 48       		.byte	72
 5980 00d5 03       		.byte	3
 5981 00d6 F6       		.byte	-10
 5982 00d7 0E       		.byte	14
 5983 00d8 61       		.byte	97
 5984 00d9 35       		.byte	53
 5985 00da 57       		.byte	87
 5986 00db B9       		.byte	-71
 5987 00dc 86       		.byte	-122
GAS LISTING /tmp/ccABNvJu.s 			page 232


 5988 00dd C1       		.byte	-63
 5989 00de 1D       		.byte	29
 5990 00df 9E       		.byte	-98
 5991 00e0 E1       		.byte	-31
 5992 00e1 F8       		.byte	-8
 5993 00e2 98       		.byte	-104
 5994 00e3 11       		.byte	17
 5995 00e4 69       		.byte	105
 5996 00e5 D9       		.byte	-39
 5997 00e6 8E       		.byte	-114
 5998 00e7 94       		.byte	-108
 5999 00e8 9B       		.byte	-101
 6000 00e9 1E       		.byte	30
 6001 00ea 87       		.byte	-121
 6002 00eb E9       		.byte	-23
 6003 00ec CE       		.byte	-50
 6004 00ed 55       		.byte	85
 6005 00ee 28       		.byte	40
 6006 00ef DF       		.byte	-33
 6007 00f0 8C       		.byte	-116
 6008 00f1 A1       		.byte	-95
 6009 00f2 89       		.byte	-119
 6010 00f3 0D       		.byte	13
 6011 00f4 BF       		.byte	-65
 6012 00f5 E6       		.byte	-26
 6013 00f6 42       		.byte	66
 6014 00f7 68       		.byte	104
 6015 00f8 41       		.byte	65
 6016 00f9 99       		.byte	-103
 6017 00fa 2D       		.byte	45
 6018 00fb 0F       		.byte	15
 6019 00fc B0       		.byte	-80
 6020 00fd 54       		.byte	84
 6021 00fe BB       		.byte	-69
 6022 00ff 16       		.byte	22
 6023              		.section	.rodata.cst16,"aM",@progbits,16
 6024              		.align 16
 6025              	.LC0:
 6026 0000 0F       		.byte	15
 6027 0001 0F       		.byte	15
 6028 0002 0F       		.byte	15
 6029 0003 0F       		.byte	15
 6030 0004 0F       		.byte	15
 6031 0005 0F       		.byte	15
 6032 0006 0F       		.byte	15
 6033 0007 0F       		.byte	15
 6034 0008 0F       		.byte	15
 6035 0009 0F       		.byte	15
 6036 000a 0F       		.byte	15
 6037 000b 0F       		.byte	15
 6038 000c 0F       		.byte	15
 6039 000d 0F       		.byte	15
 6040 000e 0F       		.byte	15
 6041 000f 0F       		.byte	15
 6042              		.align 16
 6043              	.LC1:
 6044 0010 00       		.byte	0
GAS LISTING /tmp/ccABNvJu.s 			page 233


 6045 0011 FF       		.byte	-1
 6046 0012 FF       		.byte	-1
 6047 0013 FF       		.byte	-1
 6048 0014 FF       		.byte	-1
 6049 0015 FF       		.byte	-1
 6050 0016 FF       		.byte	-1
 6051 0017 FF       		.byte	-1
 6052 0018 FF       		.byte	-1
 6053 0019 FF       		.byte	-1
 6054 001a FF       		.byte	-1
 6055 001b FF       		.byte	-1
 6056 001c FF       		.byte	-1
 6057 001d FF       		.byte	-1
 6058 001e FF       		.byte	-1
 6059 001f FF       		.byte	-1
 6060              		.align 16
 6061              	.LC2:
 6062 0020 52       		.byte	82
 6063 0021 09       		.byte	9
 6064 0022 6A       		.byte	106
 6065 0023 D5       		.byte	-43
 6066 0024 30       		.byte	48
 6067 0025 36       		.byte	54
 6068 0026 A5       		.byte	-91
 6069 0027 38       		.byte	56
 6070 0028 BF       		.byte	-65
 6071 0029 40       		.byte	64
 6072 002a A3       		.byte	-93
 6073 002b 9E       		.byte	-98
 6074 002c 81       		.byte	-127
 6075 002d F3       		.byte	-13
 6076 002e D7       		.byte	-41
 6077 002f FB       		.byte	-5
 6078              		.align 16
 6079              	.LC3:
 6080 0030 01       		.byte	1
 6081 0031 01       		.byte	1
 6082 0032 01       		.byte	1
 6083 0033 01       		.byte	1
 6084 0034 01       		.byte	1
 6085 0035 01       		.byte	1
 6086 0036 01       		.byte	1
 6087 0037 01       		.byte	1
 6088 0038 01       		.byte	1
 6089 0039 01       		.byte	1
 6090 003a 01       		.byte	1
 6091 003b 01       		.byte	1
 6092 003c 01       		.byte	1
 6093 003d 01       		.byte	1
 6094 003e 01       		.byte	1
 6095 003f 01       		.byte	1
 6096              		.align 16
 6097              	.LC4:
 6098 0040 7C       		.byte	124
 6099 0041 E3       		.byte	-29
 6100 0042 39       		.byte	57
 6101 0043 82       		.byte	-126
GAS LISTING /tmp/ccABNvJu.s 			page 234


 6102 0044 9B       		.byte	-101
 6103 0045 2F       		.byte	47
 6104 0046 FF       		.byte	-1
 6105 0047 87       		.byte	-121
 6106 0048 34       		.byte	52
 6107 0049 8E       		.byte	-114
 6108 004a 43       		.byte	67
 6109 004b 44       		.byte	68
 6110 004c C4       		.byte	-60
 6111 004d DE       		.byte	-34
 6112 004e E9       		.byte	-23
 6113 004f CB       		.byte	-53
 6114              		.align 16
 6115              	.LC5:
 6116 0050 54       		.byte	84
 6117 0051 7B       		.byte	123
 6118 0052 94       		.byte	-108
 6119 0053 32       		.byte	50
 6120 0054 A6       		.byte	-90
 6121 0055 C2       		.byte	-62
 6122 0056 23       		.byte	35
 6123 0057 3D       		.byte	61
 6124 0058 EE       		.byte	-18
 6125 0059 4C       		.byte	76
 6126 005a 95       		.byte	-107
 6127 005b 0B       		.byte	11
 6128 005c 42       		.byte	66
 6129 005d FA       		.byte	-6
 6130 005e C3       		.byte	-61
 6131 005f 4E       		.byte	78
 6132              		.align 16
 6133              	.LC6:
 6134 0060 08       		.byte	8
 6135 0061 2E       		.byte	46
 6136 0062 A1       		.byte	-95
 6137 0063 66       		.byte	102
 6138 0064 28       		.byte	40
 6139 0065 D9       		.byte	-39
 6140 0066 24       		.byte	36
 6141 0067 B2       		.byte	-78
 6142 0068 76       		.byte	118
 6143 0069 5B       		.byte	91
 6144 006a A2       		.byte	-94
 6145 006b 49       		.byte	73
 6146 006c 6D       		.byte	109
 6147 006d 8B       		.byte	-117
 6148 006e D1       		.byte	-47
 6149 006f 25       		.byte	37
 6150              		.align 16
 6151              	.LC7:
 6152 0070 72       		.byte	114
 6153 0071 F8       		.byte	-8
 6154 0072 F6       		.byte	-10
 6155 0073 64       		.byte	100
 6156 0074 86       		.byte	-122
 6157 0075 68       		.byte	104
 6158 0076 98       		.byte	-104
GAS LISTING /tmp/ccABNvJu.s 			page 235


 6159 0077 16       		.byte	22
 6160 0078 D4       		.byte	-44
 6161 0079 A4       		.byte	-92
 6162 007a 5C       		.byte	92
 6163 007b CC       		.byte	-52
 6164 007c 5D       		.byte	93
 6165 007d 65       		.byte	101
 6166 007e B6       		.byte	-74
 6167 007f 92       		.byte	-110
 6168              		.align 16
 6169              	.LC8:
 6170 0080 6C       		.byte	108
 6171 0081 70       		.byte	112
 6172 0082 48       		.byte	72
 6173 0083 50       		.byte	80
 6174 0084 FD       		.byte	-3
 6175 0085 ED       		.byte	-19
 6176 0086 B9       		.byte	-71
 6177 0087 DA       		.byte	-38
 6178 0088 5E       		.byte	94
 6179 0089 15       		.byte	21
 6180 008a 46       		.byte	70
 6181 008b 57       		.byte	87
 6182 008c A7       		.byte	-89
 6183 008d 8D       		.byte	-115
 6184 008e 9D       		.byte	-99
 6185 008f 84       		.byte	-124
 6186              		.align 16
 6187              	.LC9:
 6188 0090 90       		.byte	-112
 6189 0091 D8       		.byte	-40
 6190 0092 AB       		.byte	-85
 6191 0093 00       		.byte	0
 6192 0094 8C       		.byte	-116
 6193 0095 BC       		.byte	-68
 6194 0096 D3       		.byte	-45
 6195 0097 0A       		.byte	10
 6196 0098 F7       		.byte	-9
 6197 0099 E4       		.byte	-28
 6198 009a 58       		.byte	88
 6199 009b 05       		.byte	5
 6200 009c B8       		.byte	-72
 6201 009d B3       		.byte	-77
 6202 009e 45       		.byte	69
 6203 009f 06       		.byte	6
 6204              		.align 16
 6205              	.LC10:
 6206 00a0 D0       		.byte	-48
 6207 00a1 2C       		.byte	44
 6208 00a2 1E       		.byte	30
 6209 00a3 8F       		.byte	-113
 6210 00a4 CA       		.byte	-54
 6211 00a5 3F       		.byte	63
 6212 00a6 0F       		.byte	15
 6213 00a7 02       		.byte	2
 6214 00a8 C1       		.byte	-63
 6215 00a9 AF       		.byte	-81
GAS LISTING /tmp/ccABNvJu.s 			page 236


 6216 00aa BD       		.byte	-67
 6217 00ab 03       		.byte	3
 6218 00ac 01       		.byte	1
 6219 00ad 13       		.byte	19
 6220 00ae 8A       		.byte	-118
 6221 00af 6B       		.byte	107
 6222              		.align 16
 6223              	.LC11:
 6224 00b0 3A       		.byte	58
 6225 00b1 91       		.byte	-111
 6226 00b2 11       		.byte	17
 6227 00b3 41       		.byte	65
 6228 00b4 4F       		.byte	79
 6229 00b5 67       		.byte	103
 6230 00b6 DC       		.byte	-36
 6231 00b7 EA       		.byte	-22
 6232 00b8 97       		.byte	-105
 6233 00b9 F2       		.byte	-14
 6234 00ba CF       		.byte	-49
 6235 00bb CE       		.byte	-50
 6236 00bc F0       		.byte	-16
 6237 00bd B4       		.byte	-76
 6238 00be E6       		.byte	-26
 6239 00bf 73       		.byte	115
 6240              		.align 16
 6241              	.LC12:
 6242 00c0 96       		.byte	-106
 6243 00c1 AC       		.byte	-84
 6244 00c2 74       		.byte	116
 6245 00c3 22       		.byte	34
 6246 00c4 E7       		.byte	-25
 6247 00c5 AD       		.byte	-83
 6248 00c6 35       		.byte	53
 6249 00c7 85       		.byte	-123
 6250 00c8 E2       		.byte	-30
 6251 00c9 F9       		.byte	-7
 6252 00ca 37       		.byte	55
 6253 00cb E8       		.byte	-24
 6254 00cc 1C       		.byte	28
 6255 00cd 75       		.byte	117
 6256 00ce DF       		.byte	-33
 6257 00cf 6E       		.byte	110
 6258              		.align 16
 6259              	.LC13:
 6260 00d0 47       		.byte	71
 6261 00d1 F1       		.byte	-15
 6262 00d2 1A       		.byte	26
 6263 00d3 71       		.byte	113
 6264 00d4 1D       		.byte	29
 6265 00d5 29       		.byte	41
 6266 00d6 C5       		.byte	-59
 6267 00d7 89       		.byte	-119
 6268 00d8 6F       		.byte	111
 6269 00d9 B7       		.byte	-73
 6270 00da 62       		.byte	98
 6271 00db 0E       		.byte	14
 6272 00dc AA       		.byte	-86
GAS LISTING /tmp/ccABNvJu.s 			page 237


 6273 00dd 18       		.byte	24
 6274 00de BE       		.byte	-66
 6275 00df 1B       		.byte	27
 6276              		.align 16
 6277              	.LC14:
 6278 00e0 FC       		.byte	-4
 6279 00e1 56       		.byte	86
 6280 00e2 3E       		.byte	62
 6281 00e3 4B       		.byte	75
 6282 00e4 C6       		.byte	-58
 6283 00e5 D2       		.byte	-46
 6284 00e6 79       		.byte	121
 6285 00e7 20       		.byte	32
 6286 00e8 9A       		.byte	-102
 6287 00e9 DB       		.byte	-37
 6288 00ea C0       		.byte	-64
 6289 00eb FE       		.byte	-2
 6290 00ec 78       		.byte	120
 6291 00ed CD       		.byte	-51
 6292 00ee 5A       		.byte	90
 6293 00ef F4       		.byte	-12
 6294              		.align 16
 6295              	.LC15:
 6296 00f0 1F       		.byte	31
 6297 00f1 DD       		.byte	-35
 6298 00f2 A8       		.byte	-88
 6299 00f3 33       		.byte	51
 6300 00f4 88       		.byte	-120
 6301 00f5 07       		.byte	7
 6302 00f6 C7       		.byte	-57
 6303 00f7 31       		.byte	49
 6304 00f8 B1       		.byte	-79
 6305 00f9 12       		.byte	18
 6306 00fa 10       		.byte	16
 6307 00fb 59       		.byte	89
 6308 00fc 27       		.byte	39
 6309 00fd 80       		.byte	-128
 6310 00fe EC       		.byte	-20
 6311 00ff 5F       		.byte	95
 6312              		.align 16
 6313              	.LC16:
 6314 0100 60       		.byte	96
 6315 0101 51       		.byte	81
 6316 0102 7F       		.byte	127
 6317 0103 A9       		.byte	-87
 6318 0104 19       		.byte	25
 6319 0105 B5       		.byte	-75
 6320 0106 4A       		.byte	74
 6321 0107 0D       		.byte	13
 6322 0108 2D       		.byte	45
 6323 0109 E5       		.byte	-27
 6324 010a 7A       		.byte	122
 6325 010b 9F       		.byte	-97
 6326 010c 93       		.byte	-109
 6327 010d C9       		.byte	-55
 6328 010e 9C       		.byte	-100
 6329 010f EF       		.byte	-17
GAS LISTING /tmp/ccABNvJu.s 			page 238


 6330              		.align 16
 6331              	.LC17:
 6332 0110 A0       		.byte	-96
 6333 0111 E0       		.byte	-32
 6334 0112 3B       		.byte	59
 6335 0113 4D       		.byte	77
 6336 0114 AE       		.byte	-82
 6337 0115 2A       		.byte	42
 6338 0116 F5       		.byte	-11
 6339 0117 B0       		.byte	-80
 6340 0118 C8       		.byte	-56
 6341 0119 EB       		.byte	-21
 6342 011a BB       		.byte	-69
 6343 011b 3C       		.byte	60
 6344 011c 83       		.byte	-125
 6345 011d 53       		.byte	83
 6346 011e 99       		.byte	-103
 6347 011f 61       		.byte	97
 6348              		.align 16
 6349              	.LC18:
 6350 0120 17       		.byte	23
 6351 0121 2B       		.byte	43
 6352 0122 04       		.byte	4
 6353 0123 7E       		.byte	126
 6354 0124 BA       		.byte	-70
 6355 0125 77       		.byte	119
 6356 0126 D6       		.byte	-42
 6357 0127 26       		.byte	38
 6358 0128 E1       		.byte	-31
 6359 0129 69       		.byte	105
 6360 012a 14       		.byte	20
 6361 012b 63       		.byte	99
 6362 012c 55       		.byte	85
 6363 012d 21       		.byte	33
 6364 012e 0C       		.byte	12
 6365 012f 7D       		.byte	125
 6366              		.align 16
 6367              	.LC19:
 6368 0130 00       		.byte	0
 6369 0131 0D       		.byte	13
 6370 0132 0A       		.byte	10
 6371 0133 07       		.byte	7
 6372 0134 04       		.byte	4
 6373 0135 01       		.byte	1
 6374 0136 0E       		.byte	14
 6375 0137 0B       		.byte	11
 6376 0138 08       		.byte	8
 6377 0139 05       		.byte	5
 6378 013a 02       		.byte	2
 6379 013b 0F       		.byte	15
 6380 013c 0C       		.byte	12
 6381 013d 09       		.byte	9
 6382 013e 06       		.byte	6
 6383 013f 03       		.byte	3
 6384              		.align 16
 6385              	.LC20:
 6386 0140 01       		.byte	1
GAS LISTING /tmp/ccABNvJu.s 			page 239


 6387 0141 02       		.byte	2
 6388 0142 03       		.byte	3
 6389 0143 00       		.byte	0
 6390 0144 05       		.byte	5
 6391 0145 06       		.byte	6
 6392 0146 07       		.byte	7
 6393 0147 04       		.byte	4
 6394 0148 09       		.byte	9
 6395 0149 0A       		.byte	10
 6396 014a 0B       		.byte	11
 6397 014b 08       		.byte	8
 6398 014c 0D       		.byte	13
 6399 014d 0E       		.byte	14
 6400 014e 0F       		.byte	15
 6401 014f 0C       		.byte	12
 6402              		.align 16
 6403              	.LC21:
 6404 0150 00       		.byte	0
 6405 0151 1B       		.byte	27
 6406 0152 36       		.byte	54
 6407 0153 2D       		.byte	45
 6408 0154 6C       		.byte	108
 6409 0155 77       		.byte	119
 6410 0156 5A       		.byte	90
 6411 0157 41       		.byte	65
 6412 0158 00       		.byte	0
 6413 0159 00       		.byte	0
 6414 015a 00       		.byte	0
 6415 015b 00       		.byte	0
 6416 015c 00       		.byte	0
 6417 015d 00       		.byte	0
 6418 015e 00       		.byte	0
 6419 015f 00       		.byte	0
 6420              		.align 16
 6421              	.LC22:
 6422 0160 03       		.byte	3
 6423 0161 03       		.byte	3
 6424 0162 03       		.byte	3
 6425 0163 03       		.byte	3
 6426 0164 03       		.byte	3
 6427 0165 03       		.byte	3
 6428 0166 03       		.byte	3
 6429 0167 03       		.byte	3
 6430 0168 03       		.byte	3
 6431 0169 03       		.byte	3
 6432 016a 03       		.byte	3
 6433 016b 03       		.byte	3
 6434 016c 03       		.byte	3
 6435 016d 03       		.byte	3
 6436 016e 03       		.byte	3
 6437 016f 03       		.byte	3
 6438              		.align 16
 6439              	.LC23:
 6440 0170 07       		.byte	7
 6441 0171 07       		.byte	7
 6442 0172 07       		.byte	7
 6443 0173 07       		.byte	7
GAS LISTING /tmp/ccABNvJu.s 			page 240


 6444 0174 07       		.byte	7
 6445 0175 07       		.byte	7
 6446 0176 07       		.byte	7
 6447 0177 07       		.byte	7
 6448 0178 07       		.byte	7
 6449 0179 07       		.byte	7
 6450 017a 07       		.byte	7
 6451 017b 07       		.byte	7
 6452 017c 07       		.byte	7
 6453 017d 07       		.byte	7
 6454 017e 07       		.byte	7
 6455 017f 07       		.byte	7
 6456              		.align 16
 6457              	.LC24:
 6458 0180 FE       		.byte	-2
 6459 0181 FE       		.byte	-2
 6460 0182 FE       		.byte	-2
 6461 0183 FE       		.byte	-2
 6462 0184 FE       		.byte	-2
 6463 0185 FE       		.byte	-2
 6464 0186 FE       		.byte	-2
 6465 0187 FE       		.byte	-2
 6466 0188 FE       		.byte	-2
 6467 0189 FE       		.byte	-2
 6468 018a FE       		.byte	-2
 6469 018b FE       		.byte	-2
 6470 018c FE       		.byte	-2
 6471 018d FE       		.byte	-2
 6472 018e FE       		.byte	-2
 6473 018f FE       		.byte	-2
 6474              		.align 16
 6475              	.LC25:
 6476 0190 F8       		.byte	-8
 6477 0191 F8       		.byte	-8
 6478 0192 F8       		.byte	-8
 6479 0193 F8       		.byte	-8
 6480 0194 F8       		.byte	-8
 6481 0195 F8       		.byte	-8
 6482 0196 F8       		.byte	-8
 6483 0197 F8       		.byte	-8
 6484 0198 F8       		.byte	-8
 6485 0199 F8       		.byte	-8
 6486 019a F8       		.byte	-8
 6487 019b F8       		.byte	-8
 6488 019c F8       		.byte	-8
 6489 019d F8       		.byte	-8
 6490 019e F8       		.byte	-8
 6491 019f F8       		.byte	-8
 6492              		.align 16
 6493              	.LC26:
 6494 01a0 FC       		.byte	-4
 6495 01a1 FC       		.byte	-4
 6496 01a2 FC       		.byte	-4
 6497 01a3 FC       		.byte	-4
 6498 01a4 FC       		.byte	-4
 6499 01a5 FC       		.byte	-4
 6500 01a6 FC       		.byte	-4
GAS LISTING /tmp/ccABNvJu.s 			page 241


 6501 01a7 FC       		.byte	-4
 6502 01a8 FC       		.byte	-4
 6503 01a9 FC       		.byte	-4
 6504 01aa FC       		.byte	-4
 6505 01ab FC       		.byte	-4
 6506 01ac FC       		.byte	-4
 6507 01ad FC       		.byte	-4
 6508 01ae FC       		.byte	-4
 6509 01af FC       		.byte	-4
 6510              		.align 16
 6511              	.LC27:
 6512 01b0 63       		.byte	99
 6513 01b1 7C       		.byte	124
 6514 01b2 77       		.byte	119
 6515 01b3 7B       		.byte	123
 6516 01b4 F2       		.byte	-14
 6517 01b5 6B       		.byte	107
 6518 01b6 6F       		.byte	111
 6519 01b7 C5       		.byte	-59
 6520 01b8 30       		.byte	48
 6521 01b9 01       		.byte	1
 6522 01ba 67       		.byte	103
 6523 01bb 2B       		.byte	43
 6524 01bc FE       		.byte	-2
 6525 01bd D7       		.byte	-41
 6526 01be AB       		.byte	-85
 6527 01bf 76       		.byte	118
 6528              		.align 16
 6529              	.LC28:
 6530 01c0 CA       		.byte	-54
 6531 01c1 82       		.byte	-126
 6532 01c2 C9       		.byte	-55
 6533 01c3 7D       		.byte	125
 6534 01c4 FA       		.byte	-6
 6535 01c5 59       		.byte	89
 6536 01c6 47       		.byte	71
 6537 01c7 F0       		.byte	-16
 6538 01c8 AD       		.byte	-83
 6539 01c9 D4       		.byte	-44
 6540 01ca A2       		.byte	-94
 6541 01cb AF       		.byte	-81
 6542 01cc 9C       		.byte	-100
 6543 01cd A4       		.byte	-92
 6544 01ce 72       		.byte	114
 6545 01cf C0       		.byte	-64
 6546              		.align 16
 6547              	.LC29:
 6548 01d0 B7       		.byte	-73
 6549 01d1 FD       		.byte	-3
 6550 01d2 93       		.byte	-109
 6551 01d3 26       		.byte	38
 6552 01d4 36       		.byte	54
 6553 01d5 3F       		.byte	63
 6554 01d6 F7       		.byte	-9
 6555 01d7 CC       		.byte	-52
 6556 01d8 34       		.byte	52
 6557 01d9 A5       		.byte	-91
GAS LISTING /tmp/ccABNvJu.s 			page 242


 6558 01da E5       		.byte	-27
 6559 01db F1       		.byte	-15
 6560 01dc 71       		.byte	113
 6561 01dd D8       		.byte	-40
 6562 01de 31       		.byte	49
 6563 01df 15       		.byte	21
 6564              		.align 16
 6565              	.LC30:
 6566 01e0 04       		.byte	4
 6567 01e1 C7       		.byte	-57
 6568 01e2 23       		.byte	35
 6569 01e3 C3       		.byte	-61
 6570 01e4 18       		.byte	24
 6571 01e5 96       		.byte	-106
 6572 01e6 05       		.byte	5
 6573 01e7 9A       		.byte	-102
 6574 01e8 07       		.byte	7
 6575 01e9 12       		.byte	18
 6576 01ea 80       		.byte	-128
 6577 01eb E2       		.byte	-30
 6578 01ec EB       		.byte	-21
 6579 01ed 27       		.byte	39
 6580 01ee B2       		.byte	-78
 6581 01ef 75       		.byte	117
 6582              		.align 16
 6583              	.LC31:
 6584 01f0 09       		.byte	9
 6585 01f1 83       		.byte	-125
 6586 01f2 2C       		.byte	44
 6587 01f3 1A       		.byte	26
 6588 01f4 1B       		.byte	27
 6589 01f5 6E       		.byte	110
 6590 01f6 5A       		.byte	90
 6591 01f7 A0       		.byte	-96
 6592 01f8 52       		.byte	82
 6593 01f9 3B       		.byte	59
 6594 01fa D6       		.byte	-42
 6595 01fb B3       		.byte	-77
 6596 01fc 29       		.byte	41
 6597 01fd E3       		.byte	-29
 6598 01fe 2F       		.byte	47
 6599 01ff 84       		.byte	-124
 6600              		.align 16
 6601              	.LC32:
 6602 0200 53       		.byte	83
 6603 0201 D1       		.byte	-47
 6604 0202 00       		.byte	0
 6605 0203 ED       		.byte	-19
 6606 0204 20       		.byte	32
 6607 0205 FC       		.byte	-4
 6608 0206 B1       		.byte	-79
 6609 0207 5B       		.byte	91
 6610 0208 6A       		.byte	106
 6611 0209 CB       		.byte	-53
 6612 020a BE       		.byte	-66
 6613 020b 39       		.byte	57
 6614 020c 4A       		.byte	74
GAS LISTING /tmp/ccABNvJu.s 			page 243


 6615 020d 4C       		.byte	76
 6616 020e 58       		.byte	88
 6617 020f CF       		.byte	-49
 6618              		.align 16
 6619              	.LC33:
 6620 0210 D0       		.byte	-48
 6621 0211 EF       		.byte	-17
 6622 0212 AA       		.byte	-86
 6623 0213 FB       		.byte	-5
 6624 0214 43       		.byte	67
 6625 0215 4D       		.byte	77
 6626 0216 33       		.byte	51
 6627 0217 85       		.byte	-123
 6628 0218 45       		.byte	69
 6629 0219 F9       		.byte	-7
 6630 021a 02       		.byte	2
 6631 021b 7F       		.byte	127
 6632 021c 50       		.byte	80
 6633 021d 3C       		.byte	60
 6634 021e 9F       		.byte	-97
 6635 021f A8       		.byte	-88
 6636              		.align 16
 6637              	.LC34:
 6638 0220 51       		.byte	81
 6639 0221 A3       		.byte	-93
 6640 0222 40       		.byte	64
 6641 0223 8F       		.byte	-113
 6642 0224 92       		.byte	-110
 6643 0225 9D       		.byte	-99
 6644 0226 38       		.byte	56
 6645 0227 F5       		.byte	-11
 6646 0228 BC       		.byte	-68
 6647 0229 B6       		.byte	-74
 6648 022a DA       		.byte	-38
 6649 022b 21       		.byte	33
 6650 022c 10       		.byte	16
 6651 022d FF       		.byte	-1
 6652 022e F3       		.byte	-13
 6653 022f D2       		.byte	-46
 6654              		.align 16
 6655              	.LC35:
 6656 0230 CD       		.byte	-51
 6657 0231 0C       		.byte	12
 6658 0232 13       		.byte	19
 6659 0233 EC       		.byte	-20
 6660 0234 5F       		.byte	95
 6661 0235 97       		.byte	-105
 6662 0236 44       		.byte	68
 6663 0237 17       		.byte	23
 6664 0238 C4       		.byte	-60
 6665 0239 A7       		.byte	-89
 6666 023a 7E       		.byte	126
 6667 023b 3D       		.byte	61
 6668 023c 64       		.byte	100
 6669 023d 5D       		.byte	93
 6670 023e 19       		.byte	25
 6671 023f 73       		.byte	115
GAS LISTING /tmp/ccABNvJu.s 			page 244


 6672              		.align 16
 6673              	.LC36:
 6674 0240 60       		.byte	96
 6675 0241 81       		.byte	-127
 6676 0242 4F       		.byte	79
 6677 0243 DC       		.byte	-36
 6678 0244 22       		.byte	34
 6679 0245 2A       		.byte	42
 6680 0246 90       		.byte	-112
 6681 0247 88       		.byte	-120
 6682 0248 46       		.byte	70
 6683 0249 EE       		.byte	-18
 6684 024a B8       		.byte	-72
 6685 024b 14       		.byte	20
 6686 024c DE       		.byte	-34
 6687 024d 5E       		.byte	94
 6688 024e 0B       		.byte	11
 6689 024f DB       		.byte	-37
 6690              		.align 16
 6691              	.LC37:
 6692 0250 E0       		.byte	-32
 6693 0251 32       		.byte	50
 6694 0252 3A       		.byte	58
 6695 0253 0A       		.byte	10
 6696 0254 49       		.byte	73
 6697 0255 06       		.byte	6
 6698 0256 24       		.byte	36
 6699 0257 5C       		.byte	92
 6700 0258 C2       		.byte	-62
 6701 0259 D3       		.byte	-45
 6702 025a AC       		.byte	-84
 6703 025b 62       		.byte	98
 6704 025c 91       		.byte	-111
 6705 025d 95       		.byte	-107
 6706 025e E4       		.byte	-28
 6707 025f 79       		.byte	121
 6708              		.align 16
 6709              	.LC38:
 6710 0260 E7       		.byte	-25
 6711 0261 C8       		.byte	-56
 6712 0262 37       		.byte	55
 6713 0263 6D       		.byte	109
 6714 0264 8D       		.byte	-115
 6715 0265 D5       		.byte	-43
 6716 0266 4E       		.byte	78
 6717 0267 A9       		.byte	-87
 6718 0268 6C       		.byte	108
 6719 0269 56       		.byte	86
 6720 026a F4       		.byte	-12
 6721 026b EA       		.byte	-22
 6722 026c 65       		.byte	101
 6723 026d 7A       		.byte	122
 6724 026e AE       		.byte	-82
 6725 026f 08       		.byte	8
 6726              		.align 16
 6727              	.LC39:
 6728 0270 BA       		.byte	-70
GAS LISTING /tmp/ccABNvJu.s 			page 245


 6729 0271 78       		.byte	120
 6730 0272 25       		.byte	37
 6731 0273 2E       		.byte	46
 6732 0274 1C       		.byte	28
 6733 0275 A6       		.byte	-90
 6734 0276 B4       		.byte	-76
 6735 0277 C6       		.byte	-58
 6736 0278 E8       		.byte	-24
 6737 0279 DD       		.byte	-35
 6738 027a 74       		.byte	116
 6739 027b 1F       		.byte	31
 6740 027c 4B       		.byte	75
 6741 027d BD       		.byte	-67
 6742 027e 8B       		.byte	-117
 6743 027f 8A       		.byte	-118
 6744              		.align 16
 6745              	.LC40:
 6746 0280 70       		.byte	112
 6747 0281 3E       		.byte	62
 6748 0282 B5       		.byte	-75
 6749 0283 66       		.byte	102
 6750 0284 48       		.byte	72
 6751 0285 03       		.byte	3
 6752 0286 F6       		.byte	-10
 6753 0287 0E       		.byte	14
 6754 0288 61       		.byte	97
 6755 0289 35       		.byte	53
 6756 028a 57       		.byte	87
 6757 028b B9       		.byte	-71
 6758 028c 86       		.byte	-122
 6759 028d C1       		.byte	-63
 6760 028e 1D       		.byte	29
 6761 028f 9E       		.byte	-98
 6762              		.align 16
 6763              	.LC41:
 6764 0290 E1       		.byte	-31
 6765 0291 F8       		.byte	-8
 6766 0292 98       		.byte	-104
 6767 0293 11       		.byte	17
 6768 0294 69       		.byte	105
 6769 0295 D9       		.byte	-39
 6770 0296 8E       		.byte	-114
 6771 0297 94       		.byte	-108
 6772 0298 9B       		.byte	-101
 6773 0299 1E       		.byte	30
 6774 029a 87       		.byte	-121
 6775 029b E9       		.byte	-23
 6776 029c CE       		.byte	-50
 6777 029d 55       		.byte	85
 6778 029e 28       		.byte	40
 6779 029f DF       		.byte	-33
 6780              		.align 16
 6781              	.LC42:
 6782 02a0 8C       		.byte	-116
 6783 02a1 A1       		.byte	-95
 6784 02a2 89       		.byte	-119
 6785 02a3 0D       		.byte	13
GAS LISTING /tmp/ccABNvJu.s 			page 246


 6786 02a4 BF       		.byte	-65
 6787 02a5 E6       		.byte	-26
 6788 02a6 42       		.byte	66
 6789 02a7 68       		.byte	104
 6790 02a8 41       		.byte	65
 6791 02a9 99       		.byte	-103
 6792 02aa 2D       		.byte	45
 6793 02ab 0F       		.byte	15
 6794 02ac B0       		.byte	-80
 6795 02ad 54       		.byte	84
 6796 02ae BB       		.byte	-69
 6797 02af 16       		.byte	22
 6798              		.align 16
 6799              	.LC43:
 6800 02b0 FF       		.byte	-1
 6801 02b1 FF       		.byte	-1
 6802 02b2 FF       		.byte	-1
 6803 02b3 FF       		.byte	-1
 6804 02b4 00       		.byte	0
 6805 02b5 01       		.byte	1
 6806 02b6 02       		.byte	2
 6807 02b7 03       		.byte	3
 6808 02b8 04       		.byte	4
 6809 02b9 05       		.byte	5
 6810 02ba 06       		.byte	6
 6811 02bb 07       		.byte	7
 6812 02bc 08       		.byte	8
 6813 02bd 09       		.byte	9
 6814 02be 0A       		.byte	10
 6815 02bf 0B       		.byte	11
 6816              		.align 16
 6817              	.LC44:
 6818 02c0 00000000 		.long	0
 6819 02c4 00000000 		.long	0
 6820 02c8 00000000 		.long	0
 6821 02cc 01000000 		.long	1
 6822              		.align 16
 6823              	.LC45:
 6824 02d0 00000000 		.long	0
 6825 02d4 00000000 		.long	0
 6826 02d8 00000000 		.long	0
 6827 02dc 02000000 		.long	2
 6828              		.align 16
 6829              	.LC46:
 6830 02e0 00000000 		.long	0
 6831 02e4 00000000 		.long	0
 6832 02e8 00000000 		.long	0
 6833 02ec 04000000 		.long	4
 6834              		.align 16
 6835              	.LC47:
 6836 02f0 00000000 		.long	0
 6837 02f4 00000000 		.long	0
 6838 02f8 00000000 		.long	0
 6839 02fc 08000000 		.long	8
 6840              		.align 16
 6841              	.LC48:
 6842 0300 00000000 		.long	0
GAS LISTING /tmp/ccABNvJu.s 			page 247


 6843 0304 00000000 		.long	0
 6844 0308 00000000 		.long	0
 6845 030c 10000000 		.long	16
 6846              		.align 16
 6847              	.LC49:
 6848 0310 00000000 		.long	0
 6849 0314 00000000 		.long	0
 6850 0318 00000000 		.long	0
 6851 031c 20000000 		.long	32
 6852              		.align 16
 6853              	.LC53:
 6854 0320 08       		.byte	8
 6855 0321 09       		.byte	9
 6856 0322 0A       		.byte	10
 6857 0323 0B       		.byte	11
 6858 0324 0C       		.byte	12
 6859 0325 0D       		.byte	13
 6860 0326 0E       		.byte	14
 6861 0327 0F       		.byte	15
 6862 0328 FF       		.byte	-1
 6863 0329 FF       		.byte	-1
 6864 032a FF       		.byte	-1
 6865 032b FF       		.byte	-1
 6866 032c FF       		.byte	-1
 6867 032d FF       		.byte	-1
 6868 032e FF       		.byte	-1
 6869 032f FF       		.byte	-1
 6870              		.align 16
 6871              	.LC54:
 6872 0330 00       		.byte	0
 6873 0331 05       		.byte	5
 6874 0332 0A       		.byte	10
 6875 0333 0F       		.byte	15
 6876 0334 04       		.byte	4
 6877 0335 09       		.byte	9
 6878 0336 0E       		.byte	14
 6879 0337 03       		.byte	3
 6880 0338 08       		.byte	8
 6881 0339 0D       		.byte	13
 6882 033a 02       		.byte	2
 6883 033b 07       		.byte	7
 6884 033c 0C       		.byte	12
 6885 033d 01       		.byte	1
 6886 033e 06       		.byte	6
 6887 033f 0B       		.byte	11
 6888              		.ident	"GCC: (GNU) 4.4.2"
 6889              		.section	.note.GNU-stack,"",@progbits
GAS LISTING /tmp/ccABNvJu.s 			page 248


DEFINED SYMBOLS
                            *ABS*:0000000000000000 aes-ncbi.c
     /tmp/ccABNvJu.s:5      .text:0000000000000000 KAESBlockCipherVecRegDestroy
     /tmp/ccABNvJu.s:15     .text:0000000000000010 KAESBlockCipherVecRegBlockSize
     /tmp/ccABNvJu.s:25     .text:0000000000000020 KAESBlockCipherVecRegKeySize
     /tmp/ccABNvJu.s:36     .text:0000000000000030 KAESBlockCipherVecRegMake
     /tmp/ccABNvJu.s:5752   .data.rel.ro.local:0000000000000000 KAESBlockCipherVecReg_vt_
     /tmp/ccABNvJu.s:86     .text:0000000000000090 KAESBlockCipherVecRegEqInvCipher
     /tmp/ccABNvJu.s:496    .text:0000000000000900 KAESBlockCipherVecRegDecrypt
     /tmp/ccABNvJu.s:530    .text:0000000000000950 KAESBlockCipherVecRegKeyExpansion128
     /tmp/ccABNvJu.s:2157   .text:0000000000002d40 KAESBlockCipherVecRegKeyExpansion256
     /tmp/ccABNvJu.s:5766   .rodata:0000000000000000 KAESBlockCipherVecRegRijndaelSBox
     /tmp/ccABNvJu.s:3506   .text:0000000000004930 KAESBlockCipherVecRegKeyExpansion192
     /tmp/ccABNvJu.s:4413   .text:0000000000005bb0 KAESBlockCipherVecRegSetEncryptKey
     /tmp/ccABNvJu.s:4459   .text:0000000000005c40 KAESBlockCipherVecRegEncrypt
     /tmp/ccABNvJu.s:5471   .text:00000000000070a0 KAESBlockCipherVecRegSetDecryptKey
                    .rodata.cst16:0000000000000070 .LC7
                    .rodata.cst16:0000000000000080 .LC8
                    .rodata.cst16:0000000000000090 .LC9
                    .rodata.cst16:00000000000000c0 .LC12
                    .rodata.cst16:00000000000000a0 .LC10
                    .rodata.cst16:00000000000000b0 .LC11
                    .rodata.cst16:00000000000000d0 .LC13
                    .rodata.cst16:00000000000000e0 .LC14
                    .rodata.cst16:00000000000000f0 .LC15
                    .rodata.cst16:0000000000000100 .LC16
                    .rodata.cst16:0000000000000130 .LC19
                    .rodata.cst16:0000000000000110 .LC17
                    .rodata.cst16:0000000000000120 .LC18
                    .rodata.cst16:0000000000000000 .LC0
                    .rodata.cst16:0000000000000010 .LC1
                    .rodata.cst16:0000000000000020 .LC2
                    .rodata.cst16:0000000000000030 .LC3
                    .rodata.cst16:0000000000000040 .LC4
                    .rodata.cst16:0000000000000050 .LC5
                    .rodata.cst16:0000000000000060 .LC6
                    .rodata.cst16:0000000000000140 .LC20
                    .rodata.cst16:0000000000000150 .LC21
                    .rodata.cst16:0000000000000160 .LC22
                    .rodata.cst16:0000000000000180 .LC24
                    .rodata.cst16:00000000000001a0 .LC26
                    .rodata.cst16:0000000000000170 .LC23
                    .rodata.cst16:0000000000000190 .LC25
                    .rodata.cst16:00000000000001b0 .LC27
                    .rodata.cst16:00000000000001c0 .LC28
                    .rodata.cst16:00000000000001d0 .LC29
                    .rodata.cst16:00000000000001f0 .LC31
                    .rodata.cst16:00000000000001e0 .LC30
                    .rodata.cst16:0000000000000200 .LC32
                    .rodata.cst16:0000000000000210 .LC33
                    .rodata.cst16:0000000000000220 .LC34
                    .rodata.cst16:0000000000000230 .LC35
                    .rodata.cst16:0000000000000240 .LC36
                    .rodata.cst16:0000000000000250 .LC37
                    .rodata.cst16:0000000000000260 .LC38
                    .rodata.cst16:0000000000000270 .LC39
                    .rodata.cst16:0000000000000280 .LC40
GAS LISTING /tmp/ccABNvJu.s 			page 249


                    .rodata.cst16:0000000000000290 .LC41
                    .rodata.cst16:00000000000002a0 .LC42
                    .rodata.cst16:00000000000002b0 .LC43
                    .rodata.cst16:00000000000002c0 .LC44
                    .rodata.cst16:00000000000002d0 .LC45
                    .rodata.cst16:00000000000002e0 .LC46
                    .rodata.cst16:00000000000002f0 .LC47
                    .rodata.cst16:0000000000000300 .LC48
                    .rodata.cst16:0000000000000310 .LC49
                    .rodata.cst16:0000000000000320 .LC53
                    .rodata.cst16:0000000000000330 .LC54

NO UNDEFINED SYMBOLS
